
Allocating common symbols
Common symbol       size              file

clflush_size        0x4               output.o
sReaderContext      0x60              output.o
uefi_memory_map_data
                    0x4000            output.o
uefi_booted         0x4               output.o
sigx_app            0x8               output.o
log                 0x10000           output.o
num_dom             0x4               output.o
mszReaders          0x400             output.o
prohibit_iccard_init
                    0x4               output.o
pci_config_mmio_data_head
                    0x8               output.o
curthread           0x8               output.o
sig_app             0x8               output.o
readerState         0x64              output.o
dom_io              0x800             output.o
acpi_dsdt_system_state
                    0x1e              output.o
ehci_host           0x8               output.o
num_of_processors   0x4               output.o
e801_fake_bx        0x2               output.o
iommu_detected      0x1               output.o
process             0x6500            output.o
dwReaders           0x8               output.o
readerTracker       0x140             output.o
handler_descriptor_lock
                    0x1               output.o
e801_fake_ax        0x2               output.o

Discarded input sections

 .gomi          0x0000000000000000       0x10 output.o

Memory Configuration

Name             Origin             Length             Attributes
*default*        0x0000000000000000 0xffffffffffffffff

Linker script and memory map

                0x0000000040100000                virt = 0x40100000
                0x0000000000100000                phys = 0x100000
                0x0000000040100000                . = virt
                0x0000000040100000                head = .
                0x00000000401000b0                . = (virt + SIZEOF_HEADERS)

.entry          0x0000000040101000     0x65f0 load address 0x0000000000101000
                0x0000000040101000                code = .
 *(.entry)
 .entry         0x0000000040101000     0x6000 output.o
                0x000000004010100c                entry
                0x0000000040101338                uefi_entry_virttophys
                0x0000000040101343                uefi_entry_call
                0x000000004010137f                uefi_entry_pcpy
                0x00000000401013be                uefi_entry_start
                0x00000000401014d5                uefi_entry_rsp
                0x00000000401014dd                uefi_entry_ret_addr
                0x0000000040101580                cpuinit_start
                0x00000000401017b0                vmm_base_cr3
                0x00000000401017c8                apinit_procs
                0x00000000401017d0                apinit_lock
                0x00000000401017d8                cpuinit_end
                0x0000000040103000                entry_pdp
                0x0000000040104000                entry_pd0
                0x0000000040105000                entry_pd
 *(.entry.text)
 .entry.text    0x0000000040107000      0x51c output.o
                0x0000000040107000                uefi_init_get_vmmsize
                0x00000000401070a2                uefi_init
 *(.entry.data)
 *fill*         0x000000004010751c        0x4 
 .entry.data    0x0000000040107520       0xd0 output.o
                0x0000000040107578                uefi_acpi_table
                0x0000000040107580                uefi_acpi_20_table
                0x0000000040107588                uefi_wait_for_event
                0x0000000040107590                uefi_free_pages
                0x0000000040107598                uefi_get_memory_map
                0x00000000401075a0                uefi_allocate_pages
                0x00000000401075a8                uefi_conout_output_string
                0x00000000401075b0                uefi_conin_read_key_stroke
                0x00000000401075b8                uefi_conout
                0x00000000401075c0                uefi_conin

.text           0x0000000040108000   0x108209 load address 0x0000000000108000
                0x0000000040108000                text = .
 *(.text)
 .text          0x0000000040108000   0x108209 output.o
                0x0000000040108b27                acpi_smi_hook
                0x0000000040108b78                acpi_iohook
                0x0000000040108bcd                acpi_reset
                0x0000000040108cc4                acpi_poweroff
                0x0000000040108cf9                get_acpi_time_raw
                0x0000000040108d17                acpi_read_mcfg
                0x000000004010eb44                acpi_dsdt_parse
                0x000000004010ec01                acpi_ssdt_parse
                0x000000004010ecca                apinitproc0
                0x000000004010ecf6                apic_available
                0x000000004010ed1d                ap_start_addr
                0x000000004010f073                panic_wakeup_all
                0x000000004010f103                disable_apic
                0x000000004010f17d                sync_all_processors
                0x000000004010f209                start_all_processors
                0x000000004010f24b                assertion_failed
                0x000000004010f288                beep_set_freq
                0x000000004010f2b4                beep_on
                0x000000004010f2bf                beep_off
                0x000000004010f96e                update_mtrr_and_pat
                0x000000004010fd63                cache_get_gpat
                0x000000004010fdb5                cache_set_gpat
                0x000000004010fdff                cache_get_attr
                0x000000004010feb1                cache_get_gmtrr_type
                0x000000004010fecc                cache_get_gmtrr_attr
                0x000000004010fef0                cache_get_gmtrrcap
                0x000000004010ff1a                cache_get_gmtrr
                0x000000004011002a                cache_set_gmtrr
                0x0000000040110087                cache_get_gmsr_amd
                0x0000000040110115                cache_set_gmsr_amd
                0x0000000040110575                callrealmode_endofcodeaddr
                0x0000000040110581                callrealmode_usevcpu
                0x0000000040110589                callrealmode_printmsg
                0x00000000401105a5                callrealmode_getsysmemmap
                0x00000000401105f1                callrealmode_getshiftflags
                0x000000004011060e                callrealmode_setvideomode
                0x000000004011062b                callrealmode_reboot
                0x0000000040110643                callrealmode_tcgbios
                0x00000000401106e0                callrealmode_disk_readmbr
                0x0000000040110721                callrealmode_disk_readlba
                0x000000004011076c                callrealmode_bootcd_getstatus
                0x00000000401107c1                callrealmode_setcursorpos
                0x00000000401107e7                callrealmode_startkernel32
                0x0000000040110807                callrealmode_getfontinfo
                0x0000000040110874                call_uefi_get_memory_map
                0x00000000401108ed                call_uefi_allocate_pages
                0x000000004011094c                call_uefi_free_pages
                0x0000000040110971                call_uefi_getkey
                0x00000000401109e6                call_uefi_putchar
                0x0000000040110a31                fill_pagetable
                0x0000000040110b3a                copy_uefi_bootcode
                0x0000000040110c9c                get_cpu_id
                0x0000000040110cab                cpu_emul_cpuid
                0x0000000040110d67                cpu_emul_rdmsr
                0x0000000040110dd8                cpu_emul_wrmsr
                0x0000000040110e4a                cpu_emul_hlt
                0x0000000040110e5d                cpu_emul_cli
                0x0000000040110e98                cpu_emul_sti
                0x0000000040110ee1                cpu_emul_realmode_int
                0x0000000040111053                cpu_emul_xsetbv
                0x00000000401110e5                call_cpuid
                0x00000000401139c9                cpu_interpreter
                0x0000000040115cb0                cpu_mmu_get_pte
                0x00000000401163e6                write_linearaddr_ok_b
                0x0000000040116408                write_linearaddr_ok_w
                0x0000000040116416                write_linearaddr_ok_l
                0x0000000040116424                write_linearaddr_b
                0x000000004011648d                write_linearaddr_w
                0x000000004011651f                write_linearaddr_l
                0x00000000401165af                write_linearaddr_q
                0x000000004011663d                read_linearaddr_b
                0x00000000401166a5                read_linearaddr_w
                0x0000000040116731                read_linearaddr_l
                0x00000000401167bd                read_linearaddr_q
                0x0000000040116849                read_linearaddr_tss
                0x00000000401168d4                write_linearaddr_tss
                0x000000004011a615                cpu_mmu_spt_tlbflush
                0x000000004011a653                cpu_mmu_spt_updatecr3
                0x000000004011a8d5                cpu_mmu_spt_invalidate
                0x000000004011a949                cpu_mmu_spt_pagefault
                0x000000004011ab47                cpu_mmu_spt_extern_mapsearch
                0x000000004011ac78                cpu_mmu_spt_map_1mb
                0x000000004011ae18                cpu_mmu_spt_clear_all
                0x000000004011af6f                cpu_mmu_spt_init
                0x000000004011b564                cpu_seg_read_b
                0x000000004011b5cb                cpu_seg_read_w
                0x000000004011b632                cpu_seg_read_l
                0x000000004011b699                cpu_seg_read_q
                0x000000004011b700                cpu_seg_write_b
                0x000000004011b768                cpu_seg_write_w
                0x000000004011b7d0                cpu_seg_write_l
                0x000000004011b835                cpu_seg_write_q
                0x000000004011b89c                cpu_stack_get
                0x000000004011b904                cpu_stack_set
                0x000000004011b998                cpu_stack_push
                0x000000004011ba3d                cpu_stack_pop
                0x000000004011bdf1                debug_addstr
                0x000000004011bdf3                debug_gdb
                0x000000004011bdf5                debug_iohook
                0x000000004011bdf7                debug_msgregister
                0x000000004011be2a                debug_msgunregister
                0x000000004011becd                do_exint_pass
                0x000000004011bf6f                read_gphys_b
                0x000000004011bfd2                write_gphys_b
                0x000000004011c051                read_gphys_w
                0x000000004011c0de                write_gphys_w
                0x000000004011c18b                read_gphys_l
                0x000000004011c218                write_gphys_l
                0x000000004011c2c8                read_gphys_q
                0x000000004011c355                write_gphys_q
                0x000000004011c402                cmpxchg_gphys_l
                0x000000004011c4bb                cmpxchg_gphys_q
                0x000000004011c574                gmm_pass_gp2hp
                0x000000004011ca39                idman_reinit_session
                0x000000004011cab7                idman_reinit2
                0x000000004011cadb                get_idman_session
                0x000000004011cb0e                call_initfunc
                0x000000004011cb64                initfunc_init
                0x000000004011e6b7                int_fatal
                0x000000004011ea12                callfunc_and_getint
                0x000000004011ea29                do_externalint_enable
                0x000000004011ea41                set_int_handler
                0x000000004011ea5c                int_exceptionHandler
                0x000000004011ea63                int_init_ap
                0x000000004011eabe                do_io_nothing
                0x000000004011eaf9                set_iofunc
                0x000000004011eb8a                call_io
                0x000000004011ec70                do_iopass_default
                0x000000004011ef0a                keyboard_reset
                0x000000004011ef54                setkbdled
                0x000000004011efa8                keyboard_flush
                0x000000004011efc7                load_bootsector
                0x000000004011f385                copy_bootsector
                0x000000004011f6f2                localapic_wait_for_sipi
                0x000000004011f77f                localapic_change_base_msr
                0x000000004011f7cb                localapic_mmio_register
                0x000000004011f834                localapic_delayed_ap_start
                0x0000000040120200                resume_vm
                0x00000000401202b2                vmm_main
                0x0000000040120762                getsysmemmap
                0x00000000401207e6                getfakesysmemmap
                0x0000000040120851                phys_to_virt
                0x0000000040120862                vmm_start_inf
                0x0000000040120869                vmm_term_inf
                0x0000000040120875                num_of_available_pages
                0x00000000401208e3                alloc_pages
                0x000000004012095a                alloc_page
                0x000000004012096d                alloc
                0x0000000040120c09                alloc2
                0x0000000040120c42                free
                0x0000000040120d3d                realloc
                0x0000000040120e74                free_page
                0x0000000040120e8a                free_page_phys
                0x0000000040120eb0                mempool_new
                0x0000000040120f0d                mempool_free
                0x0000000040120fae                mempool_allocmem
                0x00000000401211a5                mempool_freemem
                0x0000000040121447                sym_to_phys
                0x0000000040121456                phys_in_vmm
                0x0000000040121479                mm_force_unlock
                0x000000004012149d                mm_process_alloc
                0x00000000401214e1                mm_process_free
                0x00000000401214ef                pmap_open_vmm
                0x0000000040121515                pmap_open_guest
                0x0000000040121552                pmap_close
                0x0000000040121554                pmap_getreadlevel
                0x000000004012155b                pmap_setlevel
                0x0000000040121562                pmap_seek
                0x00000000401215cd                pmap_read
                0x000000004012185c                pmap_write
                0x00000000401219f2                mm_process_unmap
                0x0000000040121ad0                mm_process_unmap_stack
                0x0000000040121c9b                mm_process_unmapall
                0x0000000040121d35                mm_process_switch
                0x0000000040121f97                pmap_pointer
                0x0000000040121ff5                pmap_clear
                0x00000000401220de                pmap_autoalloc
                0x0000000040122275                mm_process_map_alloc
                0x00000000401223ad                mm_process_map_shared_physpage
                0x0000000040122406                mm_process_map_shared
                0x0000000040122666                mm_process_map_stack
                0x0000000040122f1d                pmap_dump
                0x0000000040123028                unmapmem
                0x00000000401230fa                mapmem
                0x0000000040123555                read_hphys_b
                0x00000000401235aa                write_hphys_b
                0x00000000401235cf                read_hphys_w
                0x00000000401235f9                write_hphys_w
                0x000000004012361f                read_hphys_l
                0x0000000040123647                write_hphys_l
                0x000000004012366c                read_hphys_q
                0x0000000040123696                write_hphys_q
                0x00000000401236bd                cmpxchg_hphys_l
                0x0000000040123700                cmpxchg_hphys_q
                0x0000000040123745                alloc_realmodemem
                0x0000000040123931                mapmem_hphys
                0x000000004012394c                mapmem_gphys
                0x0000000040123967                mm_flush_wb_cache
                0x0000000040123fa6                mmio_access_memory
                0x0000000040124265                mmio_access_page
                0x000000004012433e                mmio_register
                0x0000000040124352                mmio_register_unlocked
                0x0000000040124366                mmio_unregister
                0x0000000040124416                mmio_lock
                0x000000004012444f                mmio_unlock
                0x00000000401245f4                msg_findname
                0x0000000040124654                msg_register
                0x0000000040124722                msg_unregister
                0x00000000401247a0                msg_unregisterall
                0x0000000040124826                msg_unregister2
                0x00000000401248df                call_read_msr
                0x00000000401248f6                call_write_msr
                0x0000000040124b84                load_minios
                0x0000000040124eab                backtrace
                0x0000000040125980                panic
                0x0000000040125f15                auto_reboot
                0x0000000040125f32                panic_test
                0x0000000040125f55                pcpu_list_foreach
                0x0000000040125f85                pcpu_list_add
                0x0000000040125fd4                pcpu_init
                0x0000000040126ac0                vprintf
                0x0000000040126afe                printf
                0x0000000040126b46                vsnprintf
                0x0000000040126b84                snprintf
                0x0000000040126d9f                sys_msgsetfunc
                0x0000000040126e41                sys_msgclose
                0x0000000040126e59                sys_msgret
                0x0000000040126f3f                sys_msgregister
                0x0000000040127172                sys_msgsenddesc
                0x000000004012791b                sys_msgsendint
                0x0000000040127c4f                sys_newprocess
                0x0000000040127cb2                sys_msgunregister
                0x0000000040127d3d                sys_exitprocess
                0x0000000040127d92                sys_msgsendbuf
                0x0000000040127ee3                sys_msgopen
                0x0000000040127f44                process_kill
                0x0000000040127fa8                msgsetfunc
                0x0000000040127fb9                msgregister
                0x0000000040127fd2                msgopen
                0x0000000040127fe8                msgclose
                0x0000000040127ff6                msgsendint
                0x000000004012800d                msgsenddesc
                0x0000000040128024                newprocess
                0x000000004012803a                msgsendbuf
                0x0000000040128057                msgunregister
                0x000000004012808a                exitprocess
                0x000000004012809d                msgpremapbuf
                0x00000000401281b8                process_syscall
                0x0000000040128256                putchar
                0x0000000040128297                putchar_set_func
                0x000000004012856d                do_panic_reboot
                0x00000000401285ea                handle_init_to_bsp
                0x0000000040128654                reboot_test
                0x000000004012867e                savemsr_save
                0x00000000401286e2                savemsr_load
                0x0000000040128a42                get_seg_base
                0x0000000040128af1                get_seg_access_rights
                0x0000000040128b0d                segment_wakeup
                0x0000000040128b4b                segment_init_ap
                0x0000000040128dd2                serial_putDebugChar
                0x0000000040128de0                serial_getDebugChar
                0x0000000040128df1                serial_putchar
                0x0000000040128e49                serial_init_iohook
                0x0000000040128e88                waitcycles
                0x0000000040128ea7                usleep
                0x0000000040128fbf                sleep_set_timer_counter
                0x0000000040129117                vmctl_svm_init
                0x00000000401291bb                message_exitcode
                0x0000000040129533                printexitcode
                0x0000000040129560                svm_available
                0x0000000040129604                svm_reset
                0x0000000040129874                svm_vminit
                0x0000000040129c21                svm_vmexit
                0x0000000040129c23                svm_init
                0x0000000040129d67                svm_enable_resume
                0x0000000040129e6d                svm_resume
                0x0000000040129fc2                svm_ioio
                0x000000004012a0bf                svm_extern_iopass
                0x000000004012a218                svm_init_signal
                0x000000004012a23e                svm_start_vm
                0x000000004012ad10                svm_msr_update_lma
                0x000000004012ad80                svm_read_msr
                0x000000004012b018                svm_write_msr
                0x000000004012b574                svm_np_init
                0x000000004012b66a                svm_np_pagefault
                0x000000004012b6a1                svm_np_tlbflush
                0x000000004012b6a3                svm_np_updatecr3
                0x000000004012b6b1                svm_np_clear_all
                0x000000004012b747                svm_np_extern_mapsearch
                0x000000004012b7cb                svm_np_map_1mb
                0x000000004012b810                svm_paging_extern_flush_tlb_entry
                0x000000004012b83a                svm_paging_map_1mb
                0x000000004012b861                svm_paging_flush_guest_tlb
                0x000000004012b89a                svm_paging_init
                0x000000004012b9ab                svm_paging_pagefault
                0x000000004012b9da                svm_paging_tlbflush
                0x000000004012ba01                svm_paging_invalidate
                0x000000004012ba32                svm_paging_npf
                0x000000004012ba61                svm_paging_updatecr3
                0x000000004012ba8a                svm_paging_spt_setcr3
                0x000000004012babe                svm_paging_clear_all
                0x000000004012baea                svm_paging_get_gpat
                0x000000004012baf8                svm_paging_set_gpat
                0x000000004012bb38                svm_paging_apply_fixed_cr0
                0x000000004012bb57                svm_paging_apply_fixed_cr4
                0x000000004012bb76                svm_paging_pg_change
                0x000000004012bb78                svm_paging_start
                0x000000004012bb7e                svm_panic_dump
                0x000000004012bc50                svm_read_general_reg
                0x000000004012bd8c                svm_write_general_reg
                0x000000004012be98                svm_read_control_reg
                0x000000004012bf36                svm_write_control_reg
                0x000000004012c00e                svm_read_sreg_sel
                0x000000004012c0cf                svm_read_sreg_acr
                0x000000004012c1aa                svm_read_sreg_base
                0x000000004012c2c1                svm_read_sreg_limit
                0x000000004012c3cd                svm_read_ip
                0x000000004012c3e7                svm_write_ip
                0x000000004012c408                svm_read_flags
                0x000000004012c422                svm_write_flags
                0x000000004012c439                svm_read_gdtr
                0x000000004012c46b                svm_write_gdtr
                0x000000004012c48f                svm_read_idtr
                0x000000004012c4c1                svm_write_idtr
                0x000000004012c4e5                svm_write_realmode_seg
                0x000000004012c624                svm_writing_sreg
                0x000000004012c714                int1a_TCG_StatusCheck
                0x000000004012c7e1                int1a_TCG_HashLogExtendEvent
                0x000000004012c86d                int1a_TCG_PassThroughToTPM
                0x000000004012c8f9                int1a_TCG_HashLogEvent
                0x000000004012c97c                int1a_TCG_HashAll
                0x000000004012ca35                int1a_TCG_TSS
                0x000000004012cac1                int1a_TCG_CompactHashLogExtendEvent
                0x000000004012cb24                tcg_measure
                0x000000004012ce0a                thread_gettid
                0x000000004012ce1a                schedule
                0x000000004012d04c                thread_new
                0x000000004012d17b                thread_wakeup
                0x000000004012d24a                thread_will_stop
                0x000000004012d2c2                thread_exit
                0x000000004012d368                thread_start1
                0x000000004012d568                get_cpu_time
                0x000000004012d632                get_acpi_time
                0x000000004012d6e5                get_time
                0x000000004012d8c4                timer_new
                0x000000004012d941                timer_set
                0x000000004012da5f                timer_free
                0x000000004012dc69                tty_putchar
                0x000000004012df57                ttylog_stop
                0x000000004012df62                tty_udp_register
                0x000000004012dfa7                tty_init_iohook
                0x000000004012dfc0                vcpu_list_foreach
                0x000000004012dff0                load_new_vcpu
                0x000000004012e098                vga_register
                0x000000004012e10d                vga_is_ready
                0x000000004012e160                vga_transfer_image
                0x000000004012e1af                vga_fill_rect
                0x000000004012e1e9                vga_get_screen_size
                0x000000004012e588                vmmcall_boot_continue
                0x000000004012e5d6                vmmcall_boot_enable
                0x000000004012e724                vmmcall
                0x000000004012e77c                vmmcall_register
                0x000000004012e7b9                vmmcall_init
                0x000000004012ecff                register_status_callback
                0x000000004012efcc                htoi
                0x000000004012f011                atoi
                0x000000004012f045                vmi_translate_ksym2v
                0x000000004012f06f                virt_memcpy
                0x000000004012f19f                read_str_va
                0x000000004012f5e6                vramwrite_clearscreen
                0x000000004012f643                vramwrite_putchar
                0x000000004012f800                vramwrite_mark1
                0x000000004012f838                vramwrite_mark2
                0x000000004012f879                vramwrite_mark3
                0x000000004012f8ba                vramwrite_save_and_move_cursor
                0x000000004012f8e8                vramwrite_restore_cursor
                0x000000004012f8f6                vramwrite_get_cursor_pos
                0x000000004012f93c                vramwrite_init_global
                0x000000004012f944                vramwrite_exit_global
                0x000000004012f9cf                vt_generate_pagefault
                0x000000004012fa58                vt_generate_external_int
                0x000000004012faad                vmctl_vt_init
                0x000000004012fb51                vt_update_exint
                0x000000004012fbd1                vt_vmptrld
                0x000000004012fec9                vt_ept_init
                0x000000004012ffbd                vt_ept_violation
                0x000000004012fff4                vt_ept_tlbflush
                0x000000004012fff6                vt_ept_updatecr3
                0x00000000401300b2                vt_ept_clear_all
                0x0000000040130148                vt_ept_extern_mapsearch
                0x00000000401301cc                vt_ept_map_1mb
                0x0000000040130211                message_exitreason
                0x0000000040130310                printexitreason
                0x0000000040130c7c                vt_available
                0x0000000040130d18                vt__vmx_init
                0x0000000040130d60                vt__vmxon
                0x0000000040130e08                vt_vminit
                0x0000000040130e67                vt_vmexit
                0x0000000040130e84                vt_init
                0x0000000040130e97                vt_enable_resume
                0x0000000040130fd3                vt_resume
                0x000000004013115f                vt_io
                0x0000000040131283                vt_iopass_init
                0x00000000401313fb                vt_iopass
                0x000000004013143d                vt_extern_iopass
                0x000000004013210a                vt_update_exception_bmp
                0x0000000040132714                vt_init_signal
                0x0000000040132722                vt_start_vm
                0x0000000040132af5                vt_add_guest_msr
                0x0000000040132c49                vt_read_guest_msr
                0x0000000040132ca6                vt_write_guest_msr
                0x0000000040132d00                vt_msr_update_lma
                0x0000000040132db5                vt_read_msr
                0x000000004013304c                vt_write_msr
                0x00000000401332ef                vt_msr_init
                0x00000000401334bf                vt_paging_extern_flush_tlb_entry
                0x0000000040133514                vt_paging_map_1mb
                0x000000004013353a                vt_paging_flush_guest_tlb
                0x000000004013359b                vt_paging_pagefault
                0x00000000401335d1                vt_paging_tlbflush
                0x00000000401335f1                vt_paging_invalidate
                0x0000000040133617                vt_paging_npf
                0x000000004013364d                vt_paging_updatecr3
                0x0000000040133681                vt_paging_spt_setcr3
                0x00000000401336a7                vt_paging_clear_all
                0x00000000401336dd                vt_paging_get_gpat
                0x00000000401336eb                vt_paging_set_gpat
                0x0000000040133733                vt_paging_apply_fixed_cr0
                0x0000000040133796                vt_paging_apply_fixed_cr4
                0x00000000401337d9                vt_paging_pg_change
                0x000000004013394b                vt_paging_init
                0x000000004013399a                vt_paging_start
                0x00000000401339bb                vt_panic_dump
                0x0000000040133b70                vt_read_general_reg
                0x0000000040133c91                vt_write_general_reg
                0x0000000040133d85                vt_read_control_reg
                0x0000000040133df6                vt_read_sreg_sel
                0x0000000040133eff                vt_read_sreg_acr
                0x0000000040133f56                vt_read_sreg_base
                0x0000000040133fd8                vt_read_sreg_limit
                0x0000000040134055                vt_read_ip
                0x000000004013405e                vt_write_ip
                0x0000000040134079                vt_read_flags
                0x000000004013409b                vt_write_flags
                0x00000000401340c1                vt_read_gdtr
                0x00000000401340d1                vt_write_gdtr
                0x00000000401340e1                vt_read_idtr
                0x000000004013411f                vt_write_idtr
                0x000000004013414f                vt_write_control_reg
                0x0000000040134636                vt_get_current_regs_in_vmcs
                0x00000000401348e4                vt_get_vmcs_regs_in_vmcs
                0x0000000040134a5c                vt_write_realmode_seg
                0x0000000040134ba8                vt_writing_sreg
                0x0000000040134c34                vt_reset
                0x0000000040134f1a                prepare_for_sleep
                0x0000000040134fdc                cancel_sleep
                0x0000000040135001                wakeup_main
                0x000000004013508c                wakeup_cont
                0x00000000401351cf                wakeup_init
                0x0000000040135216                call_xsetbv
                0x00000000401352a0                mpumul_64_64
                0x00000000401352c0                mpudiv_128_32
                0x00000000401352e0                ipchecksum
                0x0000000040135370                asm_vmlaunch_regs_32
                0x00000000401353f0                asm_vmresume_regs_32
                0x0000000040135470                asm_vmrun_regs_32
                0x00000000401354d0                asm_vmlaunch_regs_64
                0x00000000401355b0                asm_vmresume_regs_64
                0x0000000040135690                asm_vmrun_regs_64
                0x0000000040135734                callrealmode_start
                0x000000004013574a                callrealmode_start2
                0x0000000040135bd6                move_vmm_area32
                0x0000000040135bd6                callrealmode_end
                0x0000000040135bfb                move_vmm_area64
                0x0000000040135c28                int_handler
                0x0000000040135ca0                int_callfunc
                0x0000000040136000                syscall_entry_sysexit
                0x000000004013602c                syscall_entry_lret
                0x000000004013605c                ret_to_user32
                0x0000000040136068                syscall_entry_sysret64
                0x00000000401360b0                ret_to_user64
                0x0000000040137000                processuser_sysenter
                0x0000000040138000                processuser_no_sysenter
                0x0000000040139000                processuser_syscall
                0x000000004013a140                memset
                0x000000004013a1c0                memcpy
                0x000000004013a200                strcmp
                0x000000004013a240                memcmp
                0x000000004013a280                strlen
                0x000000004013a298                sx_handler
                0x000000004013a2f0                thread_switch
                0x000000004013a310                thread_start0
                0x000000004013a350                core_init
                0x000000004013a35c                core_mm_read_guest_phys
                0x000000004013a3c6                core_mm_write_guest_phys
                0x000000004013a430                alloc_handler_descriptor
                0x000000004013a443                core_io_modify_handler
                0x000000004013a505                core_io_unregister_handler
                0x000000004013a57f                core_io_handle_default
                0x000000004013a813                panic_oom
                0x000000004013a826                core_io_register_handler
                0x000000004013a960                matched_drhd_u
                0x000000004013a9b9                parse_dmar_bios_report
                0x000000004013a9d9                ieee1394_init
                0x000000004013aa4e                iommu_setup
                0x000000004013aa50                iodom_init
                0x000000004013ac19                add_remap
                0x000000004013ac96                create_dom
                0x000000004013afaf                pci_conceal_new_device
                0x000000004013b38a                pci_conceal_config_data_handler
                0x000000004013b3a7                pci_save_config_addr
                0x000000004013b3b4                pci_restore_config_addr
                0x000000004013b3c1                pci_append_device
                0x000000004013b3ee                pci_config_addr_handler
                0x000000004013b432                pci_register_driver
                0x000000004013b4c7                pci_read_config_data8
                0x000000004013b508                pci_read_config_data16
                0x000000004013b54a                pci_read_config_data32
                0x000000004013b58b                pci_write_config_data8
                0x000000004013b5cc                pci_write_config_data16
                0x000000004013b60e                pci_write_config_data32
                0x000000004013b64f                pci_read_config_data_port
                0x000000004013b67c                pci_write_config_data_port
                0x000000004013b6ad                pci_readwrite_config_mmio
                0x000000004013b773                pci_config_data_handler
                0x000000004013bab9                pci_read_config_mmio
                0x000000004013bae4                pci_write_config_mmio
                0x000000004013bb0f                pci_handle_default_config_write
                0x000000004013bc08                pci_handle_default_config_read
                0x000000004013bc88                pci_config_mmio_handler
                0x000000004013be81                pci_print_device
                0x000000004013c343                pci_possible_new_device
                0x000000004013c36b                security_storage_check_lba
                0x000000004013eb26                ahci_new
                0x000000004013ed9f                ahci_config_read
                0x000000004013ee05                ahci_config_write
                0x000000004013f094                ata_bm_handle_command
                0x000000004013f1ba                ata_bm_handle_status
                0x000000004013f258                ata_bm_handle_prd_table
                0x000000004013f344                ata_bm_handler
                0x000000004013f43e                ata_get_cmd_type
                0x000000004013f767                ata_handle_queued_status
                0x00000000401400c2                ata_channel_lock
                0x000000004014012a                ata_channel_unlock
                0x000000004014014c                ata_cmdblk_handler
                0x0000000040140256                ata_ctlblk_handler
                0x0000000040140e4b                ata_ahci_mode
                0x0000000040141334                ata_init_io_handler
                0x00000000401413ca                ata_set_bm_handler
                0x000000004014141d                ata_set_cmdblk_handler
                0x0000000040141456                ata_set_ctlblk_handler
                0x0000000040141491                ata_config_read
                0x000000004014155f                ata_config_write
                0x00000000401416fd                ata_init_vendor
                0x0000000040141720                ata_bm_handle_device_specific
                0x0000000040141820                atapi_handle_config_data
                0x0000000040141a6b                atapi_handle_interrupt_reason
                0x0000000040141ab1                atapi_handle_pio_identify_packet
                0x0000000040141c37                atapi_handle_packet_data
                0x0000000040141c3d                atapi_handle_cmd_packet
                0x0000000040141caf                packet_handle_through
                0x0000000040141cdd                packet_handle_nondata
                0x0000000040141cf2                packet_handle_config
                0x0000000040141d37                packet_handle_rw
                0x0000000040141dc2                packet_handle_invalid
                0x0000000040141dd7                packet_handle_command
                0x0000000040141e10                uhci_init
                0x000000004014266e                uhci_current_frame_number
                0x0000000040142680                dump_td_byvirt
                0x0000000040142848                dump_td
                0x0000000040142915                dump_qh
                0x0000000040142aef                dump_frame
                0x0000000040142bf0                uhci_dump_all
                0x0000000040142da9                uhci_error_status_string
                0x0000000040143053                uhci_shadow_buffer
                0x00000000401432b5                uhci_framelist_monitor
                0x000000004014521a                scan_gframelist
                0x0000000040145ad9                uhci_create_urb
                0x0000000040145c30                uhci_destroy_urb
                0x0000000040145d59                uhci_destroy_unlinked_urbs
                0x0000000040145e2d                uhci_deactivate_urb
                0x000000004014618e                uhci_activate_urb
                0x0000000040146706                uhci_reactivate_urb
                0x00000000401467a8                uhci_submit_control
                0x0000000040146dcc                uhci_submit_interrupt
                0x0000000040146e35                uhci_submit_bulk
                0x0000000040146e9e                uhci_check_urb_advance
                0x0000000040146eca                uhci_check_advance
                0x00000000401470d0                init_hframelist
                0x00000000401473a1                ehci_conceal_portroute
                0x00000000401473dc                ehci_init
                0x0000000040149217                ehci_dump_qtd
                0x0000000040149277                ehci_dump_qtdm
                0x00000000401492ab                ehci_dump_alist
                0x0000000040149368                ehci_dump_urblist
                0x00000000401493f2                ehci_dump_urb
                0x0000000040149888                ehci_dump_async
                0x0000000040149cef                ehci_dump_all
                0x000000004014b269                ehci_shadow_buffer
                0x000000004014b505                get_gurb_by_address
                0x000000004014b59c                shadow_and_activate_urb
                0x000000004014b886                ehci_deactivate_urb
                0x000000004014ba0d                deactivate_and_delete_urb
                0x000000004014bc85                ehci_check_urb_advance
                0x000000004014be49                ehci_check_advance
                0x000000004014c082                ehci_shadow_async_list
                0x000000004014c18a                ehci_cleanup_urbs
                0x000000004014c2e4                ehci_end_monitor_async
                0x000000004014c34e                ehci_monitor_async_list
                0x000000004014c9d4                ehci_submit_control
                0x000000004014cf71                ehci_submit_bulk
                0x000000004014cf77                ehci_submit_interrupt
                0x000000004014eaa2                usbmsc_init_handle
                0x000000004014ee6b                usbhub_init_handle
                0x000000004014eedf                hub_portdevice_register
                0x000000004014f5a9                usbccid_init_handle
                0x000000004014f6c0                usb_set_debug
                0x000000004014f6c7                usb_init
                0x000000004014f6c9                usb_find_busses
                0x000000004014f7a6                usb_get_busses
                0x000000004014f7ae                usb_get_bus
                0x000000004014f7d9                usb_find_devices
                0x000000004014f824                usb_open
                0x000000004014f881                usb_close
                0x000000004014f894                usb_resetep
                0x000000004014f89a                usb_clear_halt
                0x000000004014f8a0                usb_reset
                0x000000004014f8a6                usb_claim_interface
                0x000000004014f8af                usb_release_interface
                0x000000004014f8bc                usb_set_configuration
                0x000000004014fb65                usb_set_altinterface
                0x000000004014fe10                usb_control_msg
                0x0000000040150171                usb_get_string
                0x00000000401504ae                usb_get_string_simple
                0x000000004015069a                usb_get_descriptor
                0x00000000401509dc                usb_get_descriptor_early
                0x0000000040150d2a                usb_get_descriptor_by_endpoint
                0x0000000040151070                usb_bulk_write
                0x00000000401512a2                usb_interrupt_write
                0x00000000401514d4                usb_bulk_read
                0x0000000040151780                usb_interrupt_read
                0x0000000040151a2c                usb_register_host
                0x0000000040151b4d                usb_unregister_devices
                0x0000000040151b80                usb_sc_lock
                0x0000000040151be3                usb_sc_unlock
                0x00000000401522e3                free_config_descriptors
                0x0000000040152433                free_device
                0x0000000040152598                handle_connect_status
                0x0000000040152695                handle_port_reset
                0x0000000040152768                dprintf_port
                0x0000000040153664                usb_init_device_monitor
                0x00000000401536c9                usb_new_dev_handle
                0x000000004015376f                usbhid_init_handle
                0x0000000040153896                usb_hook_process
                0x0000000040153b9a                usb_hook_register
                0x0000000040153c70                usb_hook_unregister
                0x0000000040153ce3                _dprintf
                0x0000000040153d39                _dprintft
                0x0000000040153dee                pro100_io_handler
                0x0000000040153df4                pro100_config_read
                0x0000000040153e0e                pro100_config_write
                0x0000000040153f31                pro100_init
                0x0000000040153f4e                pro100_init_vpn_client
                0x0000000040153f80                pro100_sleep
                0x0000000040153fae                pro100_beep
                0x0000000040153fd7                pro100_get_ctx
                0x0000000040154060                pro100_alloc_page
                0x0000000040154095                pro100_free_page
                0x00000000401540ad                pro100_get_op_size
                0x00000000401540e6                pro100_mem_read
                0x000000004015414a                pro100_read_send_packet
                0x000000004015431b                pro100_mem_write
                0x000000004015437d                pro100_write
                0x00000000401543eb                pro100_read
                0x0000000040154466                pro100_wait_cu_ru_accepable
                0x00000000401544a2                pro100_init_cu_base_addr
                0x00000000401544f5                pro100_init_ru_base_addr
                0x0000000040154548                pro100_flush
                0x0000000040154566                pro100_exec_cu_op
                0x00000000401546af                pro100_send_packet_to_line
                0x00000000401547e6                pro100_generate_int
                0x0000000040154818                pro100_write_recv_packet
                0x000000004015496a                pro100_proc_guest_op
                0x0000000040154b78                pro100_get_int_bit_string
                0x0000000040154bee                pro100_get_stat_ack_string
                0x0000000040154c59                pro100_get_cu_command_string
                0x0000000040154cc7                pro100_get_ru_command_string
                0x0000000040154d05                pro100_init_recv_buffer
                0x0000000040154e38                pro100_poll_ru
                0x0000000040154f32                pro100_hook_write
                0x00000000401551ec                pro100_hook_read
                0x00000000401553aa                pro100_mm_handler
                0x00000000401554ef                pro100_alloc_recv_buffer
                0x0000000040155550                pro100_new
                0x0000000040157846                storage_premap_buf
                0x000000004015784c                storage_premap_handle_sectors
                0x0000000040157b72                storage_get_num_hc
                0x0000000040157b9f                storage_hc_open
                0x0000000040157c94                storage_hc_close
                0x0000000040157ce1                storage_hc_hook_register
                0x0000000040157d59                storage_hc_hook_unregister
                0x0000000040157df6                storage_hc_register
                0x0000000040157fbc                storage_hc_unregister
                0x00000000401580b1                storage_hc_scandev
                0x00000000401580f9                storage_hc_dev_open
                0x0000000040158226                storage_hc_dev_atacommand
                0x00000000401583f9                storage_hc_dev_close
                0x00000000401584ac                storage_io_init
                0x00000000401584bc                storage_io_deinit
                0x00000000401584ca                storage_io_get_num_devices
                0x000000004015858d                storage_io_aget_size
                0x00000000401586e0                storage_io_aread
                0x00000000401588fd                storage_io_awrite
                0x0000000040159063                storage_handle_sectors
                0x0000000040159285                storage_new
                0x00000000401596f6                storage_free
                0x0000000040159704                storage_init
                0x000000004015991b                aes_xts_init
                0x0000000040159960                crypto_find
                0x00000000401599a6                crypto_register
                0x00000000401599e9                crypto_init
                0x0000000040159a3b                crypto_none_init
                0x0000000040159a6d                vpn_GetCurrentCpuId
                0x0000000040159a7b                vpn_GetTickCount
                0x0000000040159aac                vpn_NewTimer
                0x0000000040159ac9                vpn_SetTimer
                0x0000000040159ae0                vpn_FreeTimer
                0x0000000040159aee                vpn_GetPhysicalNicInfo
                0x0000000040159b00                vpn_SendPhysicalNic
                0x0000000040159b12                vpn_SetPhysicalNicRecvCallback
                0x0000000040159b24                vpn_GetVirtualNicInfo
                0x0000000040159b37                vpn_SendVirtualNic
                0x0000000040159b4a                vpn_SetVirtualNicRecvCallback
                0x0000000040159b5d                vpn_premap_PhysicalNicRecv
                0x0000000040159b79                vpn_premap_VirtualNicRecv
                0x0000000040159b95                vpn_premap_recvbuf
                0x0000000040159b9b                vpn_ic_rsa_sign
                0x0000000040159c2f                vpn_new_nic
                0x000000004015a222                msg_vpn_GetCurrentCpuId
                0x000000004015a23d                msg_vpn_ic_rsa_sign
                0x000000004015a2f6                msg_vpn_GetTickCount
                0x000000004015a337                msg_vpn_GetPhysicalNicInfo
                0x000000004015a399                msg_vpn_SendPhysicalNic
                0x000000004015a44a                msg_vpn_SetPhysicalNicRecvCallback
                0x000000004015a49a                msg_vpn_GetVirtualNicInfo
                0x000000004015a4fc                msg_vpn_SendVirtualNic
                0x000000004015a5ad                msg_vpn_SetVirtualNicRecvCallback
                0x000000004015a5fd                msg_vpn_NewTimer
                0x000000004015a660                msg_vpn_SetTimer
                0x000000004015a72c                msg_vpn_FreeTimer
                0x000000004015a798                vpn_start
                0x000000004015aae9                vpn_user_init
                0x000000004015ab40                SeFreeConfigEntryList
                0x000000004015ab8e                SeGetConfigEntry
                0x000000004015abfb                SeGetConfigStr
                0x000000004015ac29                SeGetConfigBin
                0x000000004015ac51                SeGetConfigInt64
                0x000000004015ac79                SeGetConfigInt
                0x000000004015aca1                SeGetConfigBool
                0x000000004015ad43                SeIsSplitChar
                0x000000004015adae                SeGetKeyAndValue
                0x000000004015af3f                SeLoadConfigEntryListFromBuf
                0x000000004015b0b0                SeLoadConfigEntryList
                0x000000004015b0f0                SePKeyPasswordCallbackFunction
                0x000000004015b122                SeDhFree
                0x000000004015b158                SeRsaVerifyWithPadding
                0x000000004015b21a                SeRsaSignWithPadding
                0x000000004015b2c5                SeRsaPublicDecrypt
                0x000000004015b34d                SeRsaPrivateEncrypt
                0x000000004015b3d5                SeRsaPrivateDecrypt
                0x000000004015b45a                SeRsaPublicEncrypt
                0x000000004015b4df                SeGetCertSha1
                0x000000004015b51c                SeGetCertMd5
                0x000000004015b559                SeBinToBigNum
                0x000000004015b58d                SeDhCompute
                0x000000004015b600                SeBufToBigNum
                0x000000004015b621                SeBigNumToBuf
                0x000000004015b69b                SeDhNew
                0x000000004015b755                SeDhNewGroup2
                0x000000004015b76d                SeRsaPublicToBuf
                0x000000004015b7b4                SeRsaPublicToBin
                0x000000004015b80c                SeRsaPublicSize
                0x000000004015b864                SeCheckSignature
                0x000000004015b892                SeGetKeyFromCert
                0x000000004015b8c4                SeCompareCert
                0x000000004015b8f2                SeCheckCertAndKey
                0x000000004015b920                SeIsBase64
                0x000000004015b99d                SeFreePKey
                0x000000004015b9b1                SeFreeKey
                0x000000004015b9cc                SeCheckCert
                0x000000004015ba19                SeIsCertSignedByCert
                0x000000004015ba79                SeBioToKey
                0x000000004015bb77                SeGetCertIssuerName
                0x000000004015bbfe                SeGetCertSubjectName
                0x000000004015bc8a                SeFreeX509
                0x000000004015bc9e                SeFreeCert
                0x000000004015bcbf                SeFreeBio
                0x000000004015bcd3                SeNewBio
                0x000000004015bce9                SeRsaGen
                0x000000004015be3c                SeKeyToBio
                0x000000004015bf32                SeCertToBio
                0x000000004015bf7d                SeBioToBuf
                0x000000004015bffe                SeBigNumToStr
                0x000000004015c06c                SeKeyToBuf
                0x000000004015c0c0                SeX509ToCert
                0x000000004015c168                SeBioToCert
                0x000000004015c1b4                SeSaveKey
                0x000000004015c209                SeCertToBuf
                0x000000004015c25d                SeSaveCert
                0x000000004015c2af                SeBufToBio
                0x000000004015c30b                SeBufToCert
                0x000000004015c351                SeCloneCert
                0x000000004015c39d                SeLoadCert
                0x000000004015c3df                SeBufToKey
                0x000000004015c42f                SeCloneKey
                0x000000004015c48c                SeLoadKey
                0x000000004015c52e                SeSha1
                0x000000004015c552                SeMacSha1
                0x000000004015c6b9                SeMacSha196
                0x000000004015c6fd                SeHashForSignBySHA1
                0x000000004015c7a6                SeRsaVerifyWithSha1
                0x000000004015c84e                SeRsaSignWithSha1
                0x000000004015c8df                SeMd5
                0x000000004015c903                SeDes3Encrypt
                0x000000004015c984                SeDes3Decrypt
                0x000000004015ca05                SeDesNewKeyValue
                0x000000004015ca5b                SeDes3NewKey
                0x000000004015cac9                SeDesNewKey
                0x000000004015cadd                SeDesRandKeyValue
                0x000000004015cafa                SeDes3RandKey
                0x000000004015cb36                SeDesRandKey
                0x000000004015cb73                SeDesFreeKeyValue
                0x000000004015cb8e                SeDes3FreeKey
                0x000000004015cbbb                SeDesFreeKey
                0x000000004015cbc9                SeRand
                0x000000004015cbe1                SeRand64
                0x000000004015cbfe                SeRand32
                0x000000004015cc1a                SeRand16
                0x000000004015cc37                SeRand8
                0x000000004015cc54                SeRand1
                0x000000004015cc6a                SeInitCrypto
                0x000000004015cca7                SeFreeCrypto
                0x000000004015ccc0                SeIkeStrToPassword
                0x000000004015cd1a                SeIkePhase1CryptIdToKeySize
                0x000000004015cd35                SeIkePhase2CryptIdToKeySize
                0x000000004015cd50                SeIkeStrToPhase1Mode
                0x000000004015cd80                SeIkeStrToPhase1CryptId
                0x000000004015cdd9                SeIkeStrToPhase1HashId
                0x000000004015ce0b                SeIkeStrToPhase2CryptId
                0x000000004015ce69                SeIkeStrToPhase2HashId
                0x000000004015ce9b                SeIkeIsZeroIP
                0x000000004015ced1                SeIkeInitIPv6Address
                0x000000004015cf0e                SeIkeInitIPv4Address
                0x000000004015cf41                SeIkeGetIPv6Address
                0x000000004015cf63                SeIkeGetIPv4Address
                0x000000004015cf81                SeIkeIpAddressToStr
                0x000000004015cfbe                SeIkeBuildDataPayload
                0x000000004015cffb                SeIkeBuildTransformValue
                0x000000004015d0bb                SeIkeBuildTransformValueList
                0x000000004015d125                SeIkeBuildTransformPayload
                0x000000004015d1a0                SeIkeBuildIdPayload
                0x000000004015d216                SeIkeBuildCertPayload
                0x000000004015d276                SeIkeBuildCertRequestPayload
                0x000000004015d2d6                SeIkeBuildNoticePayload
                0x000000004015d363                SeIkeBuildDeletePayload
                0x000000004015d43c                SeIkeGetFirstPayloadType
                0x000000004015d45d                SeIkeBuildPayloadList
                0x000000004015d567                SeIkeBuildSaPayload
                0x000000004015d5ef                SeIkeBuildProposalPayload
                0x000000004015d69c                SeIkeBuildPayload
                0x000000004015d779                SeIkeGetPayload
                0x000000004015d7c2                SeIkeGetPayloadNum
                0x000000004015d7ff                SeIkeNewPayload
                0x000000004015d810                SeIkeNewDeletePayload
                0x000000004015d840                SeIkeNewNoticePayload
                0x000000004015d8c7                SeIkeNewCertRequestPayload
                0x000000004015d916                SeIkeNewCertPayload
                0x000000004015d965                SeIkeNewIdPayload
                0x000000004015d9cc                SeIkeNewTransformPayload
                0x000000004015d9ff                SeIkeNewProposalPayload
                0x000000004015da70                SeIkeNewSaPayload
                0x000000004015da90                SeIkeNewDataPayload
                0x000000004015dac9                SeIkeNewTransformValue
                0x000000004015daea                SeIkeFreeTransformValueList
                0x000000004015db25                SeIkeParseTransformValueList
                0x000000004015dc9b                SeIkeParseTransformPayload
                0x000000004015dcfd                SeIkeFreeTransformPayload
                0x000000004015dd1e                SeIkeParseIdPayload
                0x000000004015dd92                SeIkeFreeIdPayload
                0x000000004015ddb3                SeIkeParseCertPayload
                0x000000004015de11                SeIkeFreeCertPayload
                0x000000004015de32                SeIkeParseCertRequestPayload
                0x000000004015de90                SeIkeFreeCertRequestPayload
                0x000000004015deb1                SeIkeParseNoticePayload
                0x000000004015df6e                SeIkeFreeNoticePayload
                0x000000004015dfa5                SeIkeFreeDeletePayload
                0x000000004015dff6                SeIkeParseDeletePayload
                0x000000004015e0ee                SeIkeParseDataPayload
                0x000000004015e11b                SeIkeFreeDataPayload
                0x000000004015e132                SeIkeFreePayloadList
                0x000000004015e16d                SeIkeFreeSaPayload
                0x000000004015e18c                SeIkeFreeProposalPayload
                0x000000004015e1c3                SeIkeFreePayload
                0x000000004015e25e                SeIkeParsePayloadListEx
                0x000000004015e3db                SeIkeParsePayloadList
                0x000000004015e3f1                SeIkeParseSaPayload
                0x000000004015e4a4                SeIkeParseProposalPayload
                0x000000004015e538                SeIkeParsePayload
                0x000000004015e620                SeIkeEncrypt
                0x000000004015e6b9                SeIkeEncryptWithPadding
                0x000000004015e74f                SeIkeBuild
                0x000000004015e8a3                SeIkeDecrypt
                0x000000004015e93c                SeIkeFree
                0x000000004015e96b                SeIkeParseEx
                0x000000004015eb23                SeIkeParseHeader
                0x000000004015eb36                SeIkeParse
                0x000000004015eb49                SeIkeNew
                0x000000004015ebb0                VPN_IPsec_Client_Start
                0x000000004015ebdb                VPN_IPsec_Client_Stop
                0x000000004015ebef                SeIntInit
                0x000000004015ec05                SeIntFree
                0x000000004015ec22                VPN_IPsec_Init
                0x000000004015ec6f                VPN_IPsec_Free
                0x000000004015eca5                SeSysMemoryAlloc
                0x000000004015ecc4                SeSysMemoryReAlloc
                0x000000004015ecf1                SeSysMemoryFree
                0x000000004015ed0d                SeSysGetCurrentCpuId
                0x000000004015ed28                SeSysNewLock
                0x000000004015ed43                SeSysLock
                0x000000004015ed5f                SeSysUnlock
                0x000000004015ed7b                SeSysFreeLock
                0x000000004015ed97                SeSysGetTickCount
                0x000000004015edb2                SeSysNewTimer
                0x000000004015edda                SeSysSetTimer
                0x000000004015edf6                SeSysFreeTimer
                0x000000004015ee12                SeSysGetPhysicalNicInfo
                0x000000004015ee33                SeSysSendPhysicalNic
                0x000000004015ee5c                SeSysSetPhysicalNicRecvCallback
                0x000000004015ee82                SeSysGetVirtualNicInfo
                0x000000004015eea3                SeSysSendVirtualNic
                0x000000004015eecf                SeSysSetVirtualNicRecvCallback
                0x000000004015eef8                SeSysSaveData
                0x000000004015ef23                SeSysLoadData
                0x000000004015ef51                SeSysFreeData
                0x000000004015ef70                SeSysRsaSign
                0x000000004015efab                SeSysLog
                0x000000004015efdc                SeRsaSign
                0x000000004015f070                Se4ParseIpPacketUDPv4
                0x000000004015f149                Se4FreeIpHeaderInfo
                0x000000004015f170                Se4IpChecksum
                0x000000004015f1e6                Se4AdjustTcpMss
                0x000000004015f371                Se4BuildIcmpEchoPacket
                0x000000004015f414                Se4ParseIpPacketICMPv4
                0x000000004015f537                Se4IpCheckChecksum
                0x000000004015f56e                Se4Tick
                0x000000004015f58a                Se4BroadcastMacAddress
                0x000000004015f590                Se4SendEthPacket
                0x000000004015f644                Se4SendIpFragmentNow
                0x000000004015f670                Se4InitArpEntryList
                0x000000004015f683                Se4FreeArpEntryList
                0x000000004015f6be                Se4FlushArpEntryList
                0x000000004015f756                Se4SearchArpEntryList
                0x000000004015f7d3                Se4AddArpEntryList
                0x000000004015f89b                Se4SearchArpWaitList
                0x000000004015f8d9                Se4InitArpWaitList
                0x000000004015f8ec                Se4FreeArpWaitList
                0x000000004015f927                Se4InsertIpWait
                0x000000004015f98f                Se4InitIpWaitList
                0x000000004015f9a2                Se4FreeIpWait
                0x000000004015f9be                Se4FlushIpWaitList
                0x000000004015fa6c                Se4FreeIpWaitList
                0x000000004015faa7                Se4InitIpCombineList
                0x000000004015faba                Se4SearchIpCombineList
                0x000000004015fb1a                Se4InitIpFragmentList
                0x000000004015fb2d                Se4InsertIpCombine
                0x000000004015fc11                Se4FreeIpFragmentList
                0x000000004015fc4c                Se4FreeIpCombine
                0x000000004015fc77                Se4FreeIpCombineList
                0x000000004015fcb4                Se4FlushIpCombineList
                0x000000004015fd90                Se4Free
                0x000000004015fdc7                Se4And
                0x000000004015fdf6                Se4GetNetworkAddress
                0x000000004015fdfd                Se4Or
                0x000000004015fe2c                Se4Not
                0x000000004015fe55                Se4GetHostAddress
                0x000000004015fe6a                Se4GetBroadcastAddress
                0x000000004015fe94                Se4GenerateSubnetMask32
                0x000000004015feb6                Se4IPToStr
                0x000000004015fef7                Se4ZeroIP
                0x000000004015ff13                Se4StrToIP
                0x000000004015ffb1                Se4IPToUINT
                0x000000004015ffd6                Se4SendArpDoProcess
                0x00000000401600d1                Se4SendArpRequest
                0x000000004016012d                Se4ProcessArpWaitList
                0x00000000401601dd                Se4MainProc
                0x0000000040160201                Se4SendArpResponse
                0x00000000401602d6                Se4IsBroadcastAddress
                0x00000000401602ed                Se4Cmp
                0x0000000040160317                Se4CmpArpEntry
                0x0000000040160351                Se4CmpArpWaitEntry
                0x000000004016038b                Se4SendWaitingIpWait
                0x0000000040160468                Se4CmpIpCombineList
                0x00000000401604df                Se4IsInSameNetwork
                0x0000000040160513                Se4MacIpRelationKnown
                0x00000000401605a6                Se4ParseIpPacket
                0x00000000401606e9                Se4IsZeroIP
                0x00000000401606ff                Se4Init
                0x0000000040160801                Se4CheckUnicastAddress
                0x0000000040160843                Se4StrToIP32
                0x0000000040160858                Se4UINTToIP
                0x000000004016087d                Se4SendRawIp
                0x00000000401609c4                Se4SendIpFragment
                0x0000000040160aea                Se4SendIp
                0x0000000040160be5                Se4SendIcmpEchoRequest
                0x0000000040160c67                Se4SendIcmpEchoResponse
                0x0000000040160ce9                Se4RecvIpComplete
                0x0000000040160db2                Se4CombineIp
                0x0000000040160f9b                Se4SendIcmp
                0x0000000040161042                Se4SendUdp
                0x0000000040161169                Se4RecvIp
                0x00000000401613ea                Se4RecvArpRequest
                0x00000000401614f7                Se4RecvArpResponse
                0x000000004016152f                Se4RecvArp
                0x00000000401615d7                Se4RecvEthPacket
                0x0000000040161650                Se4GenerateSubnetMask
                0x0000000040161665                Se4IsSubnetMask
                0x00000000401616a5                Se4IPToStr32
                0x00000000401616c0                Se6CmpIpCombineList
                0x0000000040161786                Se6CmpNdpWaitEntry
                0x00000000401617ea                Se6CmpNeighborEntry
                0x000000004016184e                Se6IsGuestNode
                0x0000000040161932                Se6FreeIpHeaderInfo
                0x0000000040161959                Se6IpChecksum
                0x00000000401619cf                Se6CalcChecksum
                0x0000000040161a70                Se6BuildIcmpEchoPacket
                0x0000000040161b49                Se6ParseIpPacketUDPv6
                0x0000000040161c74                Se6ParseIpPacketICMPv6
                0x0000000040161e9f                Se6BroadcastMacAddress
                0x0000000040161ea5                Se6SendEthPacket
                0x0000000040161f59                Se6SendIpFragmentNow
                0x0000000040161f85                Se6InitNeighborEntryList
                0x0000000040161f98                Se6FreeNeighborEntryList
                0x0000000040161fd3                Se6FlushNeighborEntryList
                0x000000004016206b                Se6SearchNeighborEntryList
                0x00000000401620ba                Se6AddNeighborEntryList
                0x0000000040162186                Se6SearchNdpWaitList
                0x00000000401621cd                Se6InitNdpWaitList
                0x00000000401621e0                Se6FreeNdpWaitList
                0x000000004016221b                Se6InsertIpWait
                0x000000004016229a                Se6InitIpWaitList
                0x00000000401622ad                Se6FreeIpWait
                0x00000000401622c9                Se6SendWaitingIpWait
                0x00000000401623d7                Se6FreeIpWaitList
                0x0000000040162412                Se6InitIpCombineList
                0x0000000040162425                Se6SearchIpCombineList
                0x00000000401624a8                Se6InitIpFragmentList
                0x00000000401624bb                Se6FreeIpFragmentList
                0x00000000401624f6                Se6FreeIpCombine
                0x0000000040162524                Se6FreeIpCombineList
                0x0000000040162561                Se6Free
                0x00000000401625a4                Se6Tick
                0x00000000401625c0                Se6FlushIpWaitList
                0x0000000040162674                Se6FlushIpCombineList
                0x0000000040162753                Se6InsertIpCombine
                0x0000000040162870                Se6GenerateEui64Address
                0x00000000401628c4                Se6GenerateMulticastMacAddress
                0x00000000401628f7                Se6GetAllNodeMulticastAddr
                0x0000000040162924                Se6GetAllRouterMulticastAddr
                0x0000000040162951                Se6GetIPAddrType
                0x0000000040162a9c                Se6CheckUnicastAddress
                0x0000000040162ae0                Se6And
                0x0000000040162b21                Se6GetPrefixAddress
                0x0000000040162b2f                Se6IsInSameNetwork
                0x0000000040162bb4                Se6ParseIpPacket
                0x0000000040162d9a                Se6Or
                0x0000000040162ddb                Se6Not
                0x0000000040162e10                Se6GetHostAddress
                0x0000000040162e3f                Se6IsNetworkPrefixAddress
                0x0000000040162e6b                Se6GenerateSubnetMask
                0x0000000040162ec7                Se6LocalSubnet
                0x0000000040162eda                Se6MacIpRelationKnown
                0x0000000040162fcf                Se6AddGuestNode
                0x0000000040163084                Se6GetSoliciationMulticastAddr
                0x0000000040163116                Se6SendIcmpNeighborSoliciation
                0x000000004016324f                Se6SendNeighborSoliciationDoProcess
                0x00000000401632da                Se6ProcessNdpWaitList
                0x0000000040163390                Se6SendNeighborSoliciation
                0x0000000040163405                Se6SendRawIp
                0x000000004016358a                Se6SendIpFragment
                0x00000000401635a6                Se6SendIp
                0x00000000401636fe                Se6SendIcmpEchoRequest
                0x00000000401637c5                Se6SendIcmpEchoResponse
                0x000000004016388c                Se6SendIcmp
                0x0000000040163993                Se6SendIcmpNeighborAdvertisement
                0x0000000040163ad5                Se6SendUdp
                0x0000000040163bf0                Se6SubnetMaskToInt
                0x0000000040163c52                Se6SendIcmpRouterAdvertisement
                0x0000000040163e0c                Se6MainProc
                0x0000000040163e59                Se6RecvIpComplete
                0x0000000040164180                Se6CombineIp
                0x0000000040164385                Se6RecvIp
                0x0000000040164594                Se6RecvEthPacket
                0x00000000401645f7                Se6IsSubnetMask
                0x000000004016465c                Se6Cmp
                0x000000004016468a                Se6IsZeroIP
                0x00000000401646a9                Se6IPToStr
                0x00000000401647f9                Se6IPItemStrToChars
                0x00000000401648ec                Se6CheckIPItemStr
                0x000000004016494d                Se6ZeroIP
                0x000000004016496c                Se6GenerateEui64GlobalAddress
                0x0000000040164a19                Se6GenerateEui64LocalAddress
                0x0000000040164a77                Se6Init
                0x0000000040164bee                Se6StrToIP
                0x0000000040164d4d                Se6CheckSubnetLength
                0x0000000040164d60                SeTimerEntryCompare
                0x0000000040164d9a                SeEthGetInfo
                0x0000000040164dc2                SeEthSendAdd
                0x0000000040164de8                SeEthParseEthernetPacket
                0x0000000040164ed8                SeEthGenRandMacAddress
                0x0000000040164f28                SeLoad
                0x0000000040164f94                SeSave
                0x0000000040164fb4                SeTick
                0x0000000040164fc7                SeGetCurrentCpuId
                0x0000000040164fda                SeNewLock
                0x0000000040165008                SeTimerNew
                0x0000000040165067                SeEthNew
                0x000000004016515f                SeLock
                0x000000004016519a                SeUnlock
                0x00000000401651c5                SeEthGetNextRecvPacket
                0x0000000040165202                SeTick64Internal
                0x000000004016524a                SeInitKernel
                0x0000000040165277                SeTick64
                0x0000000040165299                SeTimerAdjust
                0x000000004016530e                SeTimerCallback
                0x000000004016540e                SeTimerSet
                0x000000004016548e                SeEthDeleteOldSenderMacList
                0x0000000040165551                SeEthAddSenderMacList
                0x000000004016562a                SeEthSend
                0x00000000401656b8                SeEthSendAll
                0x0000000040165780                SeEthIsSenderMacAddressExistsInList
                0x0000000040165818                SeEthNicCallback
                0x0000000040165913                SeDeleteLock
                0x000000004016592e                SeFreeKernel
                0x0000000040165947                SeTimerFree
                0x00000000401659a0                SeEthFree
                0x0000000040165a47                SeLogArgs
                0x0000000040165a78                SeDebug
                0x0000000040165ac8                SeDebugBin
                0x0000000040165b21                SeFatal
                0x0000000040165b71                SeInfo
                0x0000000040165bc1                SeError
                0x0000000040165c11                SeWarning
                0x0000000040165c61                SeLog
                0x0000000040165cb0                SeB64CodeToChar
                0x0000000040165cf0                SeB64CharToCode
                0x0000000040165d2e                SeIsZero
                0x0000000040165d77                SeReplaceListPointer
                0x0000000040165dcc                SeIsInListStr
                0x0000000040165e2b                SeIsInList
                0x0000000040165e6e                SeCompareStr
                0x0000000040165e94                SeSetSortFlag
                0x0000000040165e9e                SeSetCmp
                0x0000000040165ebb                SeFastSwap
                0x0000000040165ee9                SeQSort
                0x0000000040166225                SeSort
                0x0000000040166250                SeBSearch
                0x0000000040166327                SeSearch
                0x000000004016638c                SeFifoSize
                0x000000004016639b                SeDumpBuf
                0x00000000401663c7                SeSeekBuf
                0x00000000401663f7                SeClearBuf
                0x000000004016640c                SeEndian16
                0x0000000040166433                SeSwap16
                0x0000000040166450                SeSwap32
                0x000000004016647e                SeEndian32
                0x0000000040166490                SeSwap64
                0x00000000401664ef                SeEndian64
                0x0000000040166502                SeMalloc
                0x0000000040166537                SeNewFifo
                0x000000004016656c                SeNewBuf
                0x00000000401665a1                SeReAlloc
                0x0000000040166609                SePush
                0x0000000040166654                SePop
                0x00000000401666b2                SeDeleteAll
                0x00000000401666dc                SeDelete
                0x0000000040166793                SeAdd
                0x00000000401667e5                SeInsert
                0x000000004016690d                SeInsertStr
                0x0000000040166953                SeClearFifo
                0x0000000040166983                SeAdjustBufSize
                0x00000000401669ab                SeMemSize
                0x00000000401669e2                SeFree
                0x0000000040166a14                SeFreeStack
                0x0000000040166a30                SeFreeList
                0x0000000040166a4c                SeFreeFifo
                0x0000000040166a67                SeFreeQueue
                0x0000000040166a83                SeFreeBufWithoutBuffer
                0x0000000040166a97                SeFreeBuf
                0x0000000040166ab2                SeIsLittleEndian
                0x0000000040166ac0                SeIsBigEndian
                0x0000000040166ace                SeCmp
                0x0000000040166b35                SeCmpBuf
                0x0000000040166b71                SeCmpEx
                0x0000000040166ba1                SeCopy
                0x0000000040166bc5                SeCopyToArray
                0x0000000040166be9                SeToArray
                0x0000000040166c24                SeWriteFifo
                0x0000000040166ca6                SeInsertQueue
                0x0000000040166cd9                SeReadFifo
                0x0000000040166db5                SeGetNext
                0x0000000040166dfd                SeGetNextInt
                0x0000000040166e27                SePeekFifo
                0x0000000040166e68                SePeekNext
                0x0000000040166ea8                SeWriteBuf
                0x0000000040166f07                SeReadDump
                0x0000000040166f6d                SeAddBufStr
                0x0000000040166f9f                SeWriteBufInt64
                0x0000000040166fe0                SeWriteBufInt
                0x000000004016701e                SeWriteBufStr
                0x0000000040167072                SeWriteBufBuf
                0x0000000040167091                SeWriteBufLine
                0x00000000401670dc                SeMemToBuf
                0x0000000040167128                SeCloneBuf
                0x0000000040167149                SeRandBuf
                0x0000000040167182                SeSwap
                0x00000000401671da                SeClone
                0x000000004016720e                SeInsertQueueInt
                0x000000004016723f                SeZero
                0x000000004016725f                SeReadBuf
                0x00000000401672e4                SeReadBufInt64
                0x0000000040167321                SeReadBufInt
                0x000000004016735a                SeReadBufStr
                0x000000004016740e                SeReadBufFromBuf
                0x0000000040167487                SeReadRemainBuf
                0x00000000401674b4                SeZeroMalloc
                0x00000000401674dd                SeB64Encode
                0x0000000040167699                SeB64Decode
                0x0000000040167895                SeNewStack
                0x00000000401678c3                SeNewQueue
                0x00000000401678ea                SeNewList
                0x0000000040167930                SeCloneList
                0x0000000040167980                SeBuildICMPv6OptionValue
                0x00000000401679f7                SeBuildICMPv6Options
                0x0000000040167aa4                SeParseICMPv6Options
                0x0000000040167b79                SeFreePacketList
                0x0000000040167bb4                SeFreePacketListWithoutBuffer
                0x0000000040167bef                SeGetNextHeaderFromQueue
                0x0000000040167c0e                SeBuildAndAddIPv6PacketOptionHeader
                0x0000000040167c92                SeBuildIPv6Packet
                0x0000000040167e54                SeBuildIPv6PacketWithFragment
                0x0000000040167ffe                SeParseIPv6ExtHeader
                0x00000000401680e2                SeParseIPv6Packet
                0x000000004016813e                SeParsePacketL3IPv6
                0x0000000040168172                SeParsePacketL3IPv4
                0x0000000040168218                SeParsePacketL3ARPv4
                0x000000004016823d                SeParsePacketL2
                0x00000000401682c6                SeFreePacket
                0x00000000401682da                SeParsePacket
                0x0000000040168360                SeSecCmpIkeSa
                0x0000000040168431                SeSecCalcP2Iv
                0x00000000401684ce                SeSecCalcP1Iv
                0x000000004016856b                SeSecCalcKEYMATFull
                0x0000000040168674                SeSecCalcKEYMAT
                0x0000000040168725                SeSecCalcKa
                0x00000000401687f3                SeSecCalcP1KeySet
                0x0000000040168a17                SeSecForceReconnect
                0x0000000040168a4c                SeSecLifeSeconds64bit
                0x0000000040168a67                SeSecGetIPsecSa
                0x0000000040168aad                SeSecNewIkeSa
                0x0000000040168b44                SeSecFreeP1KeySet
                0x0000000040168b85                SeSecGenIkeSaMessageId
                0x0000000040168bf6                SeSecGenIkeSaInitCookie
                0x0000000040168c67                SeSecInitSaList
                0x0000000040168c94                SeSecSearchIPsecSaBySpi
                0x0000000040168d24                SeSecSearchIkeSaBySpi
                0x0000000040168de5                SeSecSearchIkeSa
                0x0000000040168ea1                SeSecNewSpi
                0x0000000040168ebb                SeSecGenIPsecSASpi
                0x0000000040168f2c                SeSecStrToAuthMethod
                0x0000000040168f8a                SeSecTick
                0x0000000040168fa8                SeSecCheckIkeSaExpires
                0x0000000040169048                SeSecCheckIPsecSaExpires
                0x00000000401690f0                SeSecSetTimerCallback
                0x0000000040169114                SeSecAddTimer
                0x0000000040169138                SeSecRecvMain6
                0x0000000040169374                SeSecNewIPsecSa
                0x00000000401694c9                SeSecDoInterval
                0x0000000040169521                SeSecSetRecvUdpCallback
                0x0000000040169545                SeSecSetRecvEspCallback
                0x0000000040169569                SeSecSetRecvVirtualIpCallback
                0x000000004016958d                SeSecSendUdp
                0x00000000401695d4                SeSecSendMain1
                0x00000000401699b5                SeSecSendMain3
                0x0000000040169ab7                SeSecRecvMain2
                0x0000000040169b5f                SeSecSendMain5
                0x0000000040169e04                SeSecRecvMain4
                0x0000000040169fed                SeSecSendIkeSaMsgInfo
                0x000000004016a23b                SeSecSendIkeSaMsgInfoSimple
                0x000000004016a28e                SeSecSendIkeSaDeleteMsg
                0x000000004016a313                SeSecSendIPsecSaDeleteMsg
                0x000000004016a382                SeSecFreeIPsecSa
                0x000000004016a3f2                SeSecProcessIkeSaMsgInfo
                0x000000004016a6e4                SeSecDeleteExpiredIPsecSa
                0x000000004016a78b                SeSecFreeIkeSa
                0x000000004016a935                SeSecDeleteExpiredIkeSa
                0x000000004016aa8c                SeSecFreeSaList
                0x000000004016ab09                SeSecFreeMain
                0x000000004016ab1d                SeSecFree
                0x000000004016ab3f                SeSecSendIkeSaMsgPhase2FinalHash
                0x000000004016acce                SeSecProcessIkeSaMsgPhase2
                0x000000004016b105                SeSecSendIkeSaMsgPhase2
                0x000000004016b5c3                SeSecRecvAggr
                0x000000004016bdf6                SeSecProcessIkeSaMsgPhase1
                0x000000004016be4a                SeSecProcessIkeSaMsg
                0x000000004016be9d                SeSecUdpRecvCallback
                0x000000004016c152                SeSecSendAggr
                0x000000004016c74d                SeSecStartVpnConnect
                0x000000004016c777                SeSecProcessMain
                0x000000004016c858                SeSecInitMain
                0x000000004016c871                SeSecInit
                0x000000004016c986                SeSecTimerCallback
                0x000000004016c99d                SeSecSendEsp
                0x000000004016c9d9                SeSecVirtualIpRecvCallback
                0x000000004016cbdd                SeSecSendVirtualIp
                0x000000004016cc08                SeSecEspRecvCallback
                0x000000004016cdb0                SeMakeCharArray
                0x000000004016cde4                SeFreeToken
                0x000000004016ce30                SeNullTokenList
                0x000000004016ce57                SeDefaultTokenSplitChars
                0x000000004016ce5d                Se4BitToHex
                0x000000004016ce6d                SeHexTo4Bit
                0x000000004016cea1                SeStrCmp
                0x000000004016cf38                SeStrnCmp
                0x000000004016cfef                SeToUpper
                0x000000004016cffc                SeStrCmpi
                0x000000004016d09f                SeStrnCmpi
                0x000000004016d173                SeToLower
                0x000000004016d180                SeStrCheckLen
                0x000000004016d1c2                SeStrCheckSize
                0x000000004016d1db                SeStrLen
                0x000000004016d209                SeReadNextLine
                0x000000004016d2bb                SeIsAllLowerStr
                0x000000004016d328                SeIsAllUpperStr
                0x000000004016d395                SeIsCharInStr
                0x000000004016d3f3                SeNormalizeCrlf
                0x000000004016d494                SeEndWith
                0x000000004016d4e7                SeTrimCrlf
                0x000000004016d529                SeHexToInt64
                0x000000004016d5b1                SeHexToInt
                0x000000004016d634                SeToInt
                0x000000004016d68b                SeToInt64
                0x000000004016d6eb                SeStrLower
                0x000000004016d71f                SeStrUpper
                0x000000004016d753                SeStrCat
                0x000000004016d7d5                SeStrCpy
                0x000000004016d887                SeStrToBin
                0x000000004016d988                SeStrToBinEx
                0x000000004016d9ed                SeStrToMac
                0x000000004016da03                SeSearchStrEx
                0x000000004016db3f                SeSearchStr
                0x000000004016db52                SeSearchStri
                0x000000004016db65                SeCalcReplaceStrEx
                0x000000004016dc09                SeReplaceStrEx
                0x000000004016dd60                SeReplaceStri
                0x000000004016dd74                SeReplaceStr
                0x000000004016dd88                SeCopyStr
                0x000000004016ddc5                SeUniqueToken
                0x000000004016df1a                SeParseTokenWithNullStr
                0x000000004016e06e                SeParseToken
                0x000000004016e20a                SeStartWith
                0x000000004016e291                SeTrimRight
                0x000000004016e385                SeTrimLeft
                0x000000004016e415                SeTrim
                0x000000004016e42d                SeTrimCopy
                0x000000004016e451                SeIsEmptyStr
                0x000000004016e48f                SeToHex64
                0x000000004016e526                SeToHex
                0x000000004016e5ba                SeToStr
                0x000000004016e659                SeToStr64
                0x000000004016e704                SeToStr3
                0x000000004016e834                SeStrSize
                0x000000004016e848                SeFormatEx
                0x000000004016ed44                SeFormatArgs
                0x000000004016ed89                SeFormat
                0x000000004016edc7                SeMacToStr
                0x000000004016ee17                SeBinToStrEx
                0x000000004016eeaa                SeBinToStr
                0x000000004016ef50                SeVpnRecvIpV4PacketCallback
                0x000000004016efa4                SeVpnRecvIpV6PacketCallback
                0x000000004016eff8                SeVpnInitIpStack
                0x000000004016f2cf                SeVpnFreeIpStack
                0x000000004016f362                SeVpnMainInit
                0x000000004016f460                SeVpnMainFree
                0x000000004016f477                SeVpnRecvEtherPacket
                0x000000004016f4f2                SeVpnSendEtherPacket
                0x000000004016f51b                SeVpnMainProcRecvEtherPacket
                0x000000004016f5b5                SeVpnStatusChanged
                0x000000004016f5c3                SeVpnMainProcess
                0x000000004016f6c0                SeVpnMainHandler
                0x000000004016f700                SeVpnTimerCallback
                0x000000004016f71c                SeVpnEthRecvCallback
                0x000000004016f738                SeVpnTick
                0x000000004016f748                SeVpnAddTimer
                0x000000004016f760                SeVpnDoInterval
                0x000000004016f7b3                SeVpnFreeConfig
                0x000000004016f7c7                SeVpnFree
                0x000000004016f80b                SeVpnLoadConfig
                0x0000000040170bd1                SeVpnInit
                0x0000000040170ce0                SeVpn4ClientSetTimerCallback
                0x0000000040170cef                SeVpn4ClientSetRecvUdpCallback
                0x0000000040170cfe                SeVpn4ClientSetRecvEspCallback
                0x0000000040170d0d                SeVpn4ClientSetRecvVirtualIpCallback
                0x0000000040170d1c                SeVpn4ClientSendUdp
                0x0000000040170d93                SeVpn4ClientSendEsp
                0x0000000040170dfb                SeVpn4ClientSendVirtualIp
                0x0000000040170e2e                SeVpn4IPsecSendPing
                0x0000000040170f61                SeVpn4IPsecInputFromPhysical
                0x000000004017101e                SeVpn4IPsecInputFromVirtual
                0x0000000040171079                SeVpn4FreeIPsec
                0x0000000040171091                SeVpn4InitSecConfig
                0x000000004017123f                SeVpn4InitIPsec
                0x00000000401712ea                SeVpn4DoInterval
                0x0000000040171306                SeVpn4Tick
                0x0000000040171322                SeVpn4IPsecMainProc
                0x0000000040171394                SeVpn4MainProc
                0x00000000401713b3                SeVpn4ClientGetTick
                0x00000000401713cc                SeVpn4SetTimer
                0x00000000401713e3                SeVpn4ClientAddTimer
                0x00000000401713ff                SeVpn4DhcpSendResponse
                0x0000000040171506                SeVpn4DhcpOptionsToBuf
                0x00000000401715c1                SeVpn4NewDhcpOption
                0x0000000040171610                SeVpn4DhcpBuildDhcpOptionList
                0x00000000401717f9                SeVpn4DhcpSearchOption
                0x0000000040171830                SeVpn4DhcpFreeOptionList
                0x0000000040171875                SeVpn4DhcpParseOptionListMain
                0x0000000040171960                SeVpn4DhcpParseOptionList
                0x0000000040171a46                SeVpn4DhcpServer
                0x0000000040171cf5                SeVpn4RecvPacketPhysical
                0x0000000040171da4                SeVpn4RecvPacketVirtual
                0x0000000040171efe                SeVpn4Init
                0x0000000040171f65                SeVpn4Free
                0x0000000040171f90                SeVpn6ClientSetTimerCallback
                0x0000000040171f9f                SeVpn6ClientSetRecvUdpCallback
                0x0000000040171fae                SeVpn6ClientSetRecvEspCallback
                0x0000000040171fbd                SeVpn6ClientSetRecvVirtualIpCallback
                0x0000000040171fcc                SeVpn6ClientSendUdp
                0x0000000040172051                SeVpn6ClientSendEsp
                0x00000000401720c9                SeVpn6ClientSendVirtualIp
                0x00000000401720fc                SeVpn6IPsecSendPing
                0x00000000401722dd                SeVpn6UpdateGuestOsIpAddress
                0x000000004017238e                SeVpn6IPsecInputFromPhysical
                0x000000004017244b                SeVpn6IPsecInputFromVirtual
                0x0000000040172482                SeVpn6InitSecConfig
                0x000000004017264b                SeVpn6InitIPsec
                0x0000000040172700                SeVpn6FreeIPsec
                0x0000000040172718                SeVpn6DoInterval
                0x0000000040172734                SeVpn6Tick
                0x0000000040172750                SeVpn6IPsecMainProc
                0x00000000401727c7                SeVpn6MainProc
                0x00000000401727e6                SeVpn6ClientGetTick
                0x00000000401727ff                SeVpn6SetTimer
                0x0000000040172816                SeVpn6ClientAddTimer
                0x0000000040172832                SeVpn6RecvPacketPhysical
                0x00000000401728b4                SeVpn6RecvPacketVirtual
                0x00000000401729cc                SeVpn6Init
                0x0000000040172a44                SeVpn6Free
                0x0000000040172a67                crypt_sys_rsa_sign
                0x0000000040172dc3                msg_usb_bulk_read
                0x0000000040172e2d                msg_usb_bulk_write
                0x0000000040172e97                msg_usb_claim_interface
                0x0000000040172ee5                msg_usb_close
                0x0000000040172f40                msg_usb_control_msg
                0x0000000040172fc4                msg_usb_find_busses
                0x0000000040173005                msg_usb_find_devices
                0x0000000040173046                msg_usb_get_busses
                0x00000000401730bb                msg_usb_get_string_simple
                0x0000000040173120                msg_usb_init
                0x0000000040173138                msg_usb_open
                0x00000000401731b9                msg_usb_release_interface
                0x0000000040173207                msg_usb_reset
                0x000000004017324e                IDMan_StReadSetData
                0x0000000040173933                idman_user_init
                0x0000000040173980                IDMan_IPIdPassListMalloc
                0x0000000040173a56                IDMan_IPRetJudgment
                0x0000000040173ace                IDMan_IPInitializeReader
                0x0000000040173b02                IDMan_IPInitialize
                0x0000000040173bf8                IDMan_IPFinalize
                0x0000000040173c41                IDMan_IPFinalizeReader
                0x0000000040173c66                IDMan_getMemoryFree
                0x0000000040173caf                IDMan_PaddingParamChk
                0x0000000040173db2                IDMan_CmPadding
                0x0000000040173f28                IDMan_CmPadding2
                0x000000004017406b                IDMan_IPgetCertPKCS
                0x0000000040174719                IDMan_IPgetCertIdxPKCS
                0x0000000040174c4f                IDMan_IPCheckPKC
                0x0000000040174e6b                IDMan_CheckCardStatus
                0x0000000040174ea0                IDMan_IPgSParamChk
                0x0000000040174fd7                IDMan_IPgIdxSParamChk
                0x0000000040175018                IDMan_IPgetPrivateKey
                0x000000004017522a                IDMan_IPgetHash
                0x000000004017530a                IDMan_IPCrSignature
                0x0000000040175468                IDMan_generateSignature
                0x00000000401755a8                IDMan_generateSignatureByIndex
                0x00000000401756ce                IDMan_EncryptByIndex
                0x0000000040175810                IDMan_IPgCParamChk
                0x0000000040175907                IDMan_getCertificate
                0x0000000040175c44                IDMan_IPgCIndexParamChk
                0x0000000040175c76                IDMan_getCertificateByIndex
                0x0000000040176010                IDMan_getStaticPassword
                0x0000000040176360                IDMan_IPuAPKCS11ParamChk
                0x000000004017646c                IDMan_IPuAPKCS11IdxParamChk
                0x0000000040176495                IDMan_IPgetCertPkeyPKCSx
                0x000000004017697e                IDMan_IPgetCertPkeyIdxPKCSx
                0x0000000040176db7                IDMan_IPgetCertPkeyPKCSy
                0x0000000040176ef9                IDMan_IPCheckCrlPkcX
                0x0000000040177029                IDMan_IPgetMakeRandData
                0x0000000040177095                IDMan_IPMkRandHash
                0x000000004017713b                IDMan_IPgetPrivateKeyPKCSx
                0x0000000040177347                IDMan_IPSignatureVerify
                0x00000000401774c0                IDMan_userAuthPKCS11
                0x00000000401779ad                IDMan_userAuthPKCS11ByIndex
                0x0000000040177ea0                IDMan_IPvSParamChk
                0x000000004017803f                IDMan_IPvSIdxParamChk
                0x00000000401780c1                IDMan_IPMkPublicKeyObj
                0x000000004017820d                IDMan_IPCheckSignature
                0x00000000401783ca                IDMan_verifySignature
                0x00000000401785ca                IDMan_verifySignatureByIndex
                0x00000000401787b0                CardEstablishContext
                0x00000000401787cb                CardReleaseContext
                0x00000000401787ef                CardListReaders
                0x000000004017880a                CardConnect
                0x000000004017884b                CardDisconnect
                0x000000004017886b                CardStatus
                0x00000000401788c3                CardTransmit
                0x0000000040178902                SelectFileDF
                0x00000000401789cc                SelectFileEF
                0x0000000040178a91                Verify
                0x0000000040178b6f                InternalAuth
                0x0000000040178c7b                ReadBinary
                0x00000000401791c0                UpdateBinary
                0x00000000401792ba                GetICCardData
                0x0000000040179610                GetUlByTxt
                0x000000004017964a                GetVerByTex
                0x0000000040179727                GetUlByByte
                0x0000000040179772                TransHex2Tex
                0x00000000401797fc                TransTex2Hex
                0x00000000401798ba                GetLength
                0x000000004017991b                SetLength
                0x000000004017997a                GetTlvByBuf
                0x0000000040179ce5                GetDirDataByTlv
                0x0000000040179e18                GetOdfDataByTlv
                0x0000000040179f8b                GetTokenDataByTlv
                0x000000004017a3c7                AddObjTblByTlv
                0x000000004017a9f5                AddCertDataByBuf
                0x000000004017aaec                AddIdPassDataByBuf
                0x000000004017aec5                GetValueData
                0x000000004017b260                AddElem
                0x000000004017b2e9                SetElem
                0x000000004017b39d                GetElem
                0x000000004017b3d4                GetAttrValType
                0x000000004017b541                DestroyAttribute
                0x000000004017b57e                DestroyTlvData
                0x000000004017b59c                DestroyElem
                0x000000004017b615                DestroyList
                0x000000004017b653                DestroyTokenData
                0x000000004017b6a6                DestroySlotData
                0x000000004017b6d5                DestroySessionData
                0x000000004017b706                DelElem
                0x000000004017b770                C_GetFunctionList
                0x000000004017b77d                C_Initialize
                0x000000004017b8ee                C_Finalize
                0x000000004017b98d                C_GetInfo
                0x000000004017ba0f                C_GetSlotList
                0x000000004017c267                C_GetSlotInfo
                0x000000004017c34d                C_GetTokenInfo
                0x000000004017cbee                C_GetMechanismList
                0x000000004017ccb5                C_GetMechanismInfo
                0x000000004017cd68                C_OpenSession
                0x000000004017cf22                C_CloseSession
                0x000000004017cfef                C_CloseAllSessions
                0x000000004017d100                C_GetSessionInfo
                0x000000004017d17a                C_Login
                0x000000004017d5f9                C_Logout
                0x000000004017d709                C_FindObjectsInit
                0x000000004017d96a                C_FindObjects
                0x000000004017deb6                C_FindObjectsFinal
                0x000000004017df2f                C_GetAttributeValue
                0x000000004017e274                C_SignInit
                0x000000004017e340                C_Sign
                0x000000004017e6ce                C_DigestInit
                0x000000004017e747                C_DigestUpdate
                0x000000004017e7c6                C_DigestFinal
                0x000000004017e90c                C_VerifyInit
                0x000000004017e9d8                C_Verify
                0x000000004017eb42                C_CreateObject
                0x000000004017ee01                C_DestroyObject
                0x000000004017eebe                C_SetAttributeValue
                0x000000004017fadb                C_GetCardStatus
                0x000000004017fb70                IDMan_StFree
                0x000000004017fb84                IDMan_StMemcpy
                0x000000004017fba8                IDMan_StMemset
                0x000000004017fbc4                IDMan_StMalloc
                0x000000004017fbfe                IDMan_StMemcmp
                0x000000004017fc4a                IDMan_StStrlen
                0x000000004017fc66                IDMan_StStrcat
                0x000000004017fca0                IDMan_StStrchr
                0x000000004017fcd3                IDMan_StStrcpy
                0x000000004017fcfa                IDMan_StStrcmp
                0x000000004017fd39                StIsspace
                0x000000004017fd9a                StIsdigit
                0x000000004017fda7                IDMan_StAtoi
                0x000000004017fdfb                IDMan_StAtol
                0x000000004017fe59                IDMan_CmMkHash
                0x000000004018000e                IDMan_CmChgRSA
                0x00000000401801ad                IDMan_CmGetDN
                0x0000000040180430                IDMan_CmGetCertificateSign
                0x0000000040180632                IDMan_CmGetPublicKey
                0x00000000401807e3                IDMan_CmMakeRand
                0x000000004018087e                IDMan_CmCheckCRL
                0x0000000040180be0                IDMan_SCardEstablishContext
                0x0000000040180c00                IDMan_SCardReleaseContext
                0x0000000040180c0e                IDMan_SCardListReaders
                0x0000000040180c3c                IDMan_SCardConnect
                0x0000000040180c6a                IDMan_SCardDisconnect
                0x0000000040180c78                IDMan_SCardStatus
                0x0000000040180cf4                IDMan_SCardSizeLongToChar
                0x0000000040180d35                IDMan_SCardSetBinay
                0x0000000040181080                IDMan_SCardTransmit
                0x00000000401810f0                EHDestroyEventHandler
                0x0000000040181150                EHInitEventHandler
                0x0000000040181210                EHStatusHandler
                0x000000004018139f                HPSearchHotPluggables
                0x00000000401816e0                PHGetProtocol
                0x0000000040181b07                PHSetProtocol
                0x0000000040181b5e                RFAddReader
                0x0000000040181c75                RFRemoveReader
                0x0000000040181d33                RFReaderInfoById
                0x0000000040181d5f                RFCheckReaderEventState
                0x0000000040181d90                SCardEstablishContext
                0x0000000040181e78                SCardListReaders
                0x0000000040181f05                SCardConnect
                0x0000000040182194                SCardDisconnect
                0x000000004018234b                SCardBeginTransaction
                0x00000000401823a0                SCardEndTransaction
                0x000000004018257c                SCardStatus
                0x000000004018279b                SCardReleaseContext
                0x0000000040182862                SCardTransmit
                0x0000000040182aa0                SetATR
                0x0000000040182cda                GetIFSCData
                0x0000000040182d32                GetBWICWIData
                0x0000000040182dcc                IFDHCloseChannel
                0x0000000040182e48                IFDHGetCapabilities
                0x0000000040182e88                IFDHSetProtocolParameters
                0x00000000401835ba                IFDHPowerICC
                0x000000004018379a                IFDHTransmitToICC
                0x0000000040183a69                IFDHControl
                0x0000000040183b71                IFDHICCPresence
                0x0000000040183c11                IFDHCreateChannel
                0x0000000040183cc0                FindBaudRateTable
                0x0000000040183d02                ExchangePPSData
                0x00000000401843b1                InitLeaderCardProtocol
                0x00000000401844af                T1XfrBlockTPDU
                0x0000000040184ad9                T1NegociateIFSD
                0x0000000040184c12                CardStateConfirm
                0x0000000040184c43                GetCardStatus
                0x0000000040184d4f                PowerOn
                0x0000000040184eba                PowerOff
                0x000000004018500e                CardMechanical
                0x0000000040185120                TransmitPPS
                0x0000000040185261                TransmitCommand
                0x000000004018530b                ReceiveReply
                0x000000004018549c                ReadDataT0
                0x0000000040185548                BlockSendCardT1
                0x0000000040185760                T0XfrBlockCHAR
                0x0000000040185c76                T0XfrBlockTPDU
                0x0000000040185cf2                T1XfrBlockExtendedAPDU
                0x0000000040186035                OpenUSB
                0x00000000401863dc                WriteUSB
                0x00000000401863fe                ReadUSB
                0x000000004018644b                CloseUSB
                0x00000000401864b0                AES_set_encrypt_key
                0x00000000401868b3                AES_set_decrypt_key
                0x0000000040186ade                AES_encrypt
                0x0000000040186f81                AES_decrypt
                0x0000000040187410                BIO_set
                0x00000000401874ca                BIO_new
                0x000000004018753e                BIO_free
                0x00000000401875e9                BIO_vfree
                0x00000000401875f7                BIO_clear_flags
                0x00000000401875fd                BIO_test_flags
                0x0000000040187603                BIO_set_flags
                0x0000000040187607                BIO_get_callback
                0x000000004018760c                BIO_set_callback
                0x0000000040187611                BIO_set_callback_arg
                0x0000000040187616                BIO_get_callback_arg
                0x000000004018761b                BIO_method_name
                0x0000000040187623                BIO_method_type
                0x0000000040187629                BIO_read
                0x0000000040187712                BIO_write
                0x0000000040187806                BIO_puts
                0x00000000401878e2                BIO_gets
                0x00000000401879c5                BIO_indent
                0x0000000040187a0b                BIO_ctrl
                0x0000000040187ac1                BIO_int_ctrl
                0x0000000040187ad8                BIO_ptr_ctrl
                0x0000000040187b05                BIO_callback_ctrl
                0x0000000040187bc5                BIO_ctrl_pending
                0x0000000040187be2                BIO_ctrl_wpending
                0x0000000040187bff                BIO_push
                0x0000000040187c42                BIO_pop
                0x0000000040187ca9                BIO_get_retry_BIO
                0x0000000040187cd2                BIO_get_retry_reason
                0x0000000040187cd6                BIO_find_type
                0x0000000040187d1b                BIO_next
                0x0000000040187d2b                BIO_free_all
                0x0000000040187d5a                BIO_dup_chain
                0x0000000040187e46                BIO_copy_next_retry
                0x0000000040187e5a                BIO_get_ex_new_index
                0x0000000040187e7c                BIO_set_ex_data
                0x0000000040187e8e                BIO_get_ex_data
                0x0000000040187ea0                BIO_number_read
                0x0000000040187eb0                BIO_number_written
                0x0000000040187ffc                BN_set_params
                0x0000000040188088                BN_get_params
                0x00000000401880bb                BN_value_one
                0x00000000401880c1                BN_options
                0x000000004018810c                BN_num_bits_word
                0x0000000040188162                BN_num_bits
                0x0000000040188183                BN_clear_free
                0x00000000401881da                BN_free
                0x0000000040188216                BN_init
                0x000000004018822e                BN_new
                0x0000000040188299                bn_expand2
                0x00000000401882d9                BN_copy
                0x00000000401883b0                BN_dup
                0x0000000040188403                bn_dup_expand
                0x000000004018846e                BN_swap
                0x00000000401884cc                BN_clear
                0x00000000401884fc                BN_get_word
                0x000000004018851a                BN_set_word
                0x000000004018856d                BN_bin2bn
                0x000000004018869c                BN_bn2bin
                0x0000000040188704                BN_ucmp
                0x000000004018875b                BN_cmp
                0x000000004018880d                BN_set_bit
                0x00000000401888ba                BN_clear_bit
                0x000000004018893d                BN_is_bit_set
                0x000000004018897c                BN_mask_bits
                0x0000000040188a0b                BN_set_negative
                0x0000000040188a25                bn_cmp_words
                0x0000000040188a83                bn_cmp_part_words
                0x0000000040188b10                BN_bn2hex
                0x0000000040188bf4                BN_bn2dec
                0x0000000040188df2                BN_hex2bn
                0x0000000040188fcf                BN_dec2bn
                0x0000000040189173                BN_asc2bn
                0x00000000401891da                BN_print
                0x000000004018949a                BN_rand
                0x00000000401894b7                BN_pseudo_rand
                0x00000000401896a6                BN_bntest_rand
                0x00000000401896c3                BN_rand_range
                0x00000000401896dc                BN_pseudo_rand_range
                0x0000000040189700                BN_mod_word
                0x0000000040189755                BN_div_word
                0x0000000040189826                BN_sub_word
                0x0000000040189921                BN_add_word
                0x0000000040189a18                BN_mul_word
                0x0000000040189e93                BIO_s_mem
                0x0000000040189e99                BIO_new_mem_buf
                0x0000000040189f10                BUF_MEM_new
                0x0000000040189f6f                BUF_MEM_free
                0x0000000040189fa1                BUF_MEM_grow
                0x000000004018a0b4                BUF_MEM_grow_clean
                0x000000004018a1e0                BUF_memdup
                0x000000004018a248                BUF_strlcpy
                0x000000004018a2ab                BUF_strndup
                0x000000004018a319                BUF_strdup
                0x000000004018a33a                BUF_strlcat
                0x000000004018a375                BUF_reverse
                0x000000004018a3c6                OpenSSL_add_all_ciphers
                0x000000004018a866                OpenSSL_add_all_digests
                0x000000004018a9d0                CRYPTO_get_new_lockid
                0x000000004018aa72                CRYPTO_num_locks
                0x000000004018aa78                CRYPTO_get_dynlock_create_callback
                0x000000004018aa80                CRYPTO_get_dynlock_lock_callback
                0x000000004018aa88                CRYPTO_get_dynlock_destroy_callback
                0x000000004018aa90                CRYPTO_set_dynlock_create_callback
                0x000000004018aa98                CRYPTO_set_dynlock_lock_callback
                0x000000004018aaa0                CRYPTO_set_dynlock_destroy_callback
                0x000000004018aaa8                CRYPTO_get_locking_callback
                0x000000004018aab0                CRYPTO_get_add_lock_callback
                0x000000004018aab8                CRYPTO_set_locking_callback
                0x000000004018aac0                CRYPTO_set_add_lock_callback
                0x000000004018aac8                CRYPTO_THREADID_set_numeric
                0x000000004018aaee                CRYPTO_THREADID_set_pointer
                0x000000004018ab17                CRYPTO_THREADID_set_callback
                0x000000004018ab31                CRYPTO_THREADID_get_callback
                0x000000004018ab39                CRYPTO_THREADID_current
                0x000000004018ab74                CRYPTO_THREADID_cmp
                0x000000004018ab87                CRYPTO_THREADID_cpy
                0x000000004018ab9a                CRYPTO_THREADID_hash
                0x000000004018ab9f                CRYPTO_get_id_callback
                0x000000004018aba7                CRYPTO_set_id_callback
                0x000000004018abaf                CRYPTO_thread_id
                0x000000004018abcc                CRYPTO_get_lock_name
                0x000000004018ac14                OPENSSL_ia32cap_loc
                0x000000004018ac1a                OPENSSL_cpuid_setup
                0x000000004018ac1c                OPENSSL_showfatal
                0x000000004018ac71                OPENSSL_isservice
                0x000000004018ac77                OpenSSLDie
                0x000000004018ac9c                CRYPTO_lock
                0x000000004018ad10                CRYPTO_get_new_dynlockid
                0x000000004018af28                CRYPTO_destroy_dynlockid
                0x000000004018b01f                CRYPTO_get_dynlock_value
                0x000000004018b0b1                CRYPTO_add_lock
                0x000000004018b10e                OPENSSL_stderr
                0x000000004018b114                CRYPTO_memcmp
                0x000000004018b143                DES_encrypt1
                0x000000004018b553                DES_encrypt2
                0x000000004018b866                DES_encrypt3
                0x000000004018b9b9                DES_decrypt3
                0x000000004018bb0f                DES_ncbc_encrypt
                0x000000004018c147                DES_ede3_cbc_encrypt
                0x000000004018cb90                DH_generate_key
                0x000000004018cba3                DH_compute_key
                0x000000004018cbb6                DH_OpenSSL
                0x000000004018cbc0                DH_set_default_method
                0x000000004018cbc8                DH_get_default_method
                0x000000004018cbf6                DH_set_method
                0x000000004018cc35                DH_new_method
                0x000000004018cd57                DH_new
                0x000000004018cd6a                DH_free
                0x000000004018ce3d                DH_up_ref
                0x000000004018ce6d                DH_get_ex_new_index
                0x000000004018ce8f                DH_set_ex_data
                0x000000004018cea1                DH_get_ex_data
                0x000000004018ceb3                DH_size
                0x000000004018dbe6                EVP_aes_128_cbc
                0x000000004018dbec                EVP_aes_128_cfb128
                0x000000004018dbf2                EVP_aes_128_ofb
                0x000000004018dbf8                EVP_aes_128_ecb
                0x000000004018dbfe                EVP_aes_192_cbc
                0x000000004018dc04                EVP_aes_192_cfb128
                0x000000004018dc0a                EVP_aes_192_ofb
                0x000000004018dc10                EVP_aes_192_ecb
                0x000000004018dc16                EVP_aes_256_cbc
                0x000000004018dc1c                EVP_aes_256_cfb128
                0x000000004018dc22                EVP_aes_256_ofb
                0x000000004018dc28                EVP_aes_256_ecb
                0x000000004018dc2e                EVP_aes_128_cfb1
                0x000000004018dc34                EVP_aes_192_cfb1
                0x000000004018dc3a                EVP_aes_256_cfb1
                0x000000004018dc40                EVP_aes_128_cfb8
                0x000000004018dc46                EVP_aes_192_cfb8
                0x000000004018dc4c                EVP_aes_256_cfb8
                0x000000004018df62                EVP_bf_cbc
                0x000000004018df68                EVP_bf_cfb64
                0x000000004018df6e                EVP_bf_ofb
                0x000000004018df74                EVP_bf_ecb
                0x000000004018e28a                EVP_cast5_cbc
                0x000000004018e290                EVP_cast5_cfb64
                0x000000004018e296                EVP_cast5_ofb
                0x000000004018e29c                EVP_cast5_ecb
                0x000000004018e881                EVP_des_cbc
                0x000000004018e887                EVP_des_cfb64
                0x000000004018e88d                EVP_des_ofb
                0x000000004018e893                EVP_des_ecb
                0x000000004018e899                EVP_des_cfb1
                0x000000004018e89f                EVP_des_cfb8
                0x000000004018ef84                EVP_des_ede_cbc
                0x000000004018ef8a                EVP_des_ede_cfb64
                0x000000004018ef90                EVP_des_ede_ofb
                0x000000004018ef96                EVP_des_ede_ecb
                0x000000004018ef9c                EVP_des_ede3_cbc
                0x000000004018efa2                EVP_des_ede3_cfb64
                0x000000004018efa8                EVP_des_ede3_ofb
                0x000000004018efae                EVP_des_ede3_ecb
                0x000000004018efb4                EVP_des_ede3_cfb1
                0x000000004018efba                EVP_des_ede3_cfb8
                0x000000004018efc0                EVP_des_ede
                0x000000004018efc6                EVP_des_ede3
                0x000000004018f32a                EVP_idea_cbc
                0x000000004018f330                EVP_idea_cfb64
                0x000000004018f336                EVP_idea_ofb
                0x000000004018f33c                EVP_idea_ecb
                0x000000004018f865                EVP_rc2_cbc
                0x000000004018f86b                EVP_rc2_cfb64
                0x000000004018f871                EVP_rc2_ofb
                0x000000004018f877                EVP_rc2_ecb
                0x000000004018f87d                EVP_rc2_64_cbc
                0x000000004018f883                EVP_rc2_40_cbc
                0x000000004018f8d4                EVP_rc4
                0x000000004018f8da                EVP_rc4_40
                0x000000004018fa50                EVP_desx_cbc
                0x000000004018fa56                DES_ecb3_encrypt
                0x000000004018fb21                DES_options
                0x000000004018fb7a                DES_ecb_encrypt
                0x00000000401902c2                ERR_get_implementation
                0x00000000401902d7                ERR_set_implementation
                0x0000000040190333                ERR_load_ERR_strings
                0x0000000040190463                ERR_load_strings
                0x0000000040190484                ERR_unload_strings
                0x00000000401904c5                ERR_free_strings
                0x00000000401904dd                ERR_get_string_table
                0x00000000401904f9                ERR_get_err_state_table
                0x0000000040190516                ERR_release_err_state_table
                0x000000004019052e                ERR_lib_error_string
                0x0000000040190568                ERR_func_error_string
                0x00000000401905a2                ERR_reason_error_string
                0x0000000040190601                ERR_error_string_n
                0x0000000040190754                ERR_error_string
                0x0000000040190776                ERR_remove_thread_state
                0x00000000401907b1                ERR_remove_state
                0x00000000401907c4                ERR_get_state
                0x00000000401908be                ERR_put_error
                0x00000000401909ad                ERR_clear_error
                0x0000000040190c50                ERR_get_error
                0x0000000040190c7e                ERR_get_error_line
                0x0000000040190ca8                ERR_get_error_line_data
                0x0000000040190ccc                ERR_peek_error
                0x0000000040190cfa                ERR_peek_error_line
                0x0000000040190d24                ERR_peek_error_line_data
                0x0000000040190d48                ERR_peek_last_error
                0x0000000040190d76                ERR_peek_last_error_line
                0x0000000040190da0                ERR_peek_last_error_line_data
                0x0000000040190dc4                ERR_get_next_error_library
                0x0000000040190ddc                ERR_set_error_data
                0x0000000040190e42                ERR_add_error_data
                0x0000000040190f6f                ERR_set_mark
                0x0000000040190f9f                ERR_pop_to_mark
                0x0000000040191060                ERR_load_crypto_strings
                0x0000000040191100                ASN1_TYPE_set_octetstring
                0x000000004019115c                ASN1_TYPE_get_octetstring
                0x00000000401911ab                ASN1_TYPE_set_int_octetstring
                0x00000000401912d5                ASN1_TYPE_get_int_octetstring
                0x00000000401914a0                EVP_CIPHER_CTX_init
                0x00000000401914b8                EVP_CIPHER_CTX_new
                0x00000000401914e2                EVP_EncryptUpdate
                0x0000000040191658                EVP_EncryptFinal_ex
                0x0000000040191721                EVP_EncryptFinal
                0x000000004019172f                EVP_DecryptUpdate
                0x000000004019183a                EVP_CipherUpdate
                0x000000004019185a                EVP_DecryptFinal_ex
                0x00000000401919dd                EVP_CipherFinal_ex
                0x00000000401919fa                EVP_DecryptFinal
                0x0000000040191a08                EVP_CipherFinal
                0x0000000040191a2a                EVP_CIPHER_CTX_cleanup
                0x0000000040191a81                EVP_CIPHER_CTX_free
                0x0000000040191a99                EVP_CIPHER_CTX_set_padding
                0x0000000040191ab5                EVP_CIPHER_CTX_ctrl
                0x0000000040191b48                EVP_CipherInit_ex
                0x0000000040191d6e                EVP_CipherInit
                0x0000000040191db1                EVP_EncryptInit
                0x0000000040191dc5                EVP_DecryptInit
                0x0000000040191dd9                EVP_EncryptInit_ex
                0x0000000040191ded                EVP_DecryptInit_ex
                0x0000000040191e01                EVP_CIPHER_CTX_set_key_length
                0x0000000040191e70                EVP_CIPHER_CTX_rand_key
                0x0000000040191ea9                EVP_CIPHER_CTX_copy
                0x0000000040191f89                ERR_load_EVP_strings
                0x0000000040191fd0                EVP_CIPHER_param_to_asn1
                0x0000000040191ff1                EVP_CIPHER_asn1_to_param
                0x0000000040192011                EVP_CIPHER_get_asn1_iv
                0x000000004019208b                EVP_CIPHER_set_asn1_iv
                0x00000000401920d6                EVP_CIPHER_type
                0x0000000040192219                EVP_CIPHER_block_size
                0x000000004019221d                EVP_CIPHER_CTX_block_size
                0x0000000040192224                EVP_Cipher
                0x0000000040192235                EVP_CIPHER_CTX_cipher
                0x0000000040192239                EVP_CIPHER_flags
                0x000000004019223e                EVP_CIPHER_CTX_flags
                0x0000000040192246                EVP_CIPHER_CTX_get_app_data
                0x000000004019224b                EVP_CIPHER_CTX_set_app_data
                0x0000000040192250                EVP_CIPHER_iv_length
                0x0000000040192254                EVP_CIPHER_CTX_iv_length
                0x000000004019225b                EVP_CIPHER_key_length
                0x000000004019225f                EVP_CIPHER_CTX_key_length
                0x0000000040192263                EVP_CIPHER_nid
                0x0000000040192266                EVP_CIPHER_CTX_nid
                0x000000004019226c                EVP_MD_block_size
                0x0000000040192270                EVP_MD_type
                0x0000000040192273                EVP_MD_pkey_type
                0x0000000040192277                EVP_MD_size
                0x00000000401922ad                EVP_MD_flags
                0x00000000401922b2                EVP_MD_CTX_md
                0x00000000401922c1                EVP_MD_CTX_set_flags
                0x00000000401922c9                EVP_MD_CTX_clear_flags
                0x00000000401922d3                EVP_MD_CTX_test_flags
                0x00000000401922d9                EVP_CIPHER_CTX_set_flags
                0x00000000401922e1                EVP_CIPHER_CTX_clear_flags
                0x00000000401922eb                EVP_CIPHER_CTX_test_flags
                0x00000000401926c2                CRYPTO_get_ex_data_implementation
                0x00000000401926e9                CRYPTO_set_ex_data_implementation
                0x0000000040192745                CRYPTO_ex_data_new_class
                0x0000000040192766                CRYPTO_cleanup_all_ex_data
                0x0000000040192788                CRYPTO_get_ex_new_index
                0x00000000401927e0                CRYPTO_new_ex_data
                0x0000000040192812                CRYPTO_dup_ex_data
                0x0000000040192844                CRYPTO_free_ex_data
                0x0000000040192876                CRYPTO_set_ex_data
                0x000000004019292d                CRYPTO_get_ex_data
                0x0000000040192e47                idea_encrypt
                0x0000000040193730                idea_cbc_encrypt
                0x0000000040193d60                idea_cfb64_encrypt
                0x0000000040193f82                idea_options
                0x0000000040193f88                idea_ecb_encrypt
                0x000000004019403d                idea_ofb64_encrypt
                0x0000000040194278                idea_set_encrypt_key
                0x00000000401943fe                idea_set_decrypt_key
                0x0000000040194553                lh_strhash
                0x00000000401945c5                lh_new
                0x000000004019471f                lh_free
                0x0000000040194778                lh_insert
                0x0000000040194900                lh_delete
                0x0000000040194a3d                lh_retrieve
                0x0000000040194a7c                lh_doall
                0x0000000040194acf                lh_doall_arg
                0x0000000040194b23                lh_num_items
                0x0000000040194b6f                EVP_dss
                0x0000000040194bb1                EVP_dss1
                0x0000000040194bf3                EVP_ecdsa
                0x0000000040194c35                EVP_md4
                0x0000000040194c77                EVP_md5
                0x0000000040194cb9                EVP_ripemd160
                0x0000000040194cfb                EVP_sha
                0x0000000040194dd9                EVP_sha1
                0x0000000040194ddf                EVP_sha224
                0x0000000040194de5                EVP_sha256
                0x0000000040194deb                EVP_sha384
                0x0000000040194df1                EVP_sha512
                0x0000000040194df7                MD4_Init
                0x0000000040194e2c                md4_block_data_order
                0x00000000401953dc                MD4_Update
                0x00000000401954e8                MD4_Transform
                0x00000000401954f4                MD4_Final
                0x00000000401955a9                MD5_Init
                0x00000000401955de                md5_block_data_order
                0x0000000040195ddd                MD5_Update
                0x0000000040195ee9                MD5_Transform
                0x0000000040195ef5                MD5_Final
                0x0000000040195faa                MD5
                0x000000004019604d                CRYPTO_set_mem_functions
                0x00000000401960be                CRYPTO_set_mem_ex_functions
                0x000000004019612f                CRYPTO_set_locked_mem_functions
                0x000000004019616a                CRYPTO_set_locked_mem_ex_functions
                0x00000000401961a5                CRYPTO_set_mem_debug_functions
                0x00000000401961da                CRYPTO_get_mem_functions
                0x000000004019622b                CRYPTO_get_mem_ex_functions
                0x0000000040196278                CRYPTO_get_locked_mem_functions
                0x00000000401962a9                CRYPTO_get_locked_mem_ex_functions
                0x00000000401962d8                CRYPTO_get_mem_debug_functions
                0x0000000040196325                CRYPTO_malloc_locked
                0x00000000401963d5                CRYPTO_free_locked
                0x000000004019640f                CRYPTO_malloc
                0x00000000401964bf                CRYPTO_strdup
                0x00000000401964f5                CRYPTO_realloc
                0x000000004019658b                CRYPTO_realloc_clean
                0x0000000040196666                CRYPTO_free
                0x00000000401966a0                CRYPTO_remalloc
                0x00000000401966c0                CRYPTO_set_mem_debug_options
                0x00000000401966d8                CRYPTO_get_mem_debug_options
                0x00000000401966f5                OPENSSL_cleanse
                0x0000000040196b21                CRYPTO_mem_ctrl
                0x0000000040196ca3                CRYPTO_is_mem_check_on
                0x0000000040196d18                CRYPTO_dbg_set_options
                0x0000000040196d20                CRYPTO_dbg_get_options
                0x0000000040196d28                CRYPTO_push_info_
                0x0000000040196df2                CRYPTO_pop_info
                0x0000000040196e27                CRYPTO_remove_all_info
                0x0000000040196e5d                CRYPTO_dbg_malloc
                0x0000000040196fe2                CRYPTO_dbg_free
                0x0000000040197055                CRYPTO_dbg_realloc
                0x00000000401970f1                CRYPTO_mem_leaks
                0x0000000040197211                CRYPTO_mem_leaks_cb
                0x00000000401972e5                EVP_add_cipher
                0x000000004019732d                EVP_add_digest
                0x00000000401973d6                EVP_get_cipherbyname
                0x00000000401973e9                EVP_get_digestbyname
                0x00000000401973fc                EVP_cleanup
                0x0000000040197445                EVP_CIPHER_do_all
                0x0000000040197469                EVP_CIPHER_do_all_sorted
                0x000000004019748d                EVP_MD_do_all
                0x00000000401974b1                EVP_MD_do_all_sorted
                0x00000000401975d6                OBJ_NAME_init
                0x0000000040197627                OBJ_NAME_new_index
                0x0000000040197786                OBJ_NAME_get
                0x0000000040197826                OBJ_NAME_add
                0x00000000401978fd                OBJ_NAME_remove
                0x00000000401979ac                OBJ_NAME_do_all
                0x00000000401979d9                OBJ_NAME_do_all_sorted
                0x0000000040197a7b                OBJ_NAME_cleanup
                0x0000000040197d2b                check_defer
                0x0000000040197d48                OBJ_cleanup
                0x0000000040197dbd                OBJ_new_nid
                0x0000000040197dcc                OBJ_add_object
                0x0000000040197f8b                OBJ_nid2obj
                0x000000004019804d                OBJ_nid2sn
                0x0000000040198112                OBJ_nid2ln
                0x00000000401981d8                OBJ_bsearch_ex_
                0x00000000401982f2                OBJ_bsearch_
                0x0000000040198306                OBJ_obj2nid
                0x0000000040198390                OBJ_obj2txt
                0x0000000040198717                OBJ_ln2nid
                0x0000000040198795                OBJ_sn2nid
                0x0000000040198813                OBJ_txt2obj
                0x0000000040198903                OBJ_txt2nid
                0x0000000040198931                OBJ_create
                0x0000000040198a16                OBJ_create_objects
                0x0000000040198b46                ERR_load_OBJ_strings
                0x0000000040198b80                OBJ_dup
                0x0000000040198d51                OBJ_cmp
                0x0000000040198d76                ERR_load_OCSP_strings
                0x0000000040198dae                DES_ede3_ofb64_encrypt
                0x0000000040198f9e                DES_ofb64_encrypt
                0x0000000040199297                EVP_PKEY_bits
                0x00000000401992cd                EVP_PKEY_size
                0x0000000040199303                EVP_PKEY_save_parameters
                0x0000000040199330                EVP_PKEY_missing_parameters
                0x000000004019935b                EVP_PKEY_copy_parameters
                0x00000000401993e9                EVP_PKEY_cmp_parameters
                0x0000000040199423                EVP_PKEY_cmp
                0x000000004019947f                EVP_PKEY_new
                0x0000000040199502                EVP_PKEY_set_type
                0x000000004019951a                EVP_PKEY_set_type_str
                0x0000000040199532                EVP_PKEY_assign
                0x000000004019955b                EVP_PKEY_get0
                0x0000000040199560                EVP_PKEY_set1_RSA
                0x000000004019958d                EVP_PKEY_get1_RSA
                0x00000000401995cb                EVP_PKEY_set1_DSA
                0x00000000401995f8                EVP_PKEY_get1_DSA
                0x0000000040199636                EVP_PKEY_set1_EC_KEY
                0x0000000040199663                EVP_PKEY_get1_EC_KEY
                0x00000000401996a4                EVP_PKEY_set1_DH
                0x00000000401996d1                EVP_PKEY_get1_DH
                0x000000004019970f                EVP_PKEY_type
                0x0000000040199732                EVP_PKEY_id
                0x0000000040199735                EVP_PKEY_base_id
                0x0000000040199745                EVP_PKEY_free
                0x0000000040199795                EVP_PKEY_print_public
                0x00000000401997c1                EVP_PKEY_print_private
                0x00000000401997ea                EVP_PKEY_print_params
                0x000000004019981a                EVP_PKEY_get_default_digest_nid
                0x0000000040199856                PEM_read_bio_X509_REQ
                0x000000004019987a                PEM_write_bio_X509_REQ
                0x00000000401998bd                PEM_write_bio_X509_REQ_NEW
                0x0000000040199900                PEM_read_bio_X509_CRL
                0x0000000040199924                PEM_write_bio_X509_CRL
                0x0000000040199967                PEM_read_bio_PKCS7
                0x000000004019998b                PEM_write_bio_PKCS7
                0x00000000401999ce                PEM_read_bio_NETSCAPE_CERT_SEQUENCE
                0x00000000401999f2                PEM_write_bio_NETSCAPE_CERT_SEQUENCE
                0x0000000040199a35                PEM_read_bio_RSAPrivateKey
                0x0000000040199a91                PEM_write_bio_RSAPrivateKey
                0x0000000040199ac8                PEM_read_bio_RSAPublicKey
                0x0000000040199aec                PEM_write_bio_RSAPublicKey
                0x0000000040199b2f                PEM_read_bio_RSA_PUBKEY
                0x0000000040199b53                PEM_write_bio_RSA_PUBKEY
                0x0000000040199b96                PEM_read_bio_DSAPrivateKey
                0x0000000040199bf2                PEM_write_bio_DSAPrivateKey
                0x0000000040199c29                PEM_read_bio_DSA_PUBKEY
                0x0000000040199c4d                PEM_write_bio_DSA_PUBKEY
                0x0000000040199c90                PEM_read_bio_DSAparams
                0x0000000040199cb4                PEM_write_bio_DSAparams
                0x0000000040199cf7                PEM_read_bio_ECPrivateKey
                0x0000000040199d53                PEM_read_bio_ECPKParameters
                0x0000000040199d77                PEM_write_bio_ECPKParameters
                0x0000000040199dba                PEM_write_bio_ECPrivateKey
                0x0000000040199df1                PEM_read_bio_EC_PUBKEY
                0x0000000040199e15                PEM_write_bio_EC_PUBKEY
                0x0000000040199e58                PEM_read_bio_DHparams
                0x0000000040199e7c                PEM_write_bio_DHparams
                0x0000000040199ebf                PEM_read_bio_PUBKEY
                0x0000000040199ee3                PEM_write_bio_PUBKEY
                0x0000000040199f26                ERR_load_PEM_strings
                0x0000000040199f60                PEM_def_callback
                0x0000000040199f8d                PEM_proc_type
                0x0000000040199ffa                PEM_dek_info
                0x000000004019a0bf                PEM_do_header
                0x000000004019a297                PEM_get_EVP_CIPHER_INFO
                0x000000004019a52b                PEM_write_bio
                0x000000004019a7a5                PEM_ASN1_write_bio
                0x000000004019aba4                PEM_read_bio
                0x000000004019b239                pem_check_suffix
                0x000000004019b299                PEM_bytes_read_bio
                0x000000004019b603                PEM_ASN1_read_bio
                0x000000004019b6a2                PEM_read_bio_PrivateKey
                0x000000004019b948                PEM_write_bio_PrivateKey
                0x000000004019b9fa                PEM_read_bio_Parameters
                0x000000004019bb25                PEM_write_bio_Parameters
                0x000000004019bba9                PEM_read_bio_X509
                0x000000004019bbcd                PEM_write_bio_X509
                0x000000004019bc10                ERR_load_PKCS12_strings
                0x000000004019bd21                d2i_PKCS7
                0x000000004019bd34                i2d_PKCS7
                0x000000004019bd47                PKCS7_new
                0x000000004019bd5a                PKCS7_free
                0x000000004019bd6d                i2d_PKCS7_NDEF
                0x000000004019bd80                PKCS7_dup
                0x000000004019bd96                d2i_PKCS7_SIGNED
                0x000000004019bda9                i2d_PKCS7_SIGNED
                0x000000004019bdbc                PKCS7_SIGNED_new
                0x000000004019bdcf                PKCS7_SIGNED_free
                0x000000004019bde2                d2i_PKCS7_SIGNER_INFO
                0x000000004019bdf5                i2d_PKCS7_SIGNER_INFO
                0x000000004019be08                PKCS7_SIGNER_INFO_new
                0x000000004019be1b                PKCS7_SIGNER_INFO_free
                0x000000004019be2e                d2i_PKCS7_ISSUER_AND_SERIAL
                0x000000004019be41                i2d_PKCS7_ISSUER_AND_SERIAL
                0x000000004019be54                PKCS7_ISSUER_AND_SERIAL_new
                0x000000004019be67                PKCS7_ISSUER_AND_SERIAL_free
                0x000000004019be7a                d2i_PKCS7_ENVELOPE
                0x000000004019be8d                i2d_PKCS7_ENVELOPE
                0x000000004019bea0                PKCS7_ENVELOPE_new
                0x000000004019beb3                PKCS7_ENVELOPE_free
                0x000000004019bec6                d2i_PKCS7_RECIP_INFO
                0x000000004019bed9                i2d_PKCS7_RECIP_INFO
                0x000000004019beec                PKCS7_RECIP_INFO_new
                0x000000004019beff                PKCS7_RECIP_INFO_free
                0x000000004019bf12                d2i_PKCS7_ENC_CONTENT
                0x000000004019bf25                i2d_PKCS7_ENC_CONTENT
                0x000000004019bf38                PKCS7_ENC_CONTENT_new
                0x000000004019bf4b                PKCS7_ENC_CONTENT_free
                0x000000004019bf5e                d2i_PKCS7_SIGN_ENVELOPE
                0x000000004019bf71                i2d_PKCS7_SIGN_ENVELOPE
                0x000000004019bf84                PKCS7_SIGN_ENVELOPE_new
                0x000000004019bf97                PKCS7_SIGN_ENVELOPE_free
                0x000000004019bfaa                d2i_PKCS7_ENCRYPT
                0x000000004019bfbd                i2d_PKCS7_ENCRYPT
                0x000000004019bfd0                PKCS7_ENCRYPT_new
                0x000000004019bfe3                PKCS7_ENCRYPT_free
                0x000000004019bff6                d2i_PKCS7_DIGEST
                0x000000004019c009                i2d_PKCS7_DIGEST
                0x000000004019c01c                PKCS7_DIGEST_new
                0x000000004019c02f                PKCS7_DIGEST_free
                0x000000004019c042                PKCS7_print_ctx
                0x000000004019c5aa                PKCS7_dataInit
                0x000000004019cc18                PKCS7_dataDecode
                0x000000004019d42c                PKCS7_SIGNER_INFO_sign
                0x000000004019d603                PKCS7_get_issuer_and_serial
                0x000000004019d677                PKCS7_get_signed_attribute
                0x000000004019d689                PKCS7_dataFinal
                0x000000004019dbab                PKCS7_get_attribute
                0x000000004019dbbd                PKCS7_digest_from_attributes
                0x000000004019dbe0                PKCS7_signatureVerify
                0x000000004019dee4                PKCS7_dataVerify
                0x000000004019e053                PKCS7_set_signed_attributes
                0x000000004019e0d6                PKCS7_set_attributes
                0x000000004019e159                PKCS7_add_signed_attribute
                0x000000004019e16b                PKCS7_add_attribute
                0x000000004019e180                PKCS7_ctrl
                0x000000004019e2a5                PKCS7_set_content
                0x000000004019e333                PKCS7_set_type
                0x000000004019e521                PKCS7_content_new
                0x000000004019e572                PKCS7_set0_type_other
                0x000000004019e599                PKCS7_add_signer
                0x000000004019e6f8                PKCS7_add_certificate
                0x000000004019e7d3                PKCS7_add_crl
                0x000000004019e8ae                PKCS7_SIGNER_INFO_set
                0x000000004019e9fc                PKCS7_add_signature
                0x000000004019eabf                PKCS7_set_digest
                0x000000004019eb70                PKCS7_get_signer_info
                0x000000004019ebac                PKCS7_SIGNER_INFO_get0_algs
                0x000000004019ebd2                PKCS7_RECIP_INFO_get0_alg
                0x000000004019ebe0                PKCS7_add_recipient_info
                0x000000004019ec50                PKCS7_RECIP_INFO_set
                0x000000004019edda                PKCS7_add_recipient
                0x000000004019ee2b                PKCS7_cert_from_signer_info
                0x000000004019ee6f                PKCS7_set_cipher
                0x000000004019ef0a                PKCS7_stream
                0x000000004019efd2                ERR_load_PKCS7_strings
                0x000000004019f00a                ERR_load_RAND_strings
                0x000000004019f050                DES_random_key
                0x000000004019f0a0                RAND_set_rand_method
                0x000000004019f0ad                RAND_get_rand_method
                0x000000004019f0db                RAND_cleanup
                0x000000004019f104                RAND_seed
                0x000000004019f12f                RAND_add
                0x000000004019f15d                RAND_bytes
                0x000000004019f197                RAND_pseudo_bytes
                0x000000004019f1d1                RAND_status
                0x000000004019f1fb                RC2_encrypt
                0x000000004019f33c                RC2_decrypt
                0x000000004019f491                RC2_cbc_encrypt
                0x000000004019faae                RC2_ecb_encrypt
                0x000000004019fb70                RC2_set_key
                0x000000004019fc90                RC2_cfb64_encrypt
                0x000000004019fea6                RC2_ofb64_encrypt
                0x00000000401a0070                RC4
                0x00000000401a04b3                RC4_options
                0x00000000401a04b9                RC4_set_key
                0x00000000401a05b7                RIPEMD160_Init
                0x00000000401a05f3                ripemd160_block_data_order
                0x00000000401a1c3f                RIPEMD160_Update
                0x00000000401a1d4b                RIPEMD160_Transform
                0x00000000401a1d57                RIPEMD160_Final
                0x00000000401a1e4f                d2i_RSAPrivateKey
                0x00000000401a1e62                i2d_RSAPrivateKey
                0x00000000401a1e75                d2i_RSAPublicKey
                0x00000000401a1e88                i2d_RSAPublicKey
                0x00000000401a1e9b                RSAPublicKey_dup
                0x00000000401a1eb1                RSAPrivateKey_dup
                0x00000000401a1ec7                RSA_generate_key
                0x00000000401a1f87                ERR_load_RSA_strings
                0x00000000401a1fc0                RSA_generate_key_ex
                0x00000000401a2530                RSA_set_default_method
                0x00000000401a2538                RSA_get_default_method
                0x00000000401a2566                RSA_get_method
                0x00000000401a256b                RSA_set_method
                0x00000000401a25a4                RSA_new_method
                0x00000000401a26fc                RSA_new
                0x00000000401a270f                RSA_free
                0x00000000401a2812                RSA_up_ref
                0x00000000401a2842                RSA_get_ex_new_index
                0x00000000401a2864                RSA_set_ex_data
                0x00000000401a2876                RSA_get_ex_data
                0x00000000401a2888                RSA_size
                0x00000000401a28a6                RSA_public_encrypt
                0x00000000401a28b6                RSA_private_encrypt
                0x00000000401a28c6                RSA_private_decrypt
                0x00000000401a28d6                RSA_public_decrypt
                0x00000000401a28e6                RSA_flags
                0x00000000401a28f9                RSA_blinding_off
                0x00000000401a2926                RSA_setup_blinding
                0x00000000401a2bc6                RSA_blinding_on
                0x00000000401a2c16                RSA_memory_lock
                0x00000000401a2d60                RSA_sign
                0x00000000401a2fa7                int_rsa_verify
                0x00000000401a3330                RSA_verify
                0x00000000401a3370                DES_set_odd_parity
                0x00000000401a338f                DES_check_key_parity
                0x00000000401a33d0                DES_is_weak_key
                0x00000000401a3413                DES_set_key_unchecked
                0x00000000401a36af                DES_set_key_checked
                0x00000000401a36ee                DES_set_key
                0x00000000401a3711                DES_key_sched
                0x00000000401a371f                SHA1
                0x00000000401a4950                SHA1_Update
                0x00000000401a4a5c                SHA1_Transform
                0x00000000401a4a68                SHA1_Final
                0x00000000401a4b31                SHA1_Init
                0x00000000401a6233                SHA224_Init
                0x00000000401a628b                SHA256_Init
                0x00000000401a62e3                SHA256_Update
                0x00000000401a63ef                SHA224_Update
                0x00000000401a63fd                SHA256_Transform
                0x00000000401a6409                SHA256_Final
                0x00000000401a6535                SHA224
                0x00000000401a658c                SHA256
                0x00000000401a65e3                SHA224_Final
                0x00000000401a7c96                SHA384_Init
                0x00000000401a7d2f                SHA512_Init
                0x00000000401a7dc8                SHA512_Final
                0x00000000401a7ffd                SHA384_Final
                0x00000000401a800b                SHA512_Update
                0x00000000401a80f2                SHA384_Update
                0x00000000401a8100                SHA512_Transform
                0x00000000401a810c                SHA384
                0x00000000401a8171                SHA512
                0x00000000401a926b                SHA_Update
                0x00000000401a9377                SHA_Transform
                0x00000000401a9383                SHA_Final
                0x00000000401a944c                SHA_Init
                0x00000000401a9490                sk_set_cmp_func
                0x00000000401a94a5                sk_new
                0x00000000401a9538                sk_new_null
                0x00000000401a954b                sk_insert
                0x00000000401a95ed                sk_delete
                0x00000000401a9645                sk_delete_ptr
                0x00000000401a968c                sk_push
                0x00000000401a969c                sk_unshift
                0x00000000401a96af                sk_shift
                0x00000000401a96d1                sk_pop
                0x00000000401a96f2                sk_zero
                0x00000000401a971a                sk_free
                0x00000000401a973b                sk_dup
                0x00000000401a97c8                sk_pop_free
                0x00000000401a9809                sk_num
                0x00000000401a9817                sk_value
                0x00000000401a9841                sk_set
                0x00000000401a986e                sk_sort
                0x00000000401a9946                sk_find
                0x00000000401a9959                sk_find_ex
                0x00000000401a996c                sk_is_sorted
                0x00000000401a9e6b                ASN1_tag2bit
                0x00000000401a9e82                asn1_ex_c2i
                0x00000000401aa6d8                ASN1_item_ex_d2i
                0x00000000401ab0e7                ASN1_item_d2i
                0x00000000401ab692                ASN1_template_d2i
                0x00000000401ab6e4                asn1_ex_i2c
                0x00000000401ab9de                ASN1_item_ex_i2d
                0x00000000401abe31                ASN1_item_ndef_i2d
                0x00000000401abe44                ASN1_item_i2d
                0x00000000401ac322                ASN1_template_i2d
                0x00000000401ac340                ASN1_primitive_free
                0x00000000401ac64c                ASN1_item_free
                0x00000000401ac669                ASN1_item_ex_free
                0x00000000401ac67c                ASN1_template_free
                0x00000000401ac7c3                ASN1_primitive_new
                0x00000000401acbdf                ASN1_item_ex_new
                0x00000000401acbf2                ASN1_item_new
                0x00000000401acc21                ASN1_template_new
                0x00000000401accb8                d2i_ASN1_INTEGER
                0x00000000401acccb                i2d_ASN1_INTEGER
                0x00000000401accde                ASN1_INTEGER_new
                0x00000000401accf1                ASN1_INTEGER_free
                0x00000000401acd04                d2i_ASN1_ENUMERATED
                0x00000000401acd17                i2d_ASN1_ENUMERATED
                0x00000000401acd2a                ASN1_ENUMERATED_new
                0x00000000401acd3d                ASN1_ENUMERATED_free
                0x00000000401acd50                d2i_ASN1_BIT_STRING
                0x00000000401acd63                i2d_ASN1_BIT_STRING
                0x00000000401acd76                ASN1_BIT_STRING_new
                0x00000000401acd89                ASN1_BIT_STRING_free
                0x00000000401acd9c                d2i_ASN1_OCTET_STRING
                0x00000000401acdaf                i2d_ASN1_OCTET_STRING
                0x00000000401acdc2                ASN1_OCTET_STRING_new
                0x00000000401acdd5                ASN1_OCTET_STRING_free
                0x00000000401acde8                d2i_ASN1_NULL
                0x00000000401acdfb                i2d_ASN1_NULL
                0x00000000401ace0e                ASN1_NULL_new
                0x00000000401ace21                ASN1_NULL_free
                0x00000000401ace34                d2i_ASN1_UTF8STRING
                0x00000000401ace47                i2d_ASN1_UTF8STRING
                0x00000000401ace5a                ASN1_UTF8STRING_new
                0x00000000401ace6d                ASN1_UTF8STRING_free
                0x00000000401ace80                d2i_ASN1_PRINTABLESTRING
                0x00000000401ace93                i2d_ASN1_PRINTABLESTRING
                0x00000000401acea6                ASN1_PRINTABLESTRING_new
                0x00000000401aceb9                ASN1_PRINTABLESTRING_free
                0x00000000401acecc                d2i_ASN1_T61STRING
                0x00000000401acedf                i2d_ASN1_T61STRING
                0x00000000401acef2                ASN1_T61STRING_new
                0x00000000401acf05                ASN1_T61STRING_free
                0x00000000401acf18                d2i_ASN1_IA5STRING
                0x00000000401acf2b                i2d_ASN1_IA5STRING
                0x00000000401acf3e                ASN1_IA5STRING_new
                0x00000000401acf51                ASN1_IA5STRING_free
                0x00000000401acf64                d2i_ASN1_GENERALSTRING
                0x00000000401acf77                i2d_ASN1_GENERALSTRING
                0x00000000401acf8a                ASN1_GENERALSTRING_new
                0x00000000401acf9d                ASN1_GENERALSTRING_free
                0x00000000401acfb0                d2i_ASN1_UTCTIME
                0x00000000401acfc3                i2d_ASN1_UTCTIME
                0x00000000401acfd6                ASN1_UTCTIME_new
                0x00000000401acfe9                ASN1_UTCTIME_free
                0x00000000401acffc                d2i_ASN1_GENERALIZEDTIME
                0x00000000401ad00f                i2d_ASN1_GENERALIZEDTIME
                0x00000000401ad022                ASN1_GENERALIZEDTIME_new
                0x00000000401ad035                ASN1_GENERALIZEDTIME_free
                0x00000000401ad048                d2i_ASN1_VISIBLESTRING
                0x00000000401ad05b                i2d_ASN1_VISIBLESTRING
                0x00000000401ad06e                ASN1_VISIBLESTRING_new
                0x00000000401ad081                ASN1_VISIBLESTRING_free
                0x00000000401ad094                d2i_ASN1_UNIVERSALSTRING
                0x00000000401ad0a7                i2d_ASN1_UNIVERSALSTRING
                0x00000000401ad0ba                ASN1_UNIVERSALSTRING_new
                0x00000000401ad0cd                ASN1_UNIVERSALSTRING_free
                0x00000000401ad0e0                d2i_ASN1_BMPSTRING
                0x00000000401ad0f3                i2d_ASN1_BMPSTRING
                0x00000000401ad106                ASN1_BMPSTRING_new
                0x00000000401ad119                ASN1_BMPSTRING_free
                0x00000000401ad12c                d2i_ASN1_TYPE
                0x00000000401ad13f                i2d_ASN1_TYPE
                0x00000000401ad152                ASN1_TYPE_new
                0x00000000401ad165                ASN1_TYPE_free
                0x00000000401ad178                d2i_ASN1_PRINTABLE
                0x00000000401ad18b                i2d_ASN1_PRINTABLE
                0x00000000401ad19e                ASN1_PRINTABLE_new
                0x00000000401ad1b1                ASN1_PRINTABLE_free
                0x00000000401ad1c4                d2i_DISPLAYTEXT
                0x00000000401ad1d7                i2d_DISPLAYTEXT
                0x00000000401ad1ea                DISPLAYTEXT_new
                0x00000000401ad1fd                DISPLAYTEXT_free
                0x00000000401ad210                d2i_DIRECTORYSTRING
                0x00000000401ad223                i2d_DIRECTORYSTRING
                0x00000000401ad236                DIRECTORYSTRING_new
                0x00000000401ad249                DIRECTORYSTRING_free
                0x00000000401ad25c                d2i_ASN1_SEQUENCE_ANY
                0x00000000401ad26f                i2d_ASN1_SEQUENCE_ANY
                0x00000000401ad282                d2i_ASN1_SET_ANY
                0x00000000401ad295                i2d_ASN1_SET_ANY
                0x00000000401ad2ec                asn1_get_choice_selector
                0x00000000401ad2f7                asn1_set_choice_selector
                0x00000000401ad306                asn1_do_lock
                0x00000000401ad368                asn1_enc_init
                0x00000000401ad38a                asn1_enc_free
                0x00000000401ad3bd                asn1_enc_save
                0x00000000401ad42d                asn1_enc_restore
                0x00000000401ad496                asn1_get_field_ptr
                0x00000000401ad4ab                asn1_do_adb
                0x00000000401ad567                ERR_load_UI_strings
                0x00000000401ad59f                ERR_load_X509V3_strings
                0x00000000401ad5e0                X509_issuer_and_serial_hash
                0x00000000401ad6b2                X509_CRL_match
                0x00000000401ad6cd                X509_get_issuer_name
                0x00000000401ad6d5                X509_get_subject_name
                0x00000000401ad6dd                X509_get_serialNumber
                0x00000000401ad6e5                X509_cmp
                0x00000000401ad731                X509_NAME_cmp
                0x00000000401ad7a9                X509_issuer_and_serial_cmp
                0x00000000401ad7dc                X509_issuer_name_cmp
                0x00000000401ad7f8                X509_subject_name_cmp
                0x00000000401ad814                X509_CRL_cmp
                0x00000000401ad830                X509_NAME_hash
                0x00000000401ad896                X509_issuer_name_hash
                0x00000000401ad8ab                X509_subject_name_hash
                0x00000000401ad8c0                X509_NAME_hash_old
                0x00000000401ad926                X509_issuer_name_hash_old
                0x00000000401ad93b                X509_subject_name_hash_old
                0x00000000401ad950                X509_find_by_issuer_and_serial
                0x00000000401ad9ce                X509_find_by_subject
                0x00000000401ada29                X509_get_pubkey
                0x00000000401ada56                X509_get0_pubkey_bitstr
                0x00000000401ada6d                X509_check_private_key
                0x00000000401adb24                ERR_load_X509_strings
                0x00000000401adb5c                X509_NAME_oneline
                0x00000000401ae2ba                X509_time_adj_ex
                0x00000000401ae30e                X509_time_adj
                0x00000000401ae327                X509_cmp_time
                0x00000000401ae7da                X509_cmp_current_time
                0x00000000401af3a0                X509_gmtime_adj
                0x00000000401af3b3                X509_get_pubkey_parameters
                0x00000000401af4d3                X509_verify_cert
                0x00000000401afe5b                X509_STORE_CTX_get_ex_new_index
                0x00000000401afe7d                X509_STORE_CTX_set_ex_data
                0x00000000401afe92                X509_STORE_CTX_get_ex_data
                0x00000000401afea7                X509_STORE_CTX_get_error
                0x00000000401afeae                X509_STORE_CTX_set_error
                0x00000000401afeb5                X509_STORE_CTX_get_error_depth
                0x00000000401afebc                X509_STORE_CTX_get_current_cert
                0x00000000401afec4                X509_STORE_CTX_get_chain
                0x00000000401afecc                X509_STORE_CTX_get1_chain
                0x00000000401aff3e                X509_STORE_CTX_get0_current_issuer
                0x00000000401aff46                X509_STORE_CTX_get0_current_crl
                0x00000000401aff4e                X509_STORE_CTX_get0_parent_ctx
                0x00000000401aff56                X509_STORE_CTX_set_cert
                0x00000000401aff5b                X509_STORE_CTX_set_chain
                0x00000000401aff60                X509_STORE_CTX_set0_crls
                0x00000000401aff65                X509_STORE_CTX_purpose_inherit
                0x00000000401b0076                X509_STORE_CTX_set_purpose
                0x00000000401b0090                X509_STORE_CTX_set_trust
                0x00000000401b00aa                X509_STORE_CTX_new
                0x00000000401b0104                X509_STORE_CTX_init
                0x00000000401b0455                X509_STORE_CTX_trusted_stack
                0x00000000401b0462                X509_STORE_CTX_cleanup
                0x00000000401b0506                X509_STORE_CTX_free
                0x00000000401b0519                X509_STORE_CTX_set_depth
                0x00000000401b052b                X509_STORE_CTX_set_flags
                0x00000000401b053d                X509_STORE_CTX_set_time
                0x00000000401b0551                X509_STORE_CTX_set_verify_cb
                0x00000000401b0556                X509_STORE_CTX_get0_policy_tree
                0x00000000401b055e                X509_STORE_CTX_get_explicit_policy
                0x00000000401b0565                X509_STORE_CTX_set_default
                0x00000000401b0589                X509_STORE_CTX_get0_param
                0x00000000401b058e                X509_STORE_CTX_set0_param
                0x00000000401b08a0                X509_VERIFY_PARAM_free
                0x00000000401b0928                X509_VERIFY_PARAM_new
                0x00000000401b09a3                X509_VERIFY_PARAM_set1_name
                0x00000000401b09d7                X509_VERIFY_PARAM_set_flags
                0x00000000401b09f8                X509_VERIFY_PARAM_clear_flags
                0x00000000401b0a05                X509_VERIFY_PARAM_get_flags
                0x00000000401b0a0a                X509_VERIFY_PARAM_set_purpose
                0x00000000401b0a1c                X509_VERIFY_PARAM_set_trust
                0x00000000401b0a2e                X509_VERIFY_PARAM_set_depth
                0x00000000401b0a32                X509_VERIFY_PARAM_set_time
                0x00000000401b0a3b                X509_VERIFY_PARAM_add0_policy
                0x00000000401b0a7e                X509_VERIFY_PARAM_set1_policies
                0x00000000401b0b4d                X509_VERIFY_PARAM_inherit
                0x00000000401b0c9e                X509_VERIFY_PARAM_set1
                0x00000000401b0cc6                X509_VERIFY_PARAM_get_depth
                0x00000000401b0cca                X509_VERIFY_PARAM_add0_table
                0x00000000401b0d4f                X509_VERIFY_PARAM_lookup
                0x00000000401b0da7                X509_VERIFY_PARAM_table_cleanup
                0x00000000401b0ddd                d2i_X509_ALGOR
                0x00000000401b0df0                i2d_X509_ALGOR
                0x00000000401b0e03                X509_ALGOR_new
                0x00000000401b0e16                X509_ALGOR_free
                0x00000000401b0e29                d2i_X509_ALGORS
                0x00000000401b0e3c                i2d_X509_ALGORS
                0x00000000401b0e4f                X509_ALGOR_dup
                0x00000000401b0e65                X509_ALGOR_set0
                0x00000000401b0f06                X509_ALGOR_get0
                0x00000000401b0f3c                X509_verify
                0x00000000401b0f5d                X509_REQ_verify
                0x00000000401b0f7e                NETSCAPE_SPKI_verify
                0x00000000401b0f9f                X509_sign
                0x00000000401b0fd5                X509_REQ_sign
                0x00000000401b0fff                X509_CRL_sign
                0x00000000401b1035                NETSCAPE_SPKI_sign
                0x00000000401b105f                d2i_X509_bio
                0x00000000401b1078                i2d_X509_bio
                0x00000000401b1091                d2i_X509_CRL_bio
                0x00000000401b10aa                i2d_X509_CRL_bio
                0x00000000401b10c3                d2i_PKCS7_bio
                0x00000000401b10dc                i2d_PKCS7_bio
                0x00000000401b10f5                d2i_X509_REQ_bio
                0x00000000401b110e                i2d_X509_REQ_bio
                0x00000000401b1127                d2i_RSAPrivateKey_bio
                0x00000000401b1140                i2d_RSAPrivateKey_bio
                0x00000000401b1159                d2i_RSAPublicKey_bio
                0x00000000401b1172                d2i_RSA_PUBKEY_bio
                0x00000000401b1190                i2d_RSAPublicKey_bio
                0x00000000401b11a9                i2d_RSA_PUBKEY_bio
                0x00000000401b11c2                d2i_DSAPrivateKey_bio
                0x00000000401b11e0                i2d_DSAPrivateKey_bio
                0x00000000401b11f9                d2i_DSA_PUBKEY_bio
                0x00000000401b1217                i2d_DSA_PUBKEY_bio
                0x00000000401b1230                d2i_EC_PUBKEY_bio
                0x00000000401b124e                i2d_EC_PUBKEY_bio
                0x00000000401b1267                d2i_ECPrivateKey_bio
                0x00000000401b1285                i2d_ECPrivateKey_bio
                0x00000000401b129e                X509_pubkey_digest
                0x00000000401b12dd                X509_digest
                0x00000000401b12f9                X509_CRL_digest
                0x00000000401b1315                X509_REQ_digest
                0x00000000401b1331                X509_NAME_digest
                0x00000000401b134d                PKCS7_ISSUER_AND_SERIAL_digest
                0x00000000401b1369                d2i_PKCS8_bio
                0x00000000401b1387                i2d_PKCS8_bio
                0x00000000401b13a0                d2i_PKCS8_PRIV_KEY_INFO_bio
                0x00000000401b13be                i2d_PKCS8_PRIV_KEY_INFO_bio
                0x00000000401b13d7                i2d_PKCS8PrivateKeyInfo_bio
                0x00000000401b1413                i2d_PrivateKey_bio
                0x00000000401b142c                d2i_PrivateKey_bio
                0x00000000401b144a                i2d_PUBKEY_bio
                0x00000000401b1463                d2i_PUBKEY_bio
                0x00000000401b1481                d2i_X509_ATTRIBUTE
                0x00000000401b1494                i2d_X509_ATTRIBUTE
                0x00000000401b14a7                X509_ATTRIBUTE_new
                0x00000000401b14ba                X509_ATTRIBUTE_free
                0x00000000401b14cd                X509_ATTRIBUTE_dup
                0x00000000401b14e3                X509_ATTRIBUTE_create
                0x00000000401b1c61                d2i_X509_REVOKED
                0x00000000401b1c74                i2d_X509_REVOKED
                0x00000000401b1c87                X509_REVOKED_new
                0x00000000401b1c9a                X509_REVOKED_free
                0x00000000401b1cad                d2i_X509_CRL_INFO
                0x00000000401b1cc0                i2d_X509_CRL_INFO
                0x00000000401b1cd3                X509_CRL_INFO_new
                0x00000000401b1ce6                X509_CRL_INFO_free
                0x00000000401b1cf9                d2i_X509_CRL
                0x00000000401b1d0c                i2d_X509_CRL
                0x00000000401b1d1f                X509_CRL_new
                0x00000000401b1d32                X509_CRL_free
                0x00000000401b1d45                X509_CRL_dup
                0x00000000401b1d5b                X509_CRL_add0_revoked
                0x00000000401b1dcb                X509_CRL_verify
                0x00000000401b1de9                X509_CRL_get0_by_serial
                0x00000000401b1e0d                X509_CRL_get0_by_cert
                0x00000000401b1e5a                X509_CRL_set_default_method
                0x00000000401b1e6e                X509_CRL_METHOD_new
                0x00000000401b1ebe                X509_CRL_METHOD_free
                0x00000000401b1ed2                X509_CRL_set_meth_data
                0x00000000401b1ed7                X509_CRL_get_meth_data
                0x00000000401b1edc                d2i_X509_EXTENSION
                0x00000000401b1eef                i2d_X509_EXTENSION
                0x00000000401b1f02                X509_EXTENSION_new
                0x00000000401b1f15                X509_EXTENSION_free
                0x00000000401b1f28                d2i_X509_EXTENSIONS
                0x00000000401b1f3b                i2d_X509_EXTENSIONS
                0x00000000401b1f4e                X509_EXTENSION_dup
                0x00000000401b2120                X509_NAME_ENTRY_free
                0x00000000401b22f8                d2i_X509_NAME_ENTRY
                0x00000000401b230b                i2d_X509_NAME_ENTRY
                0x00000000401b231e                X509_NAME_ENTRY_new
                0x00000000401b2804                X509_NAME_ENTRY_dup
                0x00000000401b281a                d2i_X509_NAME
                0x00000000401b282d                i2d_X509_NAME
                0x00000000401b2840                X509_NAME_new
                0x00000000401b2853                X509_NAME_free
                0x00000000401b2a04                X509_NAME_dup
                0x00000000401b2a1a                X509_NAME_set
                0x00000000401b2a95                d2i_X509_PUBKEY
                0x00000000401b2aa8                i2d_X509_PUBKEY
                0x00000000401b2abb                X509_PUBKEY_new
                0x00000000401b2ace                X509_PUBKEY_free
                0x00000000401b2ae1                X509_PUBKEY_set
                0x00000000401b2bbe                X509_PUBKEY_get
                0x00000000401b2d79                d2i_PUBKEY
                0x00000000401b2dd5                i2d_PUBKEY
                0x00000000401b2e22                d2i_RSA_PUBKEY
                0x00000000401b2ea3                i2d_RSA_PUBKEY
                0x00000000401b2f11                d2i_DSA_PUBKEY
                0x00000000401b2f92                i2d_DSA_PUBKEY
                0x00000000401b3000                d2i_EC_PUBKEY
                0x00000000401b3081                i2d_EC_PUBKEY
                0x00000000401b30ef                X509_PUBKEY_set0_param
                0x00000000401b3151                X509_PUBKEY_get0_param
                0x00000000401b31aa                d2i_X509_REQ_INFO
                0x00000000401b31bd                i2d_X509_REQ_INFO
                0x00000000401b31d0                X509_REQ_INFO_new
                0x00000000401b31e3                X509_REQ_INFO_free
                0x00000000401b31f6                d2i_X509_REQ
                0x00000000401b3209                i2d_X509_REQ
                0x00000000401b321c                X509_REQ_new
                0x00000000401b322f                X509_REQ_free
                0x00000000401b3242                X509_REQ_dup
                0x00000000401b3258                d2i_X509_SIG
                0x00000000401b326b                i2d_X509_SIG
                0x00000000401b327e                X509_SIG_new
                0x00000000401b3291                X509_SIG_free
                0x00000000401b32a4                d2i_NETSCAPE_SPKAC
                0x00000000401b32b7                i2d_NETSCAPE_SPKAC
                0x00000000401b32ca                NETSCAPE_SPKAC_new
                0x00000000401b32dd                NETSCAPE_SPKAC_free
                0x00000000401b32f0                d2i_NETSCAPE_SPKI
                0x00000000401b3303                i2d_NETSCAPE_SPKI
                0x00000000401b3316                NETSCAPE_SPKI_new
                0x00000000401b3329                NETSCAPE_SPKI_free
                0x00000000401b344b                d2i_X509_CINF
                0x00000000401b345e                i2d_X509_CINF
                0x00000000401b3471                X509_CINF_new
                0x00000000401b3484                X509_CINF_free
                0x00000000401b3497                d2i_X509
                0x00000000401b34aa                i2d_X509
                0x00000000401b34bd                X509_new
                0x00000000401b34d0                X509_free
                0x00000000401b34e3                X509_dup
                0x00000000401b34f9                X509_get_ex_new_index
                0x00000000401b351b                X509_set_ex_data
                0x00000000401b352d                X509_get_ex_data
                0x00000000401b353f                d2i_X509_AUX
                0x00000000401b35a3                i2d_X509_AUX
                0x00000000401b35d1                d2i_X509_CERT_AUX
                0x00000000401b35e4                i2d_X509_CERT_AUX
                0x00000000401b35f7                X509_CERT_AUX_new
                0x00000000401b363e                X509_CERT_AUX_free
                0x00000000401b3651                X509_alias_set1
                0x00000000401b36ef                X509_keyid_set1
                0x00000000401b378d                X509_alias_get0
                0x00000000401b37c7                X509_keyid_get0
                0x00000000401b3801                X509_add1_trust_object
                0x00000000401b3862                X509_add1_reject_object
                0x00000000401b38c6                X509_trust_clear
                0x00000000401b38f8                X509_reject_clear
                0x00000000401b392c                d2i_X509_CERT_PAIR
                0x00000000401b393f                i2d_X509_CERT_PAIR
                0x00000000401b3952                X509_CERT_PAIR_new
                0x00000000401b3965                X509_CERT_PAIR_free
                0x00000000401b3978                DES_xcbc_encrypt
                0x00000000401b40d7                ERR_load_TS_strings
                0x00000000401b410f                ERR_load_CMS_strings
                0x00000000401b418f                OBJ_find_sigid_algs
                0x00000000401b420e                OBJ_find_sigid_by_algs
                0x00000000401b4299                OBJ_add_sigid
                0x00000000401b4388                OBJ_sigid_free
                0x00000000401b440a                EVP_whirlpool
                0x00000000401b4426                EVP_PKEY_meth_find
                0x00000000401b4499                EVP_PKEY_meth_new
                0x00000000401b45b5                EVP_PKEY_meth_free
                0x00000000401b45cf                EVP_PKEY_meth_add0
                0x00000000401b4620                EVP_PKEY_CTX_free
                0x00000000401b479a                EVP_PKEY_CTX_new
                0x00000000401b47ad                EVP_PKEY_CTX_new_id
                0x00000000401b47c2                EVP_PKEY_CTX_dup
                0x00000000401b48bb                EVP_PKEY_CTX_ctrl
                0x00000000401b49ae                EVP_PKEY_CTX_ctrl_str
                0x00000000401b4a89                EVP_PKEY_CTX_get_operation
                0x00000000401b4a8d                EVP_PKEY_CTX_set0_keygen_info
                0x00000000401b4a95                EVP_PKEY_CTX_set_data
                0x00000000401b4a9a                EVP_PKEY_CTX_get_data
                0x00000000401b4a9f                EVP_PKEY_CTX_get0_pkey
                0x00000000401b4aa4                EVP_PKEY_CTX_get0_peerkey
                0x00000000401b4aa9                EVP_PKEY_CTX_set_app_data
                0x00000000401b4aae                EVP_PKEY_CTX_get_app_data
                0x00000000401b4ab3                EVP_PKEY_meth_set_init
                0x00000000401b4ab8                EVP_PKEY_meth_set_copy
                0x00000000401b4abd                EVP_PKEY_meth_set_cleanup
                0x00000000401b4ac2                EVP_PKEY_meth_set_paramgen
                0x00000000401b4acb                EVP_PKEY_meth_set_keygen
                0x00000000401b4ad4                EVP_PKEY_meth_set_sign
                0x00000000401b4add                EVP_PKEY_meth_set_verify
                0x00000000401b4ae6                EVP_PKEY_meth_set_verify_recover
                0x00000000401b4aef                EVP_PKEY_meth_set_signctx
                0x00000000401b4af8                EVP_PKEY_meth_set_verifyctx
                0x00000000401b4b07                EVP_PKEY_meth_set_encrypt
                0x00000000401b4b16                EVP_PKEY_meth_set_decrypt
                0x00000000401b4b25                EVP_PKEY_meth_set_derive
                0x00000000401b4b34                EVP_PKEY_meth_set_ctrl
                0x00000000401b4b66                EVP_PKEY_asn1_get_count
                0x00000000401b4b89                EVP_PKEY_asn1_get0
                0x00000000401b4bc1                EVP_PKEY_asn1_find
                0x00000000401b4c57                EVP_PKEY_asn1_find_str
                0x00000000401b4cdf                EVP_PKEY_asn1_add0
                0x00000000401b4d30                EVP_PKEY_asn1_get0_info
                0x00000000401b4d7f                EVP_PKEY_get0_asn1
                0x00000000401b4d84                EVP_PKEY_asn1_copy
                0x00000000401b4e47                EVP_PKEY_asn1_free
                0x00000000401b4e7c                EVP_PKEY_asn1_new
                0x00000000401b4fd4                EVP_PKEY_asn1_add_alias
                0x00000000401b5004                EVP_PKEY_asn1_set_public
                0x00000000401b5022                EVP_PKEY_asn1_set_private
                0x00000000401b502f                EVP_PKEY_asn1_set_param
                0x00000000401b5056                EVP_PKEY_asn1_set_free
                0x00000000401b505e                EVP_PKEY_asn1_set_ctrl
                0x00000000401b5070                EVP_PKEY_sign_init
                0x00000000401b50d6                EVP_PKEY_sign
                0x00000000401b51c1                EVP_PKEY_verify_init
                0x00000000401b5227                EVP_PKEY_verify
                0x00000000401b529a                EVP_PKEY_verify_recover_init
                0x00000000401b5300                EVP_PKEY_verify_recover
                0x00000000401b53eb                EVP_PKEY_encrypt_init
                0x00000000401b5457                EVP_PKEY_encrypt
                0x00000000401b554b                EVP_PKEY_decrypt_init
                0x00000000401b55b7                EVP_PKEY_decrypt
                0x00000000401b56ab                EVP_PKEY_derive_init
                0x00000000401b5717                EVP_PKEY_derive_set_peer
                0x00000000401b58f6                EVP_PKEY_derive
                0x00000000401b5b1f                ASN1_PCTX_new
                0x00000000401b5b8e                ASN1_PCTX_free
                0x00000000401b5b9c                ASN1_PCTX_get_flags
                0x00000000401b5ba0                ASN1_PCTX_set_flags
                0x00000000401b5ba4                ASN1_PCTX_get_nm_flags
                0x00000000401b5ba9                ASN1_PCTX_set_nm_flags
                0x00000000401b5bae                ASN1_PCTX_get_cert_flags
                0x00000000401b5bb3                ASN1_PCTX_set_cert_flags
                0x00000000401b5bb8                ASN1_PCTX_get_oid_flags
                0x00000000401b5bbd                ASN1_PCTX_set_oid_flags
                0x00000000401b5bc2                ASN1_PCTX_get_str_flags
                0x00000000401b5bc7                ASN1_PCTX_set_str_flags
                0x00000000401b5bcc                asn1_template_print_ctx
                0x00000000401b649d                ASN1_item_print
                0x00000000401b6677                EVP_DigestSignInit
                0x00000000401b668b                EVP_DigestVerifyInit
                0x00000000401b669f                EVP_DigestSignFinal
                0x00000000401b67c9                EVP_DigestVerifyFinal
                0x00000000401b6890                WHIRLPOOL_Init
                0x00000000401b68ad                WHIRLPOOL_BitUpdate
                0x00000000401b6ba7                WHIRLPOOL_Update
                0x00000000401b6c6f                WHIRLPOOL_Final
                0x00000000401b6d7b                WHIRLPOOL
                0x00000000401b9e0c                DHparams_print
                0x00000000401bbc26                whirlpool_block
                0x00000000401bc8c7                EVP_PKEY_paramgen_init
                0x00000000401bc92d                EVP_PKEY_paramgen
                0x00000000401bc9e7                EVP_PKEY_keygen_init
                0x00000000401bca4d                EVP_PKEY_keygen
                0x00000000401bcb07                EVP_PKEY_CTX_set_cb
                0x00000000401bcb0c                EVP_PKEY_CTX_get_cb
                0x00000000401bcb11                evp_pkey_set_cb_translate
                0x00000000401bcb24                EVP_PKEY_CTX_get_keygen_info
                0x00000000401bcb4d                EVP_PKEY_new_mac_key
                0x00000000401bccad                CMS_SignedData_init
                0x00000000401bccc4                cms_set1_SignerIdentifier
                0x00000000401bcdc5                cms_SignerIdentifier_get0_signer_id
                0x00000000401bce0f                cms_SignerIdentifier_cert_cmp
                0x00000000401bce8e                CMS_get0_SignerInfos
                0x00000000401bceac                CMS_get0_signers
                0x00000000401bcf34                CMS_SignerInfo_set1_signer_cert
                0x00000000401bcf96                CMS_SignerInfo_get0_signer_id
                0x00000000401bcfa1                CMS_SignerInfo_cert_cmp
                0x00000000401bcfb3                CMS_set1_signers_certs
                0x00000000401bd0dd                CMS_SignerInfo_get0_algs
                0x00000000401bd10f                CMS_SignerInfo_sign
                0x00000000401bd37d                cms_SignedData_final
                0x00000000401bd57e                CMS_SignerInfo_verify
                0x00000000401bd6a4                cms_SignedData_init_bio
                0x00000000401bd84a                CMS_SignerInfo_verify_content
                0x00000000401bda11                CMS_add_smimecap
                0x00000000401bda67                CMS_add_simple_smimecap
                0x00000000401bdb8a                CMS_add_standard_smimecap
                0x00000000401bdc94                CMS_add1_signer
                0x00000000401be1dd                CMS_get0_RecipientInfos
                0x00000000401be1fb                CMS_RecipientInfo_type
                0x00000000401be1fe                CMS_EnvelopedData_create
                0x00000000401be2ed                CMS_add1_recipient_cert
                0x00000000401be4df                CMS_RecipientInfo_ktri_get0_algs
                0x00000000401be547                CMS_RecipientInfo_ktri_get0_signer_id
                0x00000000401be588                CMS_RecipientInfo_ktri_cert_cmp
                0x00000000401be5c9                CMS_RecipientInfo_set0_pkey
                0x00000000401be60b                CMS_RecipientInfo_kekri_id_cmp
                0x00000000401be66e                CMS_add0_recipient_key
                0x00000000401be8e5                CMS_RecipientInfo_kekri_get0_id
                0x00000000401be98f                CMS_RecipientInfo_set0_key
                0x00000000401be9d5                CMS_RecipientInfo_decrypt
                0x00000000401beda6                cms_EnvelopedData_init_bio
                0x00000000401bf1c0                EC_KEY_print
                0x00000000401bf21e                ECParameters_print
                0x00000000401bf26f                ECPKParameters_print
                0x00000000401bfc8f                CMS_signed_get_attr_count
                0x00000000401bfca1                CMS_signed_get_attr_by_NID
                0x00000000401bfcb3                CMS_signed_get_attr_by_OBJ
                0x00000000401bfcc5                CMS_signed_get_attr
                0x00000000401bfcd7                CMS_signed_delete_attr
                0x00000000401bfce9                CMS_signed_add1_attr
                0x00000000401bfd04                CMS_signed_add1_attr_by_OBJ
                0x00000000401bfd1f                CMS_signed_add1_attr_by_NID
                0x00000000401bfd3a                CMS_signed_add1_attr_by_txt
                0x00000000401bfd55                CMS_signed_get0_data_by_OBJ
                0x00000000401bfd67                CMS_unsigned_get_attr_count
                0x00000000401bfd79                CMS_unsigned_get_attr_by_NID
                0x00000000401bfd8b                CMS_unsigned_get_attr_by_OBJ
                0x00000000401bfd9d                CMS_unsigned_get_attr
                0x00000000401bfdaf                CMS_unsigned_delete_attr
                0x00000000401bfdc1                CMS_unsigned_add1_attr
                0x00000000401bfddc                CMS_unsigned_add1_attr_by_OBJ
                0x00000000401bfdf7                CMS_unsigned_add1_attr_by_NID
                0x00000000401bfe12                CMS_unsigned_add1_attr_by_txt
                0x00000000401bfe2d                CMS_unsigned_get0_data_by_OBJ
                0x00000000401bff83                d2i_CMS_ContentInfo
                0x00000000401bff96                i2d_CMS_ContentInfo
                0x00000000401bffa9                CMS_ContentInfo_new
                0x00000000401bffbc                CMS_ContentInfo_free
                0x00000000401bffcf                CMS_ContentInfo_print_ctx
                0x00000000401bffe5                CMS_get0_type
                0x00000000401bffe9                CMS_get0_content
                0x00000000401c00b7                cms_content_bio
                0x00000000401c0109                CMS_dataInit
                0x00000000401c01ef                CMS_dataFinal
                0x00000000401c0350                CMS_get0_eContentType
                0x00000000401c036d                CMS_set1_eContentType
                0x00000000401c03c0                CMS_is_detached
                0x00000000401c03e4                CMS_set_detached
                0x00000000401c0470                cms_Data_create
                0x00000000401c049d                cms_DigestAlgorithm_set
                0x00000000401c04e1                cms_DigestAlgorithm_init_bio
                0x00000000401c05d5                cms_DigestAlgorithm_find_ctx
                0x00000000401c06ac                CMS_add0_CertificateChoices
                0x00000000401c0725                CMS_add0_cert
                0x00000000401c07d4                CMS_add1_cert
                0x00000000401c080f                CMS_add0_RevocationInfoChoice
                0x00000000401c0888                CMS_add0_crl
                0x00000000401c08ae                CMS_add1_crl
                0x00000000401c08e9                CMS_get1_certs
                0x00000000401c09a8                CMS_get1_crls
                0x00000000401c0b8b                cms_EncryptedContent_init_bio
                0x00000000401c104a                cms_EncryptedContent_init
                0x00000000401c10c0                CMS_EncryptedData_set1_key
                0x00000000401c11b5                cms_EncryptedData_init_bio
                0x00000000401c11e0                AES_wrap_key
                0x00000000401c130f                AES_unwrap_key
                0x00000000401c1471                cms_DigestedData_create
                0x00000000401c14f8                cms_DigestedData_init_bio
                0x00000000401c150e                cms_DigestedData_do_final
                0x00000000401c1609                CMS_stream
                0x00000000401c1688                d2i_CMS_bio
                0x00000000401c16a1                i2d_CMS_bio
                0x00000000401c16ba                PEM_read_bio_CMS
                0x00000000401c16de                PEM_write_bio_CMS
                0x00000000401c1721                BIO_new_CMS
                0x00000000401c1734                i2d_CMS_bio_stream
                0x00000000401c1748                PEM_write_bio_CMS_stream
                0x00000000401c1762                SMIME_write_CMS
                0x00000000401c17d7                SMIME_read_CMS
                0x00000000401c2072                SMIME_read_ASN1
                0x00000000401c2498                SMIME_crlf_copy
                0x00000000401c25d4                i2d_ASN1_bio_stream
                0x00000000401c273d                PEM_write_bio_ASN1_stream
                0x00000000401c27ad                SMIME_write_ASN1
                0x00000000401c2e30                SMIME_text
                0x00000000401c312f                BIO_new_NDEF
                0x00000000401c3885                BIO_f_asn1
                0x00000000401c388b                BIO_asn1_set_prefix
                0x00000000401c38af                BIO_asn1_get_prefix
                0x00000000401c38e8                BIO_asn1_set_suffix
                0x00000000401c390c                BIO_asn1_get_suffix
                0x00000000401c3950                chelp_snprintf
                0x00000000401c3995                chelp_sprintf
                0x00000000401c39e5                chelp_print
                0x00000000401c3a00                chelp_printf
                0x00000000401c3a90                chelp_mod_64_32_32
                0x00000000401c3aa0                chelp_div_64_32_32
                0x00000000401c3aae                chelp_div_64_32_64
                0x00000000401c3abc                chelp_mul_64_64_64
                0x00000000401c3ac4                BIO_printf
                0x00000000401c3b0a                BIO_snprintf
                0x00000000401c3b48                chelp_abort
                0x00000000401c3b5b                RAND_poll
                0x00000000401c3b7d                InitCryptoLibrary
                0x00000000401c3bf0                chelp_malloc
                0x00000000401c3c0a                chelp_realloc
                0x00000000401c3c31                chelp_free
                0x00000000401c3c45                chelp_swap
                0x00000000401c3c73                chelp_qsort
                0x00000000401c3fad                chelp_bsearch
                0x00000000401c4084                chelp_memchr
                0x00000000401c40c1                chelp_memmove
                0x00000000401c413c                chelp_memcmp
                0x00000000401c41a3                chelp_memcpy
                0x00000000401c41cc                chelp_memset
                0x00000000401c4200                chelp_isupper
                0x00000000401c420e                chelp_islower
                0x00000000401c421c                chelp_toupper
                0x00000000401c4223                chelp_tolower
                0x00000000401c422a                chelp_isspace
                0x00000000401c4242                chelp_isdigit
                0x00000000401c4250                chelp_isxdigit
                0x00000000401c426f                chelp_isalpha
                0x00000000401c4280                chelp_isalnum
                0x00000000401c429c                chelp_strtoul_ex
                0x00000000401c4486                chelp_strtol
                0x00000000401c4492                chelp_strtoul
                0x00000000401c449e                chelp_strcpy
                0x00000000401c44c8                chelp_strncpy
                0x00000000401c4534                chelp_strcat
                0x00000000401c4573                chelp_strcmp
                0x00000000401c45d0                chelp_strncmp
                0x00000000401c4715                chelp_stricmp
                0x00000000401c4750                chelp_strchr
                0x00000000401c4786                chelp_strrchr
                0x00000000401c47b2                chelp_strlen
                0x00000000401c47e1                chelp_strncasecmp
                0x00000000401c4832                decryptcfg
                0x00000000401c48b0                ASN1_BIT_STRING_set
                0x00000000401c48be                i2c_ASN1_BIT_STRING
                0x00000000401c49a5                c2i_ASN1_BIT_STRING
                0x00000000401c4b11                ASN1_BIT_STRING_set_bit
                0x00000000401c4c71                ASN1_BIT_STRING_get_bit
                0x00000000401c4cc1                ASN1_BIT_STRING_check
                0x00000000401c4d20                d2i_ASN1_type_bytes
                0x00000000401c4ecc                i2d_ASN1_bytes
                0x00000000401c4f6e                d2i_ASN1_bytes
                0x00000000401c566c                ASN1_d2i_bio
                0x00000000401c56cd                ASN1_item_d2i_bio
                0x00000000401c5734                ASN1_digest
                0x00000000401c57e7                ASN1_item_digest
                0x00000000401c5857                ASN1_dup
                0x00000000401c5900                ASN1_item_dup
                0x00000000401c598a                ASN1_ENUMERATED_set
                0x00000000401c5aa0                ASN1_ENUMERATED_get
                0x00000000401c5b22                BN_to_ASN1_ENUMERATED
                0x00000000401c5c11                ASN1_ENUMERATED_to_BN
                0x00000000401c5c80                ASN1_GENERALIZEDTIME_check
                0x00000000401c5ee9                ASN1_GENERALIZEDTIME_set_string
                0x00000000401c5f52                ASN1_GENERALIZEDTIME_adj
                0x00000000401c6097                ASN1_GENERALIZEDTIME_set
                0x00000000401c60b0                ASN1_i2d_bio
                0x00000000401c6166                ASN1_item_i2d_bio
                0x00000000401c6210                ASN1_INTEGER_dup
                0x00000000401c621e                ASN1_INTEGER_cmp
                0x00000000401c6251                i2c_ASN1_INTEGER
                0x00000000401c63d3                c2i_ASN1_INTEGER
                0x00000000401c65ab                d2i_ASN1_UINTEGER
                0x00000000401c6727                ASN1_INTEGER_set
                0x00000000401c683d                ASN1_INTEGER_get
                0x00000000401c68c2                BN_to_ASN1_INTEGER
                0x00000000401c69c7                ASN1_INTEGER_to_BN
                0x00000000401c6a30                i2d_ASN1_OBJECT
                0x00000000401c6ac0                a2d_ASN1_OBJECT
                0x00000000401c6fb7                i2t_ASN1_OBJECT
                0x00000000401c6fca                i2a_ASN1_OBJECT
                0x00000000401c708f                ASN1_OBJECT_new
                0x00000000401c7103                ASN1_OBJECT_free
                0x00000000401c716f                c2i_ASN1_OBJECT
                0x00000000401c730f                d2i_ASN1_OBJECT
                0x00000000401c739d                ASN1_OBJECT_create
                0x00000000401c73cf                ASN1_OCTET_STRING_dup
                0x00000000401c73dd                ASN1_OCTET_STRING_cmp
                0x00000000401c73eb                ASN1_OCTET_STRING_set
                0x00000000401c7400                ASN1_sign
                0x00000000401c769c                ASN1_item_sign
                0x00000000401c80a1                X509_NAME_print_ex
                0x00000000401c84dd                ASN1_STRING_print_ex
                0x00000000401c84f6                ASN1_STRING_to_UTF8
                0x00000000401c8580                d2i_ASN1_TIME
                0x00000000401c8593                i2d_ASN1_TIME
                0x00000000401c85a6                ASN1_TIME_new
                0x00000000401c85b9                ASN1_TIME_free
                0x00000000401c85cc                ASN1_TIME_adj
                0x00000000401c867a                ASN1_TIME_set
                0x00000000401c8692                ASN1_TIME_check
                0x00000000401c86b9                ASN1_TIME_to_generalizedtime
                0x00000000401c87c3                ASN1_TIME_set_string
                0x00000000401c8840                ASN1_TYPE_get
                0x00000000401c8855                ASN1_TYPE_set
                0x00000000401c88ac                ASN1_TYPE_set1
                0x00000000401c892b                ASN1_TYPE_cmp
                0x00000000401c8980                ASN1_UTCTIME_check
                0x00000000401c8b92                ASN1_UTCTIME_set_string
                0x00000000401c8bfb                ASN1_UTCTIME_adj
                0x00000000401c8d6b                ASN1_UTCTIME_set
                0x00000000401c8d83                ASN1_UTCTIME_cmp_time_t
                0x00000000401c8f10                UTF8_getc
                0x00000000401c9261                UTF8_putc
                0x00000000401c94b0                ASN1_verify
                0x00000000401c960f                ASN1_item_verify
                0x00000000401c9826                AES_cbc_encrypt
                0x00000000401c984c                AES_cfb128_encrypt
                0x00000000401c986a                AES_cfb1_encrypt
                0x00000000401c9888                AES_cfb8_encrypt
                0x00000000401c98b0                AES_ecb_encrypt
                0x00000000401c98ca                AES_ofb128_encrypt
                0x00000000401c98e0                ERR_load_ASN1_strings
                0x00000000401c99a9                ASN1_check_infinite_end
                0x00000000401c99b0                ASN1_const_check_infinite_end
                0x00000000401c99b7                ASN1_get_object
                0x00000000401c9b59                ASN1_put_object
                0x00000000401c9c7f                ASN1_put_eoc
                0x00000000401c9c96                ASN1_object_size
                0x00000000401c9cc5                asn1_Finish
                0x00000000401c9ccc                asn1_const_Finish
                0x00000000401c9cd3                asn1_GetSequence
                0x00000000401c9d61                ASN1_STRING_set
                0x00000000401c9e44                ASN1_STRING_copy
                0x00000000401c9e83                ASN1_STRING_set0
                0x00000000401c9ea8                ASN1_STRING_type_new
                0x00000000401c9f05                ASN1_STRING_new
                0x00000000401c9f18                ASN1_STRING_free
                0x00000000401c9f3f                ASN1_STRING_dup
                0x00000000401c9f91                ASN1_STRING_cmp
                0x00000000401c9fc9                asn1_add_error
                0x00000000401ca030                ASN1_STRING_length
                0x00000000401ca033                ASN1_STRING_length_set
                0x00000000401ca036                ASN1_STRING_type
                0x00000000401ca03a                ASN1_STRING_data
                0x00000000401ca040                ASN1_tag2str
                0x00000000401cac62                ASN1_parse
                0x00000000401cac8f                ASN1_parse_dump
                0x00000000401cacd2                BIO_dump_indent_cb
                0x00000000401cb06b                BIO_dump_cb
                0x00000000401cb07f                BIO_dump
                0x00000000401cb09a                BIO_dump_indent
                0x00000000401cba43                BIO_f_buffer
                0x00000000401cba50                BF_cfb64_encrypt
                0x00000000401cbc3a                BF_options
                0x00000000401cbc40                BF_ecb_encrypt
                0x00000000401cbcf0                BF_encrypt
                0x00000000401cc0e9                BF_decrypt
                0x00000000401cc4e2                BF_cbc_encrypt
                0x00000000401cca8e                BF_ofb64_encrypt
                0x00000000401ccc31                BF_set_key
                0x00000000401cd9b7                BIO_f_base64
                0x00000000401ce04e                BIO_f_cipher
                0x00000000401ce054                BIO_set_cipher
                0x00000000401ce0e8                ERR_load_BIO_strings
                0x00000000401ce45c                BIO_f_md
                0x00000000401ce470                BN_uadd
                0x00000000401ce5a6                BN_usub
                0x00000000401ce79d                BN_add
                0x00000000401ce82e                BN_sub
                0x00000000401ce920                bn_mul_add_words
                0x00000000401ceb5e                bn_mul_words
                0x00000000401ced5d                bn_sqr_words
                0x00000000401cee9b                bn_div_words
                0x00000000401cefb5                bn_add_words
                0x00000000401cf0a2                bn_sub_words
                0x00000000401cf1ae                bn_mul_comba8
                0x00000000401d0b01                bn_mul_comba4
                0x00000000401d1140                bn_sqr_comba8
                0x00000000401d222a                bn_sqr_comba4
                0x00000000401d2650                BN_BLINDING_free
                0x00000000401d269a                BN_BLINDING_new
                0x00000000401d2775                BN_BLINDING_invert_ex
                0x00000000401d27d5                BN_BLINDING_invert
                0x00000000401d27ee                BN_BLINDING_get_thread_id
                0x00000000401d27f3                BN_BLINDING_set_thread_id
                0x00000000401d27f8                BN_BLINDING_thread_id
                0x00000000401d27fd                BN_BLINDING_get_flags
                0x00000000401d2802                BN_BLINDING_set_flags
                0x00000000401d2807                BN_BLINDING_create_param
                0x00000000401d2991                BN_BLINDING_update
                0x00000000401d2a84                BN_BLINDING_convert_ex
                0x00000000401d2b2f                BN_BLINDING_convert
                0x00000000401d2b48                BN_CTX_init
                0x00000000401d2bc7                BN_CTX_new
                0x00000000401d2c5f                BN_CTX_free
                0x00000000401d2cd4                BN_CTX_start
                0x00000000401d2da3                BN_CTX_end
                0x00000000401d2e0c                BN_CTX_get
                0x00000000401d2f51                BN_div
                0x00000000401d3967                ERR_load_BN_strings
                0x00000000401d3a6f                BN_exp
                0x00000000401d3bfe                BN_mod_exp_recp
                0x00000000401d401e                BN_mod_exp_mont_consttime
                0x00000000401d45fc                BN_mod_exp_mont
                0x00000000401d4af2                BN_mod_exp_mont_word
                0x00000000401d4f93                BN_mod_exp
                0x00000000401d4fe1                BN_mod_exp_simple
                0x00000000401d53d0                BN_gcd
                0x00000000401d55dc                BN_mod_inverse
                0x00000000401d5fc0                BN_nnmod
                0x00000000401d6015                BN_mod_add
                0x00000000401d6041                BN_mod_add_quick
                0x00000000401d6081                BN_mod_sub
                0x00000000401d60ad                BN_mod_sub_quick
                0x00000000401d60e2                BN_mod_mul
                0x00000000401d618e                BN_mod_sqr
                0x00000000401d61c2                BN_mod_lshift1
                0x00000000401d61ee                BN_mod_lshift1_quick
                0x00000000401d622e                BN_mod_lshift_quick
                0x00000000401d631a                BN_mod_lshift
                0x00000000401d6704                BN_mod_mul_montgomery
                0x00000000401d67ad                BN_from_montgomery
                0x00000000401d681d                BN_MONT_CTX_init
                0x00000000401d6859                BN_MONT_CTX_new
                0x00000000401d688a                BN_MONT_CTX_free
                0x00000000401d68be                BN_MONT_CTX_set
                0x00000000401d6a9a                BN_MONT_CTX_copy
                0x00000000401d6b14                BN_MONT_CTX_set_locked
                0x00000000401d6bf0                bn_sub_part_words
                0x00000000401d6e38                bn_add_part_words
                0x00000000401d716d                bn_mul_normal
                0x00000000401d72b9                bn_mul_recursive
                0x00000000401d77e5                bn_mul_high
                0x00000000401d7c92                bn_mul_part_recursive
                0x00000000401d81b6                BN_mul
                0x00000000401d8513                bn_mul_low_normal
                0x00000000401d85ef                bn_mul_low_recursive
                0x00000000401d87e9                BN_GENCB_call
                0x00000000401d883c                BN_is_prime_fasttest_ex
                0x00000000401d8d78                BN_generate_prime_ex
                0x00000000401d934f                BN_is_prime_ex
                0x00000000401d9365                BN_RECP_CTX_init
                0x00000000401d9387                BN_RECP_CTX_new
                0x00000000401d93b8                BN_RECP_CTX_free
                0x00000000401d93df                BN_RECP_CTX_set
                0x00000000401d9428                BN_reciprocal
                0x00000000401d94a2                BN_div_recp
                0x00000000401d9727                BN_mod_mul_reciprocal
                0x00000000401d97db                BN_lshift1
                0x00000000401d98a3                BN_rshift1
                0x00000000401d9975                BN_lshift
                0x00000000401d9ac9                BN_rshift
                0x00000000401d9c40                bn_sqr_normal
                0x00000000401d9d1d                bn_sqr_recursive
                0x00000000401d9ecc                BN_sqr
                0x00000000401da129                BIO_s_null
                0x00000000401da12f                ERR_load_BUF_strings
                0x00000000401da170                CAST_cfb64_encrypt
                0x00000000401da35a                CAST_ecb_encrypt
                0x00000000401da40a                CAST_encrypt
                0x00000000401da86d                CAST_decrypt
                0x00000000401dacb7                CAST_cbc_encrypt
                0x00000000401db263                CAST_ofb64_encrypt
                0x00000000401db406                CAST_set_key
                0x00000000401dbe10                DES_ede3_cfb64_encrypt
                0x00000000401dc051                DES_ede3_cfb_encrypt
                0x00000000401dc8a0                DES_cfb64_encrypt
                0x00000000401dcac6                DES_cfb_encrypt
                0x00000000401dd106                ERR_load_COMP_strings
                0x00000000401dd13e                ERR_load_CONF_strings
                0x00000000401dd176                ERR_load_CRYPTO_strings
                0x00000000401dd1ae                d2i_PrivateKey
                0x00000000401dd2ff                d2i_AutoPrivateKey
                0x00000000401dd44a                d2i_DHparams
                0x00000000401dd45d                i2d_DHparams
                0x00000000401dd470                DHparams_dup
                0x00000000401dd490                DH_check
                0x00000000401dd5a7                DH_check_pub_key
                0x00000000401dd636                ERR_load_DH_strings
                0x00000000401dd670                DH_generate_parameters_ex
                0x00000000401dd870                EVP_MD_CTX_init
                0x00000000401dd888                EVP_MD_CTX_create
                0x00000000401dd8b2                EVP_DigestInit_ex
                0x00000000401dd98d                EVP_DigestInit
                0x00000000401dd9b5                EVP_DigestUpdate
                0x00000000401dd9c4                EVP_DigestFinal_ex
                0x00000000401dda45                EVP_MD_CTX_cleanup
                0x00000000401ddad5                EVP_DigestFinal
                0x00000000401ddaf6                EVP_MD_CTX_copy_ex
                0x00000000401ddc20                EVP_MD_CTX_copy
                0x00000000401ddc43                EVP_Digest
                0x00000000401ddcd0                EVP_MD_CTX_destroy
                0x00000000401ddd89                d2i_DSA_SIG
                0x00000000401ddd9c                i2d_DSA_SIG
                0x00000000401dddaf                DSA_SIG_new
                0x00000000401dddc2                DSA_SIG_free
                0x00000000401dddd5                d2i_DSAPrivateKey
                0x00000000401ddde8                i2d_DSAPrivateKey
                0x00000000401dddfb                d2i_DSAparams
                0x00000000401dde0e                i2d_DSAparams
                0x00000000401dde21                d2i_DSAPublicKey
                0x00000000401dde34                i2d_DSAPublicKey
                0x00000000401dde47                DSAparams_dup
                0x00000000401dde5d                ERR_load_DSA_strings
                0x00000000401ddea0                dsa_builtin_paramgen
                0x00000000401de6ff                DSA_generate_parameters_ex
                0x00000000401de7a0                DSA_generate_key
                0x00000000401de8f0                DSA_set_default_method
                0x00000000401de8f8                DSA_get_default_method
                0x00000000401de926                DSA_set_method
                0x00000000401de95f                DSA_new_method
                0x00000000401dea6c                DSA_new
                0x00000000401dea7f                DSA_free
                0x00000000401deb41                DSA_up_ref
                0x00000000401deb71                DSA_size
                0x00000000401debcb                DSA_get_ex_new_index
                0x00000000401debed                DSA_set_ex_data
                0x00000000401debff                DSA_get_ex_data
                0x00000000401dec11                DSA_dup_DH
                0x00000000401df5b9                DSA_OpenSSL
                0x00000000401df5bf                DSA_do_sign
                0x00000000401df5cf                DSA_sign
                0x00000000401df640                DSA_sign_setup
                0x00000000401df650                DSA_do_verify
                0x00000000401df660                DSA_verify
                0x00000000401df6d9                ERR_load_DSO_strings
                0x00000000401e000a                EC_GROUP_get_basis_type
                0x00000000401e0064                EC_GROUP_get_trinomial_basis
                0x00000000401e00e6                EC_GROUP_get_pentanomial_basis
                0x00000000401e01aa                X9_62_PENTANOMIAL_new
                0x00000000401e01bd                X9_62_PENTANOMIAL_free
                0x00000000401e01d0                X9_62_CHARACTERISTIC_TWO_new
                0x00000000401e01e3                X9_62_CHARACTERISTIC_TWO_free
                0x00000000401e01f6                ECPARAMETERS_new
                0x00000000401e0209                ECPARAMETERS_free
                0x00000000401e021c                d2i_ECPKPARAMETERS
                0x00000000401e022f                i2d_ECPKPARAMETERS
                0x00000000401e0242                ECPKPARAMETERS_new
                0x00000000401e0255                ECPKPARAMETERS_free
                0x00000000401e0e6d                d2i_EC_PRIVATEKEY
                0x00000000401e0e80                i2d_EC_PRIVATEKEY
                0x00000000401e0e93                EC_PRIVATEKEY_new
                0x00000000401e0ea6                EC_PRIVATEKEY_free
                0x00000000401e0eb9                d2i_ECPKParameters
                0x00000000401e0f65                i2d_ECPKParameters
                0x00000000401e0ff6                d2i_ECPrivateKey
                0x00000000401e12ad                i2d_ECPrivateKey
                0x00000000401e161b                i2d_ECParameters
                0x00000000401e1656                d2i_ECParameters
                0x00000000401e1747                o2i_ECPublicKey
                0x00000000401e1828                i2o_ECPublicKey
                0x00000000401e1980                EC_GROUP_new_by_curve_name
                0x00000000401e1ea9                EC_get_builtin_curves
                0x00000000401e1ef5                EC_GROUP_new_curve_GFp
                0x00000000401e1fd8                EC_GROUP_new_curve_GF2m
                0x00000000401e203c                ERR_load_EC_strings
                0x00000000401e2080                EC_KEY_new
                0x00000000401e2103                EC_KEY_free
                0x00000000401e2178                EC_KEY_new_by_curve_name
                0x00000000401e21bd                EC_KEY_copy
                0x00000000401e2370                EC_KEY_dup
                0x00000000401e23b7                EC_KEY_up_ref
                0x00000000401e23e7                EC_KEY_generate_key
                0x00000000401e25a2                EC_KEY_check_key
                0x00000000401e2832                EC_KEY_get0_group
                0x00000000401e2837                EC_KEY_set_group
                0x00000000401e286d                EC_KEY_get0_private_key
                0x00000000401e2872                EC_KEY_set_private_key
                0x00000000401e28a8                EC_KEY_get0_public_key
                0x00000000401e28ad                EC_KEY_set_public_key
                0x00000000401e28e7                EC_KEY_get_enc_flags
                0x00000000401e28eb                EC_KEY_set_enc_flags
                0x00000000401e28ef                EC_KEY_get_conv_form
                0x00000000401e28f3                EC_KEY_set_conv_form
                0x00000000401e290e                EC_KEY_get_key_method_data
                0x00000000401e2979                EC_KEY_insert_key_method_data
                0x00000000401e2a09                EC_KEY_set_asn1_flag
                0x00000000401e2a21                EC_KEY_precompute_mult
                0x00000000401e2a40                EC_GROUP_new
                0x00000000401e2b57                EC_GROUP_method_of
                0x00000000401e2b5b                EC_METHOD_get_field_type
                0x00000000401e2b5e                EC_GROUP_get0_generator
                0x00000000401e2b63                EC_GROUP_get_order
                0x00000000401e2b8b                EC_GROUP_get_cofactor
                0x00000000401e2bb3                EC_GROUP_set_curve_name
                0x00000000401e2bb7                EC_GROUP_get_curve_name
                0x00000000401e2bbb                EC_GROUP_set_asn1_flag
                0x00000000401e2bbf                EC_GROUP_get_asn1_flag
                0x00000000401e2bc3                EC_GROUP_set_point_conversion_form
                0x00000000401e2bc7                EC_GROUP_get_point_conversion_form
                0x00000000401e2bcb                EC_GROUP_set_seed
                0x00000000401e2c3f                EC_GROUP_get0_seed
                0x00000000401e2c44                EC_GROUP_get_seed_len
                0x00000000401e2c49                EC_GROUP_set_curve_GFp
                0x00000000401e2c86                EC_GROUP_get_curve_GFp
                0x00000000401e2cc3                EC_GROUP_set_curve_GF2m
                0x00000000401e2d01                EC_GROUP_get_curve_GF2m
                0x00000000401e2d3e                EC_GROUP_get_degree
                0x00000000401e2d7b                EC_GROUP_check_discriminant
                0x00000000401e2db8                EC_EX_DATA_set_data
                0x00000000401e2e7a                EC_EX_DATA_get_data
                0x00000000401e2eae                EC_EX_DATA_free_data
                0x00000000401e2efe                EC_EX_DATA_clear_free_data
                0x00000000401e2f4e                EC_EX_DATA_free_all_data
                0x00000000401e2f8b                EC_EX_DATA_clear_free_all_data
                0x00000000401e2fc8                EC_POINT_new
                0x00000000401e309c                EC_POINT_free
                0x00000000401e30c1                EC_GROUP_free
                0x00000000401e3119                EC_POINT_clear_free
                0x00000000401e3154                EC_GROUP_clear_free
                0x00000000401e31d3                EC_POINT_copy
                0x00000000401e3242                EC_GROUP_copy
                0x00000000401e345f                EC_GROUP_dup
                0x00000000401e34b4                EC_GROUP_set_generator
                0x00000000401e358b                EC_POINT_dup
                0x00000000401e35e0                EC_POINT_method_of
                0x00000000401e35e4                EC_POINT_set_to_infinity
                0x00000000401e3649                EC_POINT_set_Jprojective_coordinates_GFp
                0x00000000401e36b2                EC_POINT_get_Jprojective_coordinates_GFp
                0x00000000401e371b                EC_POINT_set_affine_coordinates_GFp
                0x00000000401e3787                EC_POINT_set_affine_coordinates_GF2m
                0x00000000401e37f3                EC_POINT_get_affine_coordinates_GFp
                0x00000000401e385f                EC_POINT_get_affine_coordinates_GF2m
                0x00000000401e38cb                EC_POINT_set_compressed_coordinates_GFp
                0x00000000401e3937                EC_POINT_set_compressed_coordinates_GF2m
                0x00000000401e39a3                EC_POINT_point2oct
                0x00000000401e3a0f                EC_POINT_oct2point
                0x00000000401e3a7b                EC_POINT_add
                0x00000000401e3af1                EC_POINT_dbl
                0x00000000401e3b61                EC_POINT_invert
                0x00000000401e3bce                EC_POINT_is_at_infinity
                0x00000000401e3c36                EC_POINT_is_on_curve
                0x00000000401e3ca1                EC_POINT_cmp
                0x00000000401e3d11                EC_GROUP_cmp
                0x00000000401e3f74                EC_POINT_make_affine
                0x00000000401e3fe1                EC_POINTs_make_affine
                0x00000000401e406e                EC_POINTs_mul
                0x00000000401e40a1                EC_POINT_mul
                0x00000000401e40d9                EC_GROUP_precompute_mult
                0x00000000401e4109                EC_GROUP_have_precompute_mult
                0x00000000401e450d                ec_wNAF_mul
                0x00000000401e533c                ec_wNAF_precompute_mult
                0x00000000401e5946                ec_wNAF_have_precompute_mult
                0x00000000401e5970                EC_POINT_point2bn
                0x00000000401e5a26                EC_POINT_bn2point
                0x00000000401e5b2f                EC_POINT_point2hex
                0x00000000401e5c48                EC_POINT_hex2point
                0x00000000401e5ca4                ERR_load_ECDH_strings
                0x00000000401e5cdc                ECDH_compute_key
                0x00000000401e5d5c                ECDH_set_default_method
                0x00000000401e5d64                ECDH_get_default_method
                0x00000000401e5e32                ecdh_check
                0x00000000401e5ea4                ECDH_set_method
                0x00000000401e5ec4                ECDH_get_ex_new_index
                0x00000000401e5ee6                ECDH_set_ex_data
                0x00000000401e5f18                ECDH_get_ex_data
                0x00000000401e630a                ECDH_OpenSSL
                0x00000000401e6310                ec_GFp_mont_group_init
                0x00000000401e6331                ec_GFp_mont_group_finish
                0x00000000401e6377                ec_GFp_mont_group_clear_finish
                0x00000000401e63bd                ec_GFp_mont_group_copy
                0x00000000401e649f                ec_GFp_mont_field_mul
                0x00000000401e64eb                ec_GFp_mont_field_sqr
                0x00000000401e6537                ec_GFp_mont_field_encode
                0x00000000401e6587                ec_GFp_mont_group_set_curve
                0x00000000401e6720                ec_GFp_mont_field_decode
                0x00000000401e6766                ec_GFp_mont_field_set_to_one
                0x00000000401e67b3                EC_GFp_mont_method
                0x00000000401e67b9                ec_GFp_nist_group_copy
                0x00000000401e67d5                ec_GFp_nist_group_set_curve
                0x00000000401e6949                ec_GFp_nist_field_mul
                0x00000000401e6a13                ec_GFp_nist_field_sqr
                0x00000000401e6ac4                EC_GFp_nist_method
                0x00000000401e6ad0                ec_GFp_simple_is_at_infinity
                0x00000000401e6adb                ec_GFp_simple_group_init
                0x00000000401e6b11                ec_GFp_simple_point_init
                0x00000000401e6b3e                ec_GFp_simple_group_finish
                0x00000000401e6b65                ec_GFp_simple_point_finish
                0x00000000401e6b86                ec_GFp_simple_group_clear_finish
                0x00000000401e6bad                ec_GFp_simple_point_clear_finish
                0x00000000401e6bd5                ec_GFp_simple_group_copy
                0x00000000401e6c4e                ec_GFp_simple_point_copy
                0x00000000401e6cb5                ec_GFp_simple_group_get_degree
                0x00000000401e6cc7                ec_GFp_simple_group_set_curve
                0x00000000401e6eb8                ec_GFp_simple_group_get_curve
                0x00000000401e700d                ec_GFp_simple_set_Jprojective_coordinates_GFp
                0x00000000401e71fa                ec_GFp_simple_get_Jprojective_coordinates_GFp
                0x00000000401e735b                ec_GFp_simple_field_sqr
                0x00000000401e7376                ec_GFp_simple_field_mul
                0x00000000401e7394                ec_GFp_simple_group_check_discriminant
                0x00000000401e75ca                ec_GFp_simple_point_set_to_infinity
                0x00000000401e75ed                ec_GFp_simple_point_set_affine_coordinates
                0x00000000401e7659                ec_GFp_simple_cmp
                0x00000000401e794b                ec_GFp_simple_point_get_affine_coordinates
                0x00000000401e7cb5                ec_GFp_simple_invert
                0x00000000401e7cf0                ec_GFp_simple_set_compressed_coordinates
                0x00000000401e8198                ec_GFp_simple_make_affine
                0x00000000401e82aa                ec_GFp_simple_point2oct
                0x00000000401e8635                ec_GFp_simple_is_on_curve
                0x00000000401e8988                ec_GFp_simple_oct2point
                0x00000000401e8d08                ec_GFp_simple_add
                0x00000000401e9424                ec_GFp_simple_dbl
                0x00000000401e9943                ec_GFp_simple_points_make_affine
                0x00000000401e9eba                EC_GFp_simple_method
                0x00000000401e9ec0                ERR_load_ECDSA_strings
                0x00000000401e9f2c                ECDSA_set_default_method
                0x00000000401e9f34                ECDSA_get_default_method
                0x00000000401ea002                ecdsa_check
                0x00000000401ea074                ECDSA_set_method
                0x00000000401ea094                ECDSA_size
                0x00000000401ea14d                ECDSA_get_ex_new_index
                0x00000000401ea16f                ECDSA_set_ex_data
                0x00000000401ea1a1                ECDSA_get_ex_data
                0x00000000401eaee6                ECDSA_OpenSSL
                0x00000000401eaeec                ECDSA_do_sign_ex
                0x00000000401eaf36                ECDSA_do_sign
                0x00000000401eaf51                ECDSA_sign_ex
                0x00000000401eafcc                ECDSA_sign
                0x00000000401eafed                ECDSA_sign_setup
                0x00000000401eb033                ECDSA_do_verify
                0x00000000401eb07c                ECDSA_verify
                0x00000000401eb100                EVP_EncodeInit
                0x00000000401eb115                EVP_EncodeBlock
                0x00000000401eb254                EVP_EncodeUpdate
                0x00000000401eb37c                EVP_EncodeFinal
                0x00000000401eb3c0                EVP_DecodeInit
                0x00000000401eb3dc                EVP_DecodeBlock
                0x00000000401eb58c                EVP_DecodeUpdate
                0x00000000401eb8cb                EVP_DecodeFinal
                0x00000000401eb910                EVP_set_pw_prompt
                0x00000000401eb93f                EVP_get_pw_prompt
                0x00000000401eb955                EVP_read_pw_string_min
                0x00000000401eba14                EVP_read_pw_string
                0x00000000401eba2f                EVP_BytesToKey
                0x00000000401ebcc8                EVP_PBE_alg_add_type
                0x00000000401ebd67                EVP_PBE_alg_add
                0x00000000401ebdbf                EVP_PBE_find
                0x00000000401ebe77                EVP_PBE_CipherInit
                0x00000000401ec02e                EVP_PBE_cleanup
                0x00000000401ec053                EVP_PKCS82PKEY
                0x00000000401ec194                EVP_PKEY2PKCS8_broken
                0x00000000401ec287                EVP_PKEY2PKCS8
                0x00000000401ec29a                PKCS8_set_broken
                0x00000000401ec2f0                EVP_PKEY_get_attr_count
                0x00000000401ec302                EVP_PKEY_get_attr_by_NID
                0x00000000401ec314                EVP_PKEY_get_attr_by_OBJ
                0x00000000401ec326                EVP_PKEY_get_attr
                0x00000000401ec338                EVP_PKEY_delete_attr
                0x00000000401ec34a                EVP_PKEY_add1_attr
                0x00000000401ec365                EVP_PKEY_add1_attr_by_OBJ
                0x00000000401ec380                EVP_PKEY_add1_attr_by_NID
                0x00000000401ec39b                EVP_PKEY_add1_attr_by_txt
                0x00000000401ec3c0                HMAC_Init_ex
                0x00000000401ec59f                HMAC_Update
                0x00000000401ec5b1                HMAC_Final
                0x00000000401ec624                HMAC_CTX_init
                0x00000000401ec645                HMAC_Init
                0x00000000401ec68c                HMAC_CTX_copy
                0x00000000401ec702                HMAC_CTX_cleanup
                0x00000000401ec735                HMAC
                0x00000000401ec7db                HMAC_CTX_set_flags
                0x00000000401ec810                i2d_PrivateKey
                0x00000000401ed184                RAND_SSLeay
                0x00000000401ed1ab                d2i_NETSCAPE_CERT_SEQUENCE
                0x00000000401ed1be                i2d_NETSCAPE_CERT_SEQUENCE
                0x00000000401ed1d1                NETSCAPE_CERT_SEQUENCE_new
                0x00000000401ed1e4                NETSCAPE_CERT_SEQUENCE_free
                0x00000000401ed1f7                OPENSSL_gmtime
                0x00000000401ed1fd                OPENSSL_gmtime_adj
                0x00000000401ed498                PKCS12_PBE_add
                0x00000000401ed49a                PKCS12_PBE_keyivgen
                0x00000000401ed6a0                PKCS12_key_gen_uni
                0x00000000401edb6b                PKCS12_key_gen_asc
                0x00000000401edc3e                PKCS8_decrypt
                0x00000000401edc63                OPENSSL_asc2uni
                0x00000000401edcf8                OPENSSL_uni2asc
                0x00000000401edd70                i2d_PKCS12_bio
                0x00000000401edd89                d2i_PKCS12_bio
                0x00000000401edda2                PKCS12_x5092certbag
                0x00000000401eddbf                PKCS12_x509crl2certbag
                0x00000000401edddc                PKCS12_certbag2x509
                0x00000000401ede26                PKCS12_certbag2x509crl
                0x00000000401ede70                PKCS5_PBE_add
                0x00000000401ede72                PKCS5_PBE_keyivgen
                0x00000000401ee13b                PKCS5_PBKDF2_HMAC
                0x00000000401ee409                PKCS5_PBKDF2_HMAC_SHA1
                0x00000000401ee460                PKCS5_v2_PBE_keyivgen
                0x00000000401ee864                d2i_PBEPARAM
                0x00000000401ee877                i2d_PBEPARAM
                0x00000000401ee88a                PBEPARAM_new
                0x00000000401ee89d                PBEPARAM_free
                0x00000000401ee8b0                PKCS5_pbe_set0_algor
                0x00000000401eea59                PKCS5_pbe_set
                0x00000000401eead2                d2i_PBE2PARAM
                0x00000000401eeae5                i2d_PBE2PARAM
                0x00000000401eeaf8                PBE2PARAM_new
                0x00000000401eeb0b                PBE2PARAM_free
                0x00000000401eeb1e                d2i_PBKDF2PARAM
                0x00000000401eeb31                i2d_PBKDF2PARAM
                0x00000000401eeb44                PBKDF2PARAM_new
                0x00000000401eeb57                PBKDF2PARAM_free
                0x00000000401eeb6a                PKCS5_pbe2_set_iv
                0x00000000401ef043                PKCS5_pbe2_set
                0x00000000401ef095                d2i_PKCS8_PRIV_KEY_INFO
                0x00000000401ef0a8                i2d_PKCS8_PRIV_KEY_INFO
                0x00000000401ef0bb                PKCS8_PRIV_KEY_INFO_new
                0x00000000401ef0ce                PKCS8_PRIV_KEY_INFO_free
                0x00000000401ef0e1                PKCS8_pkey_set0
                0x00000000401ef186                PKCS8_pkey_get0
                0x00000000401ef20c                EVP_SignFinal
                0x00000000401ef3bb                EVP_VerifyFinal
                0x00000000401ef55c                policy_cache_free
                0x00000000401ef58f                policy_cache_set
                0x00000000401ef913                policy_cache_find_data
                0x00000000401ef949                policy_data_free
                0x00000000401ef981                policy_data_new
                0x00000000401efa7b                policy_cache_set_mapping
                0x00000000401efcb5                X509_policy_tree_free
                0x00000000401efd54                X509_policy_check
                0x00000000401f070c                d2i_PKCS8PrivateKey_bio
                0x00000000401f080f                PEM_read_bio_PKCS8
                0x00000000401f0833                PEM_write_bio_PKCS8
                0x00000000401f0876                PEM_read_bio_PKCS8_PRIV_KEY_INFO
                0x00000000401f089a                PEM_write_bio_PKCS8_PRIV_KEY_INFO
                0x00000000401f0ac1                PEM_write_bio_PKCS8PrivateKey_nid
                0x00000000401f0af2                PEM_write_bio_PKCS8PrivateKey
                0x00000000401f0b23                i2d_PKCS8PrivateKey_bio
                0x00000000401f0b54                i2d_PKCS8PrivateKey_nid_bio
                0x00000000401f0b85                PKCS7_add_attrib_smimecap
                0x00000000401f0bef                PKCS7_get_smimecap
                0x00000000401f0c3f                PKCS7_simple_smimecap
                0x00000000401f0d6d                PKCS7_add_attrib_content_type
                0x00000000401f0dbf                PKCS7_add0_attrib_signing_time
                0x00000000401f0e15                PKCS7_add1_attrib_digest
                0x00000000401f2699                RSA_PKCS1_SSLeay
                0x00000000401f269f                RSA_padding_add_none
                0x00000000401f270e                RSA_padding_check_none
                0x00000000401f277d                PKCS1_MGF1
                0x00000000401f291b                RSA_padding_check_PKCS1_OAEP
                0x00000000401f2bc2                RSA_padding_add_PKCS1_OAEP
                0x00000000401f2dd0                RSA_padding_add_PKCS1_type_1
                0x00000000401f2e56                RSA_padding_check_PKCS1_type_1
                0x00000000401f2fa8                RSA_padding_add_PKCS1_type_2
                0x00000000401f3066                RSA_padding_check_PKCS1_type_2
                0x00000000401f3190                RSA_verify_PKCS1_PSS
                0x00000000401f34e6                RSA_padding_add_PKCS1_PSS
                0x00000000401f37ac                RSA_padding_add_SSLv23
                0x00000000401f387b                RSA_padding_check_SSLv23
                0x00000000401f39db                RSA_padding_add_X931
                0x00000000401f3a7b                RSA_padding_check_X931
                0x00000000401f3b91                RSA_X931_hash_id
                0x00000000401f3bd1                ASN1_bn_print
                0x00000000401f3dd0                X509_ocspid_print
                0x00000000401f3f41                X509_signature_print
                0x00000000401f4041                ASN1_STRING_print
                0x00000000401f40f4                ASN1_GENERALIZEDTIME_print
                0x00000000401f4366                ASN1_UTCTIME_print
                0x00000000401f44d3                ASN1_TIME_print
                0x00000000401f4510                X509_print_ex
                0x00000000401f4a47                X509_print
                0x00000000401f4a5f                X509_NAME_print
                0x00000000401f4b58                X509_CERT_AUX_print
                0x00000000401f508f                UI_free
                0x00000000401f50c1                UI_add_input_string
                0x00000000401f50f1                UI_dup_input_string
                0x00000000401f5180                UI_add_verify_string
                0x00000000401f51b1                UI_dup_verify_string
                0x00000000401f5241                UI_add_input_boolean
                0x00000000401f526b                UI_dup_input_boolean
                0x00000000401f53f3                UI_add_info_string
                0x00000000401f542f                UI_dup_info_string
                0x00000000401f54b1                UI_add_error_string
                0x00000000401f54ed                UI_dup_error_string
                0x00000000401f556f                UI_construct_prompt
                0x00000000401f5697                UI_add_user_data
                0x00000000401f56a0                UI_get0_user_data
                0x00000000401f56a5                UI_process
                0x00000000401f57be                UI_ctrl
                0x00000000401f5848                UI_get_ex_new_index
                0x00000000401f586a                UI_set_ex_data
                0x00000000401f587c                UI_get_ex_data
                0x00000000401f588e                UI_set_default_method
                0x00000000401f5896                UI_get_default_method
                0x00000000401f58c4                UI_new_method
                0x00000000401f5953                UI_new
                0x00000000401f5966                UI_get_method
                0x00000000401f596a                UI_set_method
                0x00000000401f5971                UI_create_method
                0x00000000401f59bd                UI_destroy_method
                0x00000000401f59da                UI_method_set_opener
                0x00000000401f59ef                UI_method_set_writer
                0x00000000401f5a04                UI_method_set_flusher
                0x00000000401f5a19                UI_method_set_reader
                0x00000000401f5a2e                UI_method_set_closer
                0x00000000401f5a43                UI_method_set_prompt_constructor
                0x00000000401f5a58                UI_method_get_opener
                0x00000000401f5a68                UI_method_get_writer
                0x00000000401f5a78                UI_method_get_flusher
                0x00000000401f5a88                UI_method_get_reader
                0x00000000401f5a98                UI_method_get_closer
                0x00000000401f5aa8                UI_method_get_prompt_constructor
                0x00000000401f5ab8                UI_get_string_type
                0x00000000401f5ac6                UI_get_input_flags
                0x00000000401f5ad5                UI_get0_output_string
                0x00000000401f5ae5                UI_get0_action_string
                0x00000000401f5b07                UI_get0_result_string
                0x00000000401f5b27                UI_get0_result
                0x00000000401f5ba9                UI_get0_test_string
                0x00000000401f5bc4                UI_get_result_minsize
                0x00000000401f5be3                UI_get_result_maxsize
                0x00000000401f5c02                UI_set_result
                0x00000000401f60b2                UI_OpenSSL
                0x00000000401f60b8                d2i_AUTHORITY_KEYID
                0x00000000401f60cb                i2d_AUTHORITY_KEYID
                0x00000000401f60de                AUTHORITY_KEYID_new
                0x00000000401f60f1                AUTHORITY_KEYID_free
                0x00000000401f638f                POLICYINFO_free
                0x00000000401f63a2                d2i_CERTIFICATEPOLICIES
                0x00000000401f63b5                i2d_CERTIFICATEPOLICIES
                0x00000000401f63c8                CERTIFICATEPOLICIES_new
                0x00000000401f63db                CERTIFICATEPOLICIES_free
                0x00000000401f63ee                d2i_POLICYINFO
                0x00000000401f6401                i2d_POLICYINFO
                0x00000000401f6414                POLICYINFO_new
                0x00000000401f6427                d2i_POLICYQUALINFO
                0x00000000401f643a                i2d_POLICYQUALINFO
                0x00000000401f644d                POLICYQUALINFO_new
                0x00000000401f6460                POLICYQUALINFO_free
                0x00000000401f6473                d2i_USERNOTICE
                0x00000000401f6486                i2d_USERNOTICE
                0x00000000401f6499                USERNOTICE_new
                0x00000000401f64ac                USERNOTICE_free
                0x00000000401f64bf                d2i_NOTICEREF
                0x00000000401f64d2                i2d_NOTICEREF
                0x00000000401f64e5                NOTICEREF_new
                0x00000000401f6e4a                NOTICEREF_free
                0x00000000401f6e5d                X509_POLICY_NODE_print
                0x00000000401f7420                DIST_POINT_free
                0x00000000401f7433                d2i_DIST_POINT_NAME
                0x00000000401f7446                i2d_DIST_POINT_NAME
                0x00000000401f7459                DIST_POINT_NAME_new
                0x00000000401f7657                DIST_POINT_NAME_free
                0x00000000401f766a                d2i_DIST_POINT
                0x00000000401f767d                i2d_DIST_POINT
                0x00000000401f7690                DIST_POINT_new
                0x00000000401f793b                d2i_CRL_DIST_POINTS
                0x00000000401f794e                i2d_CRL_DIST_POINTS
                0x00000000401f7961                CRL_DIST_POINTS_new
                0x00000000401f7974                CRL_DIST_POINTS_free
                0x00000000401f7987                d2i_ISSUING_DIST_POINT
                0x00000000401f799a                i2d_ISSUING_DIST_POINT
                0x00000000401f79ad                ISSUING_DIST_POINT_new
                0x00000000401f79c0                ISSUING_DIST_POINT_free
                0x00000000401f7bcd                DIST_POINT_set_dpname
                0x00000000401f7cc0                d2i_GENERAL_NAME
                0x00000000401f7cd3                i2d_GENERAL_NAME
                0x00000000401f7ce6                d2i_OTHERNAME
                0x00000000401f7cf9                i2d_OTHERNAME
                0x00000000401f7d0c                OTHERNAME_new
                0x00000000401f7d1f                OTHERNAME_free
                0x00000000401f7d32                d2i_EDIPARTYNAME
                0x00000000401f7d45                i2d_EDIPARTYNAME
                0x00000000401f7d58                EDIPARTYNAME_new
                0x00000000401f7d6b                EDIPARTYNAME_free
                0x00000000401f7d7e                GENERAL_NAME_new
                0x00000000401f7d91                GENERAL_NAME_free
                0x00000000401f7da4                d2i_GENERAL_NAMES
                0x00000000401f7db7                i2d_GENERAL_NAMES
                0x00000000401f7dca                GENERAL_NAMES_new
                0x00000000401f7ddd                GENERAL_NAMES_free
                0x00000000401f7df0                GENERAL_NAME_dup
                0x00000000401f7e0b                OTHERNAME_cmp
                0x00000000401f7e4d                GENERAL_NAME_cmp
                0x00000000401f7eda                GENERAL_NAME_set0_value
                0x00000000401f7f0d                GENERAL_NAME_get0_value
                0x00000000401f7f48                GENERAL_NAME_set0_othername
                0x00000000401f7f7f                GENERAL_NAME_get0_otherName
                0x00000000401f857b                GENERAL_SUBTREE_new
                0x00000000401f858e                GENERAL_SUBTREE_free
                0x00000000401f85a1                NAME_CONSTRAINTS_new
                0x00000000401f85b4                NAME_CONSTRAINTS_free
                0x00000000401f8773                NAME_CONSTRAINTS_check
                0x00000000401f8896                POLICY_CONSTRAINTS_new
                0x00000000401f88a9                POLICY_CONSTRAINTS_free
                0x00000000401f8a9a                POLICY_MAPPING_free
                0x00000000401f8aad                POLICY_MAPPING_new
                0x00000000401f8d45                X509V3_EXT_val_prn
                0x00000000401f8e5d                X509V3_EXT_print
                0x00000000401f901d                X509V3_extensions_print
                0x00000000401f94bd                X509_PURPOSE_get_count
                0x00000000401f94e0                X509_PURPOSE_get0
                0x00000000401f951b                X509_PURPOSE_get_by_sname
                0x00000000401f955e                X509_PURPOSE_get_by_id
                0x00000000401f959d                X509_PURPOSE_set
                0x00000000401f95e9                X509_PURPOSE_add
                0x00000000401f97a0                X509_PURPOSE_cleanup
                0x00000000401f97e4                X509_PURPOSE_get_id
                0x00000000401f97e7                X509_PURPOSE_get0_name
                0x00000000401f97ec                X509_PURPOSE_get0_sname
                0x00000000401f97f1                X509_PURPOSE_get_trust
                0x00000000401f97f5                X509_supported_extension
                0x00000000401f9d66                X509_check_purpose
                0x00000000401f9de7                X509_check_ca
                0x00000000401f9e35                X509_check_akid
                0x00000000401f9f0a                X509_check_issued
                0x00000000401fa06e                X509V3_conf_free
                0x00000000401fa154                X509V3_add_value
                0x00000000401fa27b                X509V3_add_value_uchar
                0x00000000401fa289                X509V3_add_value_bool
                0x00000000401fa2ac                X509V3_add_value_bool_nf
                0x00000000401fa2c9                i2s_ASN1_ENUMERATED
                0x00000000401fa339                i2s_ASN1_INTEGER
                0x00000000401fa3a9                s2i_ASN1_INTEGER
                0x00000000401fa50e                X509V3_add_value_int
                0x00000000401fa559                X509V3_get_value_bool
                0x00000000401fa6bd                X509V3_get_value_int
                0x00000000401fa721                X509V3_parse_list
                0x00000000401fa955                hex_to_string
                0x00000000401faa11                string_to_hex
                0x00000000401fabc0                name_cmp
                0x00000000401fac09                X509_email_free
                0x00000000401fad6f                X509_get1_email
                0x00000000401fadbc                X509_REQ_get1_email
                0x00000000401fae1a                X509_get1_ocsp
                0x00000000401faeb1                a2i_ipadd
                0x00000000401faffb                a2i_IPADDRESS
                0x00000000401fb056                a2i_IPADDRESS_NC
                0x00000000401fb132                X509V3_NAME_from_section
                0x00000000401fb220                X509at_get_attr_count
                0x00000000401fb22e                X509at_get_attr_by_OBJ
                0x00000000401fb2a2                X509at_get_attr_by_NID
                0x00000000401fb2d4                X509at_get_attr
                0x00000000401fb318                X509at_delete_attr
                0x00000000401fb35b                X509at_add1_attr
                0x00000000401fb43c                X509_ATTRIBUTE_set1_object
                0x00000000401fb478                X509_ATTRIBUTE_set1_data
                0x00000000401fb5ed                X509_ATTRIBUTE_create_by_OBJ
                0x00000000401fb6b6                X509at_add1_attr_by_OBJ
                0x00000000401fb6f8                X509_ATTRIBUTE_create_by_NID
                0x00000000401fb771                X509at_add1_attr_by_NID
                0x00000000401fb7b3                X509_ATTRIBUTE_create_by_txt
                0x00000000401fb853                X509at_add1_attr_by_txt
                0x00000000401fb895                X509_ATTRIBUTE_count
                0x00000000401fb8bb                X509_ATTRIBUTE_get0_object
                0x00000000401fb8ca                X509_ATTRIBUTE_get0_type
                0x00000000401fb90f                X509_ATTRIBUTE_get0_data
                0x00000000401fb968                X509at_get0_data_by_OBJ
                0x00000000401fb9f4                X509_CRL_get_ext_count
                0x00000000401fba09                X509_CRL_get_ext_by_NID
                0x00000000401fba1e                X509_CRL_get_ext_by_OBJ
                0x00000000401fba33                X509_CRL_get_ext_by_critical
                0x00000000401fba48                X509_CRL_get_ext
                0x00000000401fba5d                X509_CRL_delete_ext
                0x00000000401fba72                X509_CRL_get_ext_d2i
                0x00000000401fba87                X509_CRL_add1_ext_i2d
                0x00000000401fba9c                X509_CRL_add_ext
                0x00000000401fbaba                X509_get_ext_count
                0x00000000401fbacf                X509_get_ext_by_NID
                0x00000000401fbae4                X509_get_ext_by_OBJ
                0x00000000401fbaf9                X509_get_ext_by_critical
                0x00000000401fbb0e                X509_get_ext
                0x00000000401fbb23                X509_delete_ext
                0x00000000401fbb38                X509_add_ext
                0x00000000401fbb56                X509_get_ext_d2i
                0x00000000401fbb6b                X509_add1_ext_i2d
                0x00000000401fbb80                X509_REVOKED_get_ext_count
                0x00000000401fbb92                X509_REVOKED_get_ext_by_NID
                0x00000000401fbba4                X509_REVOKED_get_ext_by_OBJ
                0x00000000401fbbb6                X509_REVOKED_get_ext_by_critical
                0x00000000401fbbc8                X509_REVOKED_get_ext
                0x00000000401fbbda                X509_REVOKED_delete_ext
                0x00000000401fbbec                X509_REVOKED_add_ext
                0x00000000401fbc07                X509_REVOKED_get_ext_d2i
                0x00000000401fbc19                X509_REVOKED_add1_ext_i2d
                0x00000000401fbda1                X509_LOOKUP_new
                0x00000000401fbe1d                X509_LOOKUP_free
                0x00000000401fbe44                X509_LOOKUP_init
                0x00000000401fbe72                X509_LOOKUP_shutdown
                0x00000000401fbe9d                X509_LOOKUP_ctrl
                0x00000000401fbec9                X509_LOOKUP_by_subject
                0x00000000401fbf01                X509_LOOKUP_by_issuer_serial
                0x00000000401fbf2d                X509_LOOKUP_by_fingerprint
                0x00000000401fbf59                X509_LOOKUP_by_alias
                0x00000000401fbf85                X509_STORE_new
                0x00000000401fc077                X509_STORE_free
                0x00000000401fc108                X509_STORE_add_lookup
                0x00000000401fc18a                X509_OBJECT_up_ref_count
                0x00000000401fc1e7                X509_OBJECT_free_contents
                0x00000000401fc212                X509_OBJECT_idx_by_subject
                0x00000000401fc225                X509_OBJECT_retrieve_by_subject
                0x00000000401fc246                X509_STORE_get_by_subject
                0x00000000401fc34e                X509_STORE_get1_certs
                0x00000000401fc50d                X509_STORE_get1_crls
                0x00000000401fc6c7                X509_OBJECT_retrieve_match
                0x00000000401fc7a8                X509_STORE_add_cert
                0x00000000401fc8aa                X509_STORE_add_crl
                0x00000000401fc9ac                X509_STORE_CTX_get1_issuer
                0x00000000401fcb56                X509_STORE_set_flags
                0x00000000401fcb68                X509_STORE_set_depth
                0x00000000401fcb7f                X509_STORE_set_purpose
                0x00000000401fcb91                X509_STORE_set_trust
                0x00000000401fcba3                X509_STORE_set1_param
                0x00000000401fcbb5                X509_STORE_set_verify_cb
                0x00000000401fcbc0                X509_to_X509_REQ
                0x00000000401fccb9                X509_REQ_get_pubkey
                0x00000000401fcce6                X509_REQ_check_private_key
                0x00000000401fce0f                X509_REQ_extension_nid
                0x00000000401fce50                X509_REQ_get_extension_nids
                0x00000000401fce58                X509_REQ_set_extension_nids
                0x00000000401fce60                X509_REQ_add_extensions_nid
                0x00000000401fcf5a                X509_REQ_add_extensions
                0x00000000401fcf6d                X509_REQ_get_attr_count
                0x00000000401fcf82                X509_REQ_get_attr_by_NID
                0x00000000401fcf97                X509_REQ_get_attr_by_OBJ
                0x00000000401fcfac                X509_REQ_get_attr
                0x00000000401fcfc1                X509_REQ_get_extensions
                0x00000000401fd0b6                X509_REQ_delete_attr
                0x00000000401fd0cb                X509_REQ_add1_attr
                0x00000000401fd0e9                X509_REQ_add1_attr_by_OBJ
                0x00000000401fd107                X509_REQ_add1_attr_by_NID
                0x00000000401fd125                X509_REQ_add1_attr_by_txt
                0x00000000401fd2a8                X509_TRUST_set_default
                0x00000000401fd2b7                X509_TRUST_get_count
                0x00000000401fd2da                X509_TRUST_get0
                0x00000000401fd313                X509_TRUST_get_by_id
                0x00000000401fd355                X509_check_trust
                0x00000000401fd39f                X509_TRUST_set
                0x00000000401fd3eb                X509_TRUST_add
                0x00000000401fd581                X509_TRUST_cleanup
                0x00000000401fd5c5                X509_TRUST_get_flags
                0x00000000401fd5c9                X509_TRUST_get0_name
                0x00000000401fd5ce                X509_TRUST_get_trust
                0x00000000401fd5e0                X509v3_get_ext_count
                0x00000000401fd5f9                X509v3_get_ext_by_OBJ
                0x00000000401fd66d                X509v3_get_ext_by_NID
                0x00000000401fd69f                X509v3_get_ext_by_critical
                0x00000000401fd71a                X509v3_get_ext
                0x00000000401fd75d                X509v3_delete_ext
                0x00000000401fd7a0                X509v3_add_ext
                0x00000000401fd8a8                X509_EXTENSION_set_object
                0x00000000401fd8e4                X509_EXTENSION_set_critical
                0x00000000401fd8ff                X509_EXTENSION_set_data
                0x00000000401fd92d                X509_EXTENSION_create_by_OBJ
                0x00000000401fd9f0                X509_EXTENSION_create_by_NID
                0x00000000401fda67                X509_EXTENSION_get_object
                0x00000000401fda76                X509_EXTENSION_get_data
                0x00000000401fda86                X509_EXTENSION_get_critical
                0x00000000401fdaa0                X509_NAME_entry_count
                0x00000000401fdabc                X509_NAME_get_index_by_OBJ
                0x00000000401fdb32                X509_NAME_get_index_by_NID
                0x00000000401fdb64                X509_NAME_get_entry
                0x00000000401fdbaa                X509_NAME_get_text_by_OBJ
                0x00000000401fdc10                X509_NAME_get_text_by_NID
                0x00000000401fdc46                X509_NAME_delete_entry
                0x00000000401fdd1a                X509_NAME_add_entry
                0x00000000401fde92                X509_NAME_ENTRY_set_object
                0x00000000401fdef1                X509_NAME_ENTRY_set_data
                0x00000000401fdfc6                X509_NAME_ENTRY_create_by_OBJ
                0x00000000401fe070                X509_NAME_add_entry_by_OBJ
                0x00000000401fe0b4                X509_NAME_ENTRY_create_by_txt
                0x00000000401fe154                X509_NAME_add_entry_by_txt
                0x00000000401fe198                X509_NAME_ENTRY_create_by_NID
                0x00000000401fe20c                X509_NAME_add_entry_by_NID
                0x00000000401fe250                X509_NAME_ENTRY_get_object
                0x00000000401fe25f                X509_NAME_ENTRY_get_data
                0x00000000401fe270                X509_REQ_set_version
                0x00000000401fe290                X509_REQ_set_subject_name
                0x00000000401fe2bd                X509_REQ_set_pubkey
                0x00000000401fe2ea                d2i_X509_VAL
                0x00000000401fe2fd                i2d_X509_VAL
                0x00000000401fe310                X509_VAL_new
                0x00000000401fe323                X509_VAL_free
                0x00000000401fe336                CRYPTO_cbc128_encrypt
                0x00000000401fe47c                CRYPTO_cbc128_decrypt
                0x00000000401fe7bb                CRYPTO_cfb128_encrypt
                0x00000000401fea3e                CRYPTO_cfb128_1_encrypt
                0x00000000401feb12                CRYPTO_cfb128_8_encrypt
                0x00000000401feb7c                CRYPTO_ofb128_encrypt
                0x00000000401fecb2                i2d_ASN1_BOOLEAN
                0x00000000401fed26                d2i_ASN1_BOOLEAN
                0x00000000401ff00b                ASN1_mbstring_ncopy
                0x00000000401ff524                ASN1_mbstring_copy
                0x00000000401ff540                ASN1_PRINTABLE_type
                0x00000000401ff5ca                ASN1_UNIVERSALSTRING_to_string
                0x00000000401ff6c6                ASN1_STRING_set_default_mask
                0x00000000401ff6ce                ASN1_STRING_get_default_mask
                0x00000000401ff6d6                ASN1_STRING_set_default_mask_asc
                0x00000000401ff795                ASN1_STRING_TABLE_get
                0x00000000401ff7f9                ASN1_STRING_set_by_NID
                0x00000000401ff8a4                ASN1_STRING_TABLE_add
                0x00000000401ff9b8                ASN1_STRING_TABLE_cleanup
                0x00000000401ff9f0                ASN1_seq_unpack
                0x00000000401ffa52                ASN1_seq_pack
                0x00000000401ffb42                ASN1_unpack_string
                0x00000000401ffb92                ASN1_pack_string
                0x00000000401ffcb1                ASN1_item_pack
                0x00000000401ffdc1                ASN1_item_unpack
                0x00000000401ffe20                BN_mod_exp2_mont
                0x00000000402005f0                BN_kronecker
                0x00000000402008c1                BN_get0_nist_prime_192
                0x00000000402008c7                BN_get0_nist_prime_224
                0x00000000402008cd                BN_get0_nist_prime_256
                0x00000000402008d3                BN_get0_nist_prime_384
                0x00000000402008d9                BN_get0_nist_prime_521
                0x00000000402008df                BN_nist_mod_192
                0x0000000040200b5b                BN_nist_mod_224
                0x0000000040200eb1                BN_nist_mod_256
                0x0000000040201388                BN_nist_mod_384
                0x00000000402019c6                BN_nist_mod_521
                0x0000000040201ba0                BN_mod_sqrt
                0x0000000040202517                CONF_modules_load
                0x00000000402029d4                CONF_modules_finish
                0x0000000040202a41                CONF_modules_unload
                0x0000000040202ae3                CONF_module_add
                0x0000000040202b08                CONF_modules_free
                0x0000000040202b20                CONF_imodule_get_name
                0x0000000040202b25                CONF_imodule_get_value
                0x0000000040202b2a                CONF_imodule_get_usr_data
                0x0000000040202b2f                CONF_imodule_set_usr_data
                0x0000000040202b34                CONF_imodule_get_module
                0x0000000040202b38                CONF_imodule_get_flags
                0x0000000040202b3d                CONF_imodule_set_flags
                0x0000000040202b42                CONF_module_get_usr_data
                0x0000000040202b47                CONF_module_set_usr_data
                0x0000000040202b4c                CONF_get1_default_config_file
                0x0000000040202bc8                CONF_modules_load_file
                0x0000000040202c81                CONF_parse_list
                0x0000000040202d90                DSO_set_default_method
                0x0000000040202d98                DSO_get_default_method
                0x0000000040202da0                DSO_get_method
                0x0000000040202da4                DSO_set_method
                0x0000000040202dab                DSO_new_method
                0x0000000040202eaa                DSO_new
                0x0000000040202ebd                DSO_free
                0x0000000040202fca                DSO_flags
                0x0000000040202fd9                DSO_up_ref
                0x000000004020302e                DSO_bind_var
                0x00000000402030c1                DSO_bind_func
                0x0000000040203154                DSO_ctrl
                0x00000000402031ec                DSO_set_name_converter
                0x0000000040203234                DSO_get_filename
                0x000000004020326b                DSO_set_filename
                0x000000004020334f                DSO_load
                0x00000000402034e8                DSO_merge
                0x000000004020354c                DSO_convert_filename
                0x000000004020364c                DSO_get_loaded_filename
                0x0000000040203683                DSO_pathbyaddr
                0x00000000402036e0                DSO_global_lookup
                0x000000004020372b                DSO_METHOD_openssl
                0x0000000040203740                ec_GF2m_simple_is_at_infinity
                0x000000004020374b                ec_GF2m_simple_points_make_affine
                0x00000000402037a2                ec_GF2m_simple_group_init
                0x00000000402037ce                ec_GF2m_simple_point_init
                0x00000000402037f4                ec_GF2m_simple_group_finish
                0x000000004020381b                ec_GF2m_simple_point_finish
                0x000000004020383c                ec_GF2m_simple_group_clear_finish
                0x000000004020389f                ec_GF2m_simple_point_clear_finish
                0x00000000402038c7                ec_GF2m_simple_group_get_curve
                0x0000000040203938                ec_GF2m_simple_point_copy
                0x000000004020399f                ec_GF2m_simple_group_copy
                0x0000000040203b3b                ec_GF2m_simple_group_set_curve
                0x0000000040203cd7                ec_GF2m_simple_group_get_degree
                0x0000000040203cec                ec_GF2m_simple_group_check_discriminant
                0x0000000040203da5                ec_GF2m_simple_point_set_to_infinity
                0x0000000040203dc8                ec_GF2m_simple_point_set_affine_coordinates
                0x0000000040203e8f                ec_GF2m_simple_point_get_affine_coordinates
                0x0000000040203f6d                ec_GF2m_simple_is_on_curve
                0x000000004020410e                ec_GF2m_simple_set_compressed_coordinates
                0x00000000402043a3                ec_GF2m_simple_cmp
                0x0000000040204540                ec_GF2m_simple_make_affine
                0x000000004020464e                ec_GF2m_simple_point2oct
                0x0000000040204a03                ec_GF2m_simple_oct2point
                0x0000000040204dbf                ec_GF2m_simple_add
                0x00000000402052a8                ec_GF2m_simple_dbl
                0x00000000402052bc                ec_GF2m_simple_invert
                0x000000004020530a                ec_GF2m_simple_field_mul
                0x000000004020532b                ec_GF2m_simple_field_sqr
                0x0000000040205349                ec_GF2m_simple_field_div
                0x0000000040205367                EC_GF2m_simple_method
                0x000000004020536d                d2i_ECDSA_SIG
                0x0000000040205380                i2d_ECDSA_SIG
                0x0000000040205393                ECDSA_SIG_new
                0x00000000402053a6                ECDSA_SIG_free
                0x00000000402053d2                ERR_print_errors_cb
                0x00000000402054a2                ERR_print_errors
                0x00000000402054b8                PKCS12_item_pack_safebag
                0x0000000040205596                PKCS12_MAKE_KEYBAG
                0x00000000402055ed                PKCS12_MAKE_SHKEYBAG
                0x00000000402056cf                PKCS12_pack_p7data
                0x000000004020579b                PKCS12_unpack_p7data
                0x00000000402057e3                PKCS12_pack_p7encdata
                0x0000000040205977                PKCS12_unpack_p7encdata
                0x00000000402059c8                PKCS12_decrypt_skey
                0x00000000402059da                PKCS12_pack_authsafes
                0x0000000040205a04                PKCS12_unpack_authsafes
                0x0000000040205a54                d2i_PKCS12
                0x0000000040205a67                i2d_PKCS12
                0x0000000040205a7a                PKCS12_new
                0x0000000040205a8d                PKCS12_free
                0x0000000040205aa0                d2i_PKCS12_MAC_DATA
                0x0000000040205ab3                i2d_PKCS12_MAC_DATA
                0x0000000040205ac6                PKCS12_MAC_DATA_new
                0x0000000040205ad9                PKCS12_MAC_DATA_free
                0x0000000040205aec                d2i_PKCS12_BAGS
                0x0000000040205aff                i2d_PKCS12_BAGS
                0x0000000040205b12                PKCS12_BAGS_new
                0x0000000040205b25                PKCS12_BAGS_free
                0x0000000040205b38                d2i_PKCS12_SAFEBAG
                0x0000000040205b4b                i2d_PKCS12_SAFEBAG
                0x0000000040205b5e                PKCS12_SAFEBAG_new
                0x0000000040205b71                PKCS12_SAFEBAG_free
                0x0000000040205b84                PKCS12_pbe_crypt
                0x0000000040205ce9                PKCS12_item_decrypt_d2i
                0x0000000040205db9                PKCS12_item_i2d_encrypt
                0x0000000040205ee7                PKCS8_encrypt
                0x000000004020600c                X509_policy_tree_level_count
                0x000000004020601b                X509_policy_tree_get0_level
                0x0000000040206045                X509_policy_tree_get0_policies
                0x0000000040206055                X509_policy_tree_get0_user_policies
                0x0000000040206070                X509_policy_level_node_count
                0x000000004020609c                X509_policy_level_get0_node
                0x00000000402060ca                X509_policy_node_get0_policy
                0x00000000402060dd                X509_policy_node_get0_qualifiers
                0x00000000402060f0                X509_policy_node_get0_parent
                0x0000000040206122                policy_node_cmp_new
                0x0000000040206135                tree_find_sk
                0x0000000040206172                level_find_node
                0x00000000402061d4                level_add_node
                0x00000000402062ba                policy_node_free
                0x00000000402062c8                policy_node_match
                0x00000000402064bc                i2v_GENERAL_NAME
                0x00000000402066e4                i2v_GENERAL_NAMES
                0x0000000040206740                GENERAL_NAME_print
                0x00000000402068cb                a2i_GENERAL_NAME
                0x0000000040206c66                v2i_GENERAL_NAME_ex
                0x0000000040206dc0                v2i_GENERAL_NAME
                0x0000000040207105                v2i_GENERAL_NAMES
                0x00000000402071e3                d2i_BASIC_CONSTRAINTS
                0x00000000402071f6                i2d_BASIC_CONSTRAINTS
                0x0000000040207209                BASIC_CONSTRAINTS_new
                0x000000004020721c                BASIC_CONSTRAINTS_free
                0x000000004020796f                X509V3_EXT_nconf
                0x0000000040207a33                X509V3_EXT_nconf_nid
                0x0000000040207aaf                X509V3_EXT_i2d
                0x0000000040207afe                X509V3_EXT_add_nconf_sk
                0x0000000040207b9f                X509V3_EXT_add_nconf
                0x0000000040207bc0                X509V3_EXT_CRL_add_nconf
                0x0000000040207be1                X509V3_EXT_REQ_add_nconf
                0x0000000040207c39                X509V3_get_string
                0x0000000040207c87                X509V3_get_section
                0x0000000040207cd6                X509V3_string_free
                0x0000000040207cf8                X509V3_section_free
                0x0000000040207d1a                X509V3_set_nconf
                0x0000000040207d27                X509V3_set_ctx
                0x0000000040207d3b                X509V3_EXT_conf
                0x0000000040207d75                X509V3_EXT_conf_nid
                0x0000000040207dad                X509V3_set_conf_lhash
                0x0000000040207dba                X509V3_EXT_add_conf
                0x0000000040207df4                X509V3_EXT_CRL_add_conf
                0x0000000040207e2e                X509V3_EXT_REQ_add_conf
                0x0000000040207faa                ACCESS_DESCRIPTION_free
                0x0000000040207fbd                d2i_ACCESS_DESCRIPTION
                0x0000000040207fd0                i2d_ACCESS_DESCRIPTION
                0x0000000040207fe3                ACCESS_DESCRIPTION_new
                0x0000000040208212                d2i_AUTHORITY_INFO_ACCESS
                0x0000000040208225                i2d_AUTHORITY_INFO_ACCESS
                0x0000000040208238                AUTHORITY_INFO_ACCESS_new
                0x000000004020824b                AUTHORITY_INFO_ACCESS_free
                0x000000004020825e                i2a_ACCESS_DESCRIPTION
                0x00000000402082ab                X509V3_EXT_add
                0x0000000040208334                X509V3_EXT_get_nid
                0x00000000402083b3                X509V3_EXT_get
                0x00000000402083d4                X509V3_EXT_add_list
                0x0000000040208402                X509V3_EXT_add_alias
                0x00000000402084fc                X509V3_EXT_cleanup
                0x0000000040208521                X509V3_add_standard_extensions
                0x0000000040208527                X509V3_EXT_d2i
                0x0000000040208580                X509V3_get_d2i
                0x00000000402086af                X509V3_add1_i2d
                0x0000000040209618                d2i_PROXY_POLICY
                0x000000004020962b                i2d_PROXY_POLICY
                0x000000004020963e                PROXY_POLICY_new
                0x0000000040209651                PROXY_POLICY_free
                0x0000000040209664                d2i_PROXY_CERT_INFO_EXTENSION
                0x0000000040209677                i2d_PROXY_CERT_INFO_EXTENSION
                0x000000004020968a                PROXY_CERT_INFO_EXTENSION_new
                0x000000004020969d                PROXY_CERT_INFO_EXTENSION_free
                0x0000000040209744                d2i_PKEY_USAGE_PERIOD
                0x0000000040209757                i2d_PKEY_USAGE_PERIOD
                0x000000004020976a                PKEY_USAGE_PERIOD_new
                0x000000004020977d                PKEY_USAGE_PERIOD_free
                0x0000000040209790                i2s_ASN1_OCTET_STRING
                0x00000000402097a8                s2i_ASN1_OCTET_STRING
                0x0000000040209a3d                d2i_SXNETID
                0x0000000040209a50                i2d_SXNETID
                0x0000000040209a63                SXNETID_new
                0x0000000040209a76                SXNETID_free
                0x0000000040209a89                d2i_SXNET
                0x0000000040209a9c                i2d_SXNET
                0x0000000040209aaf                SXNET_new
                0x0000000040209ac2                SXNET_free
                0x0000000040209ad5                SXNET_get_id_INTEGER
                0x0000000040209b30                SXNET_add_id_INTEGER
                0x0000000040209cc8                SXNET_add_id_asc
                0x0000000040209d80                SXNET_add_id_ulong
                0x0000000040209dfd                SXNET_get_id_asc
                0x0000000040209e5e                SXNET_get_id_ulong
                0x0000000040209ed5                X509_get_default_private_dir
                0x0000000040209edb                X509_get_default_cert_area
                0x0000000040209ee1                X509_get_default_cert_dir
                0x0000000040209ee7                X509_get_default_cert_file
                0x0000000040209eed                X509_get_default_cert_dir_env
                0x0000000040209ef3                X509_get_default_cert_file_env
                0x0000000040209f34                i2d_ASN1_SET
                0x000000004020a1bd                d2i_ASN1_SET
                0x000000004020aa63                ASN1_generate_v3
                0x000000004020b325                ASN1_generate_nconf
                0x000000004020b527                BN_GF2m_add
                0x000000004020b5fd                BN_GF2m_mod_arr
                0x000000004020b88f                BN_GF2m_mod_sqr_arr
                0x000000004020ba0e                BN_GF2m_mod_mul_arr
                0x000000004020bc85                BN_GF2m_mod_exp_arr
                0x000000004020bda1                BN_GF2m_mod_sqrt_arr
                0x000000004020be32                BN_GF2m_mod_solve_quad_arr
                0x000000004020c1f6                BN_GF2m_poly2arr
                0x000000004020c287                BN_GF2m_mod
                0x000000004020c331                BN_GF2m_mod_inv
                0x000000004020c512                BN_GF2m_mod_mul
                0x000000004020c5ce                BN_GF2m_mod_div
                0x000000004020c658                BN_GF2m_mod_sqr
                0x000000004020c70c                BN_GF2m_mod_exp
                0x000000004020c7c8                BN_GF2m_mod_sqrt
                0x000000004020c87c                BN_GF2m_mod_solve_quad
                0x000000004020c930                BN_GF2m_arr2poly
                0x000000004020c983                BN_GF2m_mod_inv_arr
                0x000000004020c9f5                BN_GF2m_mod_div_arr
                0x000000004020ca80                CONF_set_nconf
                0x000000004020caba                CONF_set_default_method
                0x000000004020cac7                CONF_load
                0x000000004020caf4                NCONF_new
                0x000000004020cb34                NCONF_free
                0x000000004020cb49                NCONF_free_data
                0x000000004020cb5e                CONF_free
                0x000000004020cb7e                NCONF_load
                0x000000004020cbb6                NCONF_load_bio
                0x000000004020cbee                CONF_load_bio
                0x000000004020cc2e                NCONF_get_section
                0x000000004020cc8e                CONF_get_section
                0x000000004020ccc3                NCONF_get_string
                0x000000004020cd50                CONF_get_string
                0x000000004020cd8c                NCONF_get_number_e
                0x000000004020ce28                CONF_get_number
                0x000000004020ce81                NCONF_dump_bio
                0x000000004020ceb9                CONF_dump_bio
                0x000000004020cee1                DSO_METHOD_null
                0x000000004020d7e8                ec_GF2m_simple_mul
                0x000000004020da83                ec_GF2m_precompute_mult
                0x000000004020da91                ec_GF2m_have_precompute_mult
                0x000000004020daa0                i2a_ASN1_INTEGER
                0x000000004020dbe2                a2i_ASN1_INTEGER
                0x000000004020decf                i2a_ASN1_STRING
                0x000000004020dfe4                a2i_ASN1_STRING
                0x000000004020e28c                d2i_OCSP_SIGNATURE
                0x000000004020e29f                i2d_OCSP_SIGNATURE
                0x000000004020e2b2                OCSP_SIGNATURE_new
                0x000000004020e2c5                OCSP_SIGNATURE_free
                0x000000004020e2d8                d2i_OCSP_CERTID
                0x000000004020e2eb                i2d_OCSP_CERTID
                0x000000004020e2fe                OCSP_CERTID_new
                0x000000004020e311                OCSP_CERTID_free
                0x000000004020e324                d2i_OCSP_ONEREQ
                0x000000004020e337                i2d_OCSP_ONEREQ
                0x000000004020e34a                OCSP_ONEREQ_new
                0x000000004020e35d                OCSP_ONEREQ_free
                0x000000004020e370                d2i_OCSP_REQINFO
                0x000000004020e383                i2d_OCSP_REQINFO
                0x000000004020e396                OCSP_REQINFO_new
                0x000000004020e3a9                OCSP_REQINFO_free
                0x000000004020e3bc                d2i_OCSP_REQUEST
                0x000000004020e3cf                i2d_OCSP_REQUEST
                0x000000004020e3e2                OCSP_REQUEST_new
                0x000000004020e3f5                OCSP_REQUEST_free
                0x000000004020e408                d2i_OCSP_RESPBYTES
                0x000000004020e41b                i2d_OCSP_RESPBYTES
                0x000000004020e42e                OCSP_RESPBYTES_new
                0x000000004020e441                OCSP_RESPBYTES_free
                0x000000004020e454                d2i_OCSP_RESPONSE
                0x000000004020e467                i2d_OCSP_RESPONSE
                0x000000004020e47a                OCSP_RESPONSE_new
                0x000000004020e48d                OCSP_RESPONSE_free
                0x000000004020e4a0                d2i_OCSP_RESPID
                0x000000004020e4b3                i2d_OCSP_RESPID
                0x000000004020e4c6                OCSP_RESPID_new
                0x000000004020e4d9                OCSP_RESPID_free
                0x000000004020e4ec                d2i_OCSP_REVOKEDINFO
                0x000000004020e4ff                i2d_OCSP_REVOKEDINFO
                0x000000004020e512                OCSP_REVOKEDINFO_new
                0x000000004020e525                OCSP_REVOKEDINFO_free
                0x000000004020e538                d2i_OCSP_CERTSTATUS
                0x000000004020e54b                i2d_OCSP_CERTSTATUS
                0x000000004020e55e                OCSP_CERTSTATUS_new
                0x000000004020e571                OCSP_CERTSTATUS_free
                0x000000004020e584                d2i_OCSP_SINGLERESP
                0x000000004020e597                i2d_OCSP_SINGLERESP
                0x000000004020e5aa                OCSP_SINGLERESP_new
                0x000000004020e5bd                OCSP_SINGLERESP_free
                0x000000004020e5d0                d2i_OCSP_RESPDATA
                0x000000004020e5e3                i2d_OCSP_RESPDATA
                0x000000004020e5f6                OCSP_RESPDATA_new
                0x000000004020e609                OCSP_RESPDATA_free
                0x000000004020e61c                d2i_OCSP_BASICRESP
                0x000000004020e62f                i2d_OCSP_BASICRESP
                0x000000004020e642                OCSP_BASICRESP_new
                0x000000004020e655                OCSP_BASICRESP_free
                0x000000004020e668                d2i_OCSP_CRLID
                0x000000004020e67b                i2d_OCSP_CRLID
                0x000000004020e68e                OCSP_CRLID_new
                0x000000004020e6a1                OCSP_CRLID_free
                0x000000004020e6b4                d2i_OCSP_SERVICELOC
                0x000000004020e6c7                i2d_OCSP_SERVICELOC
                0x000000004020e6da                OCSP_SERVICELOC_new
                0x000000004020e6ed                OCSP_SERVICELOC_free
                0x000000004020ea99                i2v_ASN1_BIT_STRING
                0x000000004020eaea                v2i_ASN1_BIT_STRING
                0x000000004020ec60                i2s_ASN1_ENUMERATED_TABLE
                0x000000004020ee1d                d2i_EXTENDED_KEY_USAGE
                0x000000004020ee30                i2d_EXTENDED_KEY_USAGE
                0x000000004020ee43                EXTENDED_KEY_USAGE_new
                0x000000004020ee56                EXTENDED_KEY_USAGE_free
                0x000000004020f0bd                _CONF_get_section
                0x000000004020f0f4                _CONF_get_section_values
                0x000000004020f112                _CONF_add_string
                0x000000004020f17e                _CONF_get_string
                0x000000004020f211                _CONF_new_data
                0x000000004020f24b                _CONF_free_data
                0x000000004020f28f                _CONF_new_section
                0x00000000402101fd                NCONF_default
                0x0000000040210203                NCONF_WIN32
                0x0000000040210209                codeend = .

.iplt           0x0000000040210210        0x0 load address 0x0000000000210210
 .iplt          0x0000000000000000        0x0 output.o

.rodata         0x0000000040210220    0x343cb load address 0x0000000000210220
 .rodata        0x0000000040210220    0x343cb output.o
                0x000000004021d8a0                BN_version
                0x000000004021db80                DES_SPtrans
                0x000000004021eb80                DH_version
                0x0000000040220060                OSSL_DES_version
                0x00000000402200a0                OSSL_libdes_version
                0x0000000040220180                EVP_version
                0x0000000040220240                IDEA_version
                0x0000000040220280                lh_version
                0x00000000402208c0                MD4_version
                0x0000000040220900                MD5_version
                0x000000004022d4a0                PEM_version
                0x000000004022d4e0                PKCS7_ATTR_VERIFY_it
                0x000000004022d560                PKCS7_ATTR_SIGN_it
                0x000000004022d5e0                PKCS7_DIGEST_it
                0x000000004022d6c0                PKCS7_ENCRYPT_it
                0x000000004022d760                PKCS7_SIGN_ENVELOPE_it
                0x000000004022d8c0                PKCS7_ENC_CONTENT_it
                0x000000004022d980                PKCS7_RECIP_INFO_it
                0x000000004022daa0                PKCS7_ENVELOPE_it
                0x000000004022db60                PKCS7_ISSUER_AND_SERIAL_it
                0x000000004022dc00                PKCS7_SIGNER_INFO_it
                0x000000004022dda0                PKCS7_SIGNED_it
                0x000000004022dee0                PKCS7_it
                0x000000004022e260                RC2_version
                0x000000004022e3a0                RC4_version
                0x000000004022e3e0                RMD160_version
                0x000000004022e420                RSAPublicKey_it
                0x000000004022e500                RSAPrivateKey_it
                0x000000004022e700                RSA_version
                0x000000004022f900                SHA1_version
                0x000000004022fa40                SHA256_version
                0x000000004022fd00                SHA512_version
                0x000000004022fd40                SHA_version
                0x000000004022fd80                STACK_version
                0x000000004022ffe0                ASN1_SET_ANY_it
                0x0000000040230060                ASN1_SEQUENCE_ANY_it
                0x00000000402300e0                ASN1_OCTET_STRING_NDEF_it
                0x0000000040230120                ASN1_FBOOLEAN_it
                0x0000000040230160                ASN1_TBOOLEAN_it
                0x00000000402301a0                ASN1_BOOLEAN_it
                0x00000000402301e0                DIRECTORYSTRING_it
                0x0000000040230220                DISPLAYTEXT_it
                0x0000000040230260                ASN1_PRINTABLE_it
                0x00000000402302a0                ASN1_SEQUENCE_it
                0x00000000402302e0                ASN1_ANY_it
                0x0000000040230320                ASN1_BMPSTRING_it
                0x0000000040230360                ASN1_UNIVERSALSTRING_it
                0x00000000402303a0                ASN1_VISIBLESTRING_it
                0x00000000402303e0                ASN1_GENERALIZEDTIME_it
                0x0000000040230420                ASN1_UTCTIME_it
                0x0000000040230460                ASN1_GENERALSTRING_it
                0x00000000402304a0                ASN1_IA5STRING_it
                0x00000000402304e0                ASN1_T61STRING_it
                0x0000000040230520                ASN1_PRINTABLESTRING_it
                0x0000000040230560                ASN1_UTF8STRING_it
                0x00000000402305a0                ASN1_OBJECT_it
                0x00000000402305e0                ASN1_NULL_it
                0x0000000040230620                ASN1_OCTET_STRING_it
                0x0000000040230660                ASN1_BIT_STRING_it
                0x00000000402306a0                ASN1_ENUMERATED_it
                0x00000000402306e0                ASN1_INTEGER_it
                0x0000000040230740                X509_version
                0x00000000402308a0                X509_ALGORS_it
                0x0000000040230920                X509_ALGOR_it
                0x00000000402309c0                X509_ATTRIBUTE_it
                0x0000000040230a60                X509_ATTRIBUTE_SET_it
                0x0000000040230b00                CBIGNUM_it
                0x0000000040230b40                BIGNUM_it
                0x0000000040230b80                X509_CRL_it
                0x0000000040230c80                X509_CRL_INFO_it
                0x0000000040230e20                X509_REVOKED_it
                0x0000000040230ee0                X509_EXTENSIONS_it
                0x0000000040230f60                X509_EXTENSION_it
                0x0000000040231020                ZLONG_it
                0x0000000040231060                LONG_it
                0x00000000402310a0                X509_NAME_it
                0x00000000402310e0                x509_name_ff
                0x0000000040231120                X509_NAME_INTERNAL_it
                0x00000000402311a0                X509_NAME_ENTRIES_it
                0x0000000040231220                X509_NAME_ENTRY_it
                0x00000000402312c0                X509_PUBKEY_it
                0x00000000402313a0                X509_REQ_it
                0x00000000402314a0                X509_REQ_INFO_it
                0x00000000402315c0                X509_SIG_it
                0x0000000040231660                NETSCAPE_SPKI_it
                0x0000000040231720                NETSCAPE_SPKAC_it
                0x00000000402317c0                X509_it
                0x00000000402318c0                X509_CINF_it
                0x0000000040231ae0                X509_CERT_PAIR_it
                0x0000000040231b80                X509_CERT_AUX_it
                0x0000000040232120                rsa_pkey_meth
                0x0000000040232200                dh_pkey_meth
                0x00000000402322e0                dsa_pkey_meth
                0x00000000402323c0                ec_pkey_meth
                0x00000000402324a0                hmac_pkey_meth
                0x00000000402325c0                rsa_asn1_meths
                0x0000000040232740                dh_asn1_meth
                0x0000000040232800                dsa_asn1_meths
                0x0000000040232ba0                eckey_asn1_meth
                0x0000000040232c60                hmac_asn1_meth
                0x0000000040233da0                CMS_Receipt_it
                0x0000000040233e80                CMS_ReceiptRequest_it
                0x0000000040233f40                CMS_ReceiptsFrom_it
                0x0000000040233fe0                CMS_Attributes_Verify_it
                0x0000000040234060                CMS_Attributes_Sign_it
                0x00000000402340e0                CMS_ContentInfo_it
                0x00000000402343a0                CMS_CompressedData_it
                0x0000000040234460                CMS_AuthenticatedData_it
                0x0000000040234620                CMS_EncryptedData_it
                0x00000000402346e0                CMS_DigestedData_it
                0x00000000402347c0                CMS_EnvelopedData_it
                0x00000000402348e0                CMS_RecipientInfo_it
                0x0000000040234a40                CMS_OtherRecipientInfo_it
                0x0000000040234ae0                CMS_PasswordRecipientInfo_it
                0x0000000040234bc0                CMS_KEKRecipientInfo_it
                0x0000000040234ca0                CMS_KEKIdentifier_it
                0x0000000040234d60                CMS_KeyAgreeRecipientInfo_it
                0x0000000040234e80                CMS_OriginatorIdentifierOrKey_it
                0x0000000040234f40                CMS_OriginatorPublicKey_it
                0x0000000040234fe0                CMS_RecipientEncryptedKey_it
                0x0000000040235080                CMS_KeyAgreeRecipientIdentifier_it
                0x0000000040235120                CMS_RecipientKeyIdentifier_it
                0x00000000402351e0                CMS_OtherKeyAttribute_it
                0x0000000040235280                CMS_KeyTransRecipientInfo_it
                0x0000000040235360                CMS_EncryptedContentInfo_it
                0x0000000040235420                CMS_OriginatorInfo_it
                0x00000000402354c0                CMS_SignedData_it
                0x0000000040235600                CMS_RevocationInfoChoice_it
                0x00000000402356a0                CMS_OtherRevocationInfoFormat_it
                0x0000000040235740                CMS_SignerInfo_it
                0x00000000402358e0                CMS_EncapsulatedContentInfo_it
                0x0000000040235980                CMS_SignerIdentifier_it
                0x0000000040235a20                CMS_CertificateChoices_it
                0x0000000040235b40                CMS_OtherCertificateFormat_it
                0x0000000040235be0                CMS_IssuerAndSerialNumber_it
                0x0000000040235e60                ASN1_TIME_it
                0x0000000040235ee0                ASN1_version
                0x0000000040236020                BF_version
                0x0000000040238240                CAST_version
                0x0000000040238300                CAST_S_table7
                0x0000000040238700                CAST_S_table6
                0x0000000040238b00                CAST_S_table5
                0x0000000040238f00                CAST_S_table4
                0x0000000040239300                CAST_S_table3
                0x0000000040239700                CAST_S_table2
                0x0000000040239b00                CAST_S_table1
                0x0000000040239f00                CAST_S_table0
                0x000000004023a540                DHparams_it
                0x000000004023a640                DSAPublicKey_it
                0x000000004023a720                dsa_pub_internal_it
                0x000000004023a800                DSAparams_it
                0x000000004023a900                DSAPrivateKey_it
                0x000000004023aa80                DSA_SIG_it
                0x000000004023ab60                DSA_version
                0x000000004023aba0                EC_PRIVATEKEY_it
                0x000000004023ac80                ECPKPARAMETERS_it
                0x000000004023ad40                ECPARAMETERS_it
                0x000000004023ae80                X9_62_CURVE_it
                0x000000004023af40                X9_62_FIELDID_it
                0x000000004023b0c0                X9_62_CHARACTERISTIC_TWO_it
                0x000000004023b2a0                X9_62_PENTANOMIAL_it
                0x000000004023ece0                ECDH_version
                0x000000004023f0e0                ECDSA_version
                0x000000004023f3e0                RAND_version
                0x000000004023f420                NETSCAPE_CERT_SEQUENCE_it
                0x000000004023f500                PBEPARAM_it
                0x000000004023f5a0                PBKDF2PARAM_it
                0x000000004023f680                PBE2PARAM_it
                0x000000004023f720                PKCS8_PRIV_KEY_INFO_it
                0x000000004023f8e0                AUTHORITY_KEYID_it
                0x000000004023f9a0                NOTICEREF_it
                0x000000004023fa40                USERNOTICE_it
                0x000000004023fae0                POLICYQUALINFO_it
                0x000000004023fc60                POLICYINFO_it
                0x000000004023fd00                CERTIFICATEPOLICIES_it
                0x000000004023fd80                v3_cpols
                0x000000004023fe00                v3_idp
                0x000000004023fe80                ISSUING_DIST_POINT_it
                0x000000004023ffc0                CRL_DIST_POINTS_it
                0x0000000040240040                DIST_POINT_it
                0x0000000040240100                DIST_POINT_NAME_it
                0x00000000402402e0                v3_freshest_crl
                0x0000000040240360                v3_crld
                0x00000000402404c0                GENERAL_NAMES_it
                0x0000000040240540                GENERAL_NAME_it
                0x0000000040240700                EDIPARTYNAME_it
                0x00000000402407a0                OTHERNAME_it
                0x0000000040240840                NAME_CONSTRAINTS_it
                0x00000000402408e0                GENERAL_SUBTREE_it
                0x00000000402409a0                v3_name_constraints
                0x0000000040240a20                POLICY_CONSTRAINTS_it
                0x0000000040240ac0                v3_policy_constraints
                0x0000000040240b40                POLICY_MAPPINGS_it
                0x0000000040240bc0                POLICY_MAPPING_it
                0x0000000040240c60                v3_policy_mappings
                0x0000000040240d40                X509_VAL_it
                0x00000000402417e0                ECDSA_SIG_it
                0x0000000040241880                PKCS12_AUTHSAFES_it
                0x0000000040241900                PKCS12_SAFEBAGS_it
                0x0000000040241980                PKCS12_SAFEBAG_it
                0x0000000040241be0                PKCS12_BAGS_it
                0x0000000040241da0                PKCS12_MAC_DATA_it
                0x0000000040241e60                PKCS12_it
                0x0000000040242000                v3_alt
                0x0000000040242140                BASIC_CONSTRAINTS_it
                0x00000000402421e0                v3_bcons
                0x0000000040242260                AUTHORITY_INFO_ACCESS_it
                0x00000000402422e0                ACCESS_DESCRIPTION_it
                0x0000000040242380                v3_sinfo
                0x0000000040242400                v3_info
                0x0000000040242480                v3_ocsp_serviceloc
                0x0000000040242500                v3_ocsp_nocheck
                0x0000000040242580                v3_ocsp_nonce
                0x0000000040242600                v3_crl_hold
                0x0000000040242680                v3_crl_invdate
                0x0000000040242700                v3_ocsp_acutoff
                0x0000000040242780                v3_ocsp_crlid
                0x0000000040242800                v3_pci
                0x0000000040242880                PROXY_CERT_INFO_EXTENSION_it
                0x0000000040242920                PROXY_POLICY_it
                0x00000000402429c0                PKEY_USAGE_PERIOD_it
                0x0000000040242a60                v3_pkey_usage_period
                0x0000000040242ae0                v3_skey_id
                0x0000000040242b60                SXNET_it
                0x0000000040242c00                SXNETID_it
                0x0000000040242ca0                v3_sxnet
                0x00000000402431c0                CONF_version
                0x0000000040243200                OCSP_SERVICELOC_it
                0x00000000402432a0                OCSP_CRLID_it
                0x0000000040243360                OCSP_BASICRESP_it
                0x0000000040243440                OCSP_RESPDATA_it
                0x0000000040243560                OCSP_SINGLERESP_it
                0x0000000040243680                OCSP_CERTSTATUS_it
                0x0000000040243740                OCSP_REVOKEDINFO_it
                0x00000000402437e0                OCSP_RESPID_it
                0x0000000040243880                OCSP_RESPONSE_it
                0x0000000040243920                OCSP_RESPBYTES_it
                0x00000000402439c0                OCSP_REQUEST_it
                0x0000000040243a60                OCSP_REQINFO_it
                0x0000000040243b40                OCSP_ONEREQ_it
                0x0000000040243be0                OCSP_CERTID_it
                0x0000000040243cc0                OCSP_SIGNATURE_it
                0x0000000040243d80                v3_akey_id
                0x0000000040243e00                v3_key_usage
                0x0000000040243e80                v3_nscert
                0x0000000040243f00                v3_crl_reason
                0x0000000040243f80                EXTENDED_KEY_USAGE_it
                0x0000000040244000                v3_ocsp_accresp
                0x0000000040244080                v3_ext_ku
                0x0000000040244100                v3_ns_ia5_list
                0x0000000040244440                v3_inhibit_anyp
                0x00000000402444c0                v3_delta_crl
                0x0000000040244540                v3_crl_num
                0x00000000402445c0                CONF_def_version

.rodata.str1.8  0x00000000402445f0     0x97f8 load address 0x00000000002445f0
 .rodata.str1.8
                0x00000000402445f0     0x97f8 output.o
                                       0x9b25 (size before relaxing)

.rodata.str1.1  0x000000004024dde8    0x126a6 load address 0x000000000024dde8
 .rodata.str1.1
                0x000000004024dde8    0x126a6 output.o
                                      0x14a85 (size before relaxing)

.eh_frame       0x0000000040260490    0x37a28 load address 0x0000000000260490
 .eh_frame      0x0000000040260490    0x37a28 output.o

.eh_frame_hdr   0x0000000040297eb8        0x8 load address 0x0000000000297eb8
 .eh_frame_hdr  0x0000000040297eb8        0x8 output.o

.note.gnu.build-id
                0x0000000040297ec0      0x288 load address 0x0000000000297ec0
 .note.gnu.build-id
                0x0000000040297ec0      0x288 output.o

.rela.dyn       0x0000000040298148        0x0 load address 0x0000000000298148
 .rela.iplt     0x0000000000000000        0x0 output.o
 .rela.text     0x0000000000000000        0x0 output.o
 .rela.entry.text
                0x0000000000000000        0x0 output.o

.data           0x0000000040299000   0xb55e20 load address 0x0000000000299000
                0x0000000040299000                data = .
 *(.data)
 .data          0x0000000040299000   0xb555cf output.o
                0x0000000040299008                uefi_memory_map_size
                0x0000000040299020                config
                0x00000000402a9210                vmm_start_phys
                0x00000000402a9214                use_pae
                0x00000000402a9430                savemsr_index
                0x00000000402ae000                calluefi
                0x00000000402ae20c                calluefi_uefi_gdtr
                0x00000000402ae21c                calluefi_uefi_idtr
                0x00000000402ae22c                calluefi_uefi_ldtr
                0x00000000402ae234                calluefi_uefi_sregs
                0x00000000402ae244                calluefi_uefi_cr3
                0x00000000402ae24c                guest_int0x15_hook
                0x00000000402ae269                guest_int0x15_e801_fake_ax
                0x00000000402ae26c                guest_int0x15_e801_fake_bx
                0x00000000402ae27d                guest_int0x15_orig
                0x00000000402ae292                guest_int0x15_e820_data_minus0x18
                0x00000000402ae29a                guest_int0x15_e820_end
                0x00000000402ae2c0                guest_int0x15_hook_end
                0x00000000402af2c4                wakeup_entry_start
                0x00000000402af2cd                wakeup_entry_addr
                0x00000000402af2f3                wakeup_entry_cr4
                0x00000000402af2fc                wakeup_entry_cr3
                0x00000000402af305                wakeup_entry_cr0
                0x00000000402af314                wakeup_entry_gdtr
                0x00000000402af31e                wakeup_entry_end
                0x00000000402af3a0                ata_bm_handler_table
                0x00000000402af400                ata_ctlblk_handler_table
                0x00000000402af420                ata_cmdblk_handler_table
                0x00000000402afeb0                usb_log_level
                0x00000000402b0900                hSessionCnt
                0x00000000402b0908                hObjectCnt
                0x00000000402b1100                g_rgSCardT1Pci
                0x00000000402b1110                g_rgSCardT0Pci
                0x00000000402b1120                FI
                0x00000000402b1160                DI
                0x00000000402b57a0                default_pctx
                0x00000000402b8a20                rand_ssleay_meth
                0x0000000040dee5d0                . = ALIGN (0x8)
 *fill*         0x0000000040dee5cf        0x1 
                0x0000000040dee5d0                __initfunc_start = .
 *(.initfunc)
 .initfunc      0x0000000040dee5d0      0x6b0 output.o
                0x0000000040dee5d0                __initfunc_acpi_init_paral
                0x0000000040dee5e0                __initfunc_acpi_init_global
                0x0000000040dee5f0                __initfunc_beep_init_msg
                0x0000000040dee600                __initfunc_cache_init_pass
                0x0000000040dee610                __initfunc_cache_init_vcpu
                0x0000000040dee620                __initfunc_update_mtrr_and_pat
                0x0000000040dee630                __initfunc_cache_init_pcpu
                0x0000000040dee640                __initfunc_callrealmode_panic
                0x0000000040dee650                __initfunc_callrealmode_init_global
                0x0000000040dee660                __initfunc_cpuid_init
                0x0000000040dee670                __initfunc_cpuid_pass_init
                0x0000000040dee680                __initfunc_cpu_mmu_spt_init_pcpu
                0x0000000040dee690                __initfunc_cpu_mmu_spt_init_global
                0x0000000040dee6a0                __initfunc_exint_pass_init
                0x0000000040dee6b0                __initfunc_gmm_pass_init
                0x0000000040dee6c0                __initfunc_install_int0x15_hook
                0x0000000040dee6d0                __initfunc_idman_init
                0x0000000040dee6e0                __initfunc_idman_init_global
                0x0000000040dee6f0                __initfunc_int_wakeup
                0x0000000040dee700                __initfunc_int_init_global
                0x0000000040dee710                __initfunc_io_io_init
                0x0000000040dee720                __initfunc_setiohooks
                0x0000000040dee730                __initfunc_io_iopass_init
                0x0000000040dee740                __initfunc_keyboard_init_msg
                0x0000000040dee750                __initfunc_localapic_init2
                0x0000000040dee760                __initfunc_localapic_init
                0x0000000040dee770                __initfunc_get_shiftflags
                0x0000000040dee780                __initfunc_copy_minios
                0x0000000040dee790                __initfunc_print_boot_msg
                0x0000000040dee7a0                __initfunc_debug_on_shift_key
                0x0000000040dee7b0                __initfunc_wait_for_create_pass_vm
                0x0000000040dee7c0                __initfunc_create_pass_vm
                0x0000000040dee7d0                __initfunc_virtualization_init_pcpu
                0x0000000040dee7e0                __initfunc_unmap_user_area
                0x0000000040dee7f0                __initfunc_mm_init_global
                0x0000000040dee800                __initfunc_mmio_debug
                0x0000000040dee810                __initfunc_mmio_init
                0x0000000040dee820                __initfunc_msg_init_global
                0x0000000040dee830                __initfunc_msr_init
                0x0000000040dee840                __initfunc_msr_pass_init
                0x0000000040dee850                __initfunc_nmi_pass_init_pcpu
                0x0000000040dee860                __initfunc_nmi_pass_init
                0x0000000040dee870                __initfunc_panic_init_pcpu
                0x0000000040dee880                __initfunc_panic_init_msg
                0x0000000040dee890                __initfunc_panic_init_global3
                0x0000000040dee8a0                __initfunc_panic_init_global
                0x0000000040dee8b0                __initfunc_printf_init_global
                0x0000000040dee8c0                __initfunc_process_wakeup
                0x0000000040dee8d0                __initfunc_process_init_ap
                0x0000000040dee8e0                __initfunc_process_init_global
                0x0000000040dee8f0                __initfunc_random_init_config0
                0x0000000040dee900                __initfunc_random_init_global
                0x0000000040dee910                __initfunc_reboot_init_msg
                0x0000000040dee920                __initfunc_segment_init_global
                0x0000000040dee930                __initfunc_serial_init_msg
                0x0000000040dee940                __initfunc_sleep_init_msg
                0x0000000040dee950                __initfunc_sleep_init_global
                0x0000000040dee960                __initfunc_svm_panic
                0x0000000040dee970                __initfunc_sx_init_pass_init
                0x0000000040dee980                __initfunc_thread_init_pcpu
                0x0000000040dee990                __initfunc_thread_init_global
                0x0000000040dee9a0                __initfunc_time_wakeup
                0x0000000040dee9b0                __initfunc_time_init_msg
                0x0000000040dee9c0                __initfunc_time_init_dbsp
                0x0000000040dee9d0                __initfunc_time_init_pcpu
                0x0000000040dee9e0                __initfunc_time_init_global_status
                0x0000000040dee9f0                __initfunc_time_init_global
                0x0000000040deea00                __initfunc_timer_init_global
                0x0000000040deea10                __initfunc_tty_init_msg
                0x0000000040deea20                __initfunc_tty_init_global2
                0x0000000040deea30                __initfunc_tty_init_global
                0x0000000040deea40                __initfunc_vcpu_init_global
                0x0000000040deea50                __initfunc_vga_init
                0x0000000040deea60                __initfunc_vmmcall_boot_init
                0x0000000040deea70                __initfunc_vmmcall_init
                0x0000000040deea80                __initfunc_vmmcall_dbgsh_init_pcpu
                0x0000000040deea90                __initfunc_vmmcall_dbgsh_init_global
                0x0000000040deeaa0                __initfunc_vmmcall_dbgsh_init
                0x0000000040deeab0                __initfunc_vmmcall_iccard_init
                0x0000000040deeac0                __initfunc_vmmcall_status_init
                0x0000000040deead0                __initfunc_vmmcall_status_init_global
                0x0000000040deeae0                __initfunc_vmmcall_listmodule_init
                0x0000000040deeaf0                __initfunc_vmmcall_dump_memory_init
                0x0000000040deeb00                __initfunc_vmmcall_printlog_init
                0x0000000040deeb10                __initfunc_vmmcall_listprocess_init
                0x0000000040deeb20                __initfunc_vramwrite_init_bsp
                0x0000000040deeb30                __initfunc_vramwrite_init_msg
                0x0000000040deeb40                __initfunc_vt_register_status_callback
                0x0000000040deeb50                __initfunc_vt_panic
                0x0000000040deeb60                __initfunc_xsetbv_init
                0x0000000040deeb70                __initfunc_xsetbv_pass_init
                0x0000000040deeb80                __initfunc_core_init
                0x0000000040deeb90                __initfunc_ieee1394_init_boot
                0x0000000040deeba0                __initfunc_ieee1394_init
                0x0000000040deebb0                __initfunc_iommu_setup
                0x0000000040deebc0                __initfunc_pci_init
                0x0000000040deebd0                __initfunc_ata_init
                0x0000000040deebe0                __initfunc_uhci_init
                0x0000000040deebf0                __initfunc_ehci_init
                0x0000000040deec00                __initfunc_pro100_init
                0x0000000040deec10                __initfunc_suspend_pro1000
                0x0000000040deec20                __initfunc_resume_pro1000
                0x0000000040deec30                __initfunc_vpn_pro1000_init
                0x0000000040deec40                __initfunc_storage_kernel_init
                0x0000000040deec50                __initfunc_storage_io_initfunc
                0x0000000040deec60                __initfunc_vpn_kernel_init
                0x0000000040deec70                __initfunc_idman_kernel_init
                0x0000000040deec80                __initfunc_end = .
                0x0000000040deec80                __process_builtin = .
 *(.processes)
 .processes     0x0000000040deec80      0x1a0 output.o
                0x0000000040deee20                __process_builtin_end = .

.igot.plt       0x0000000040deee20        0x0 load address 0x0000000000deee20
 .igot.plt      0x0000000000000000        0x0 output.o

.bss            0x0000000040def000   0x2b8000 load address 0x0000000000def000
                0x0000000040def000                bss = .
 *(.bss)
 .bss           0x0000000040def000   0x29bfc8 output.o
                0x0000000040def0f0                uefi_memory_map_descsize
                0x0000000040df3000                vmmsize
                0x0000000040df3008                memorysize
                0x0000000040f3da80                pcpu_default
                0x0000000040f44c00                ps2_locked
                0x0000000040f66080                handler_descriptor
                0x0000000040f66288                drhd_list_head
                0x0000000040f67ac0                pci_driver_list_head
                0x0000000040f67ac8                pci_device_list_head
                0x0000000040f67ae8                uhci_monitor_boost_hc
                0x0000000040f67b00                usb_hc_list_head
                0x0000000040f67b08                usb_busses_head
                0x0000000040f6f408                rt
                0x0000000041088e30                hContext
                0x0000000041088e38                sessionTable
                0x0000000041088e40                slotTable
                0x0000000041088e48                slotFlag
                0x0000000041088e49                libInitFlag
                0x0000000041089a98                OPENSSL_NONPIC_relocated
                0x0000000041089aa0                OPENSSL_ia32cap_P
                0x000000004108a6e8                cleanse_ctr
                0x000000004108a748                obj_cleanup_defer
                0x000000004108a768                _shadow_DES_check_key
                0x000000004108a858                app_pkey_methods
                0x000000004108a8c0                chelp_inited
 *(COMMON)
 *fill*         0x000000004108afc8       0x18 
 COMMON         0x000000004108afe0    0x1b404 output.o
                0x000000004108afe0                clflush_size
                0x000000004108b000                sReaderContext
                0x000000004108b060                uefi_memory_map_data
                0x000000004108f060                uefi_booted
                0x000000004108f068                sigx_app
                0x000000004108f080                log
                0x000000004109f080                num_dom
                0x000000004109f0a0                mszReaders
                0x000000004109f4a0                prohibit_iccard_init
                0x000000004109f4a8                pci_config_mmio_data_head
                0x000000004109f4b0                curthread
                0x000000004109f4b8                sig_app
                0x000000004109f4c0                readerState
                0x000000004109f540                dom_io
                0x000000004109fd40                acpi_dsdt_system_state
                0x000000004109fd60                ehci_host
                0x000000004109fd68                num_of_processors
                0x000000004109fd6c                e801_fake_bx
                0x000000004109fd6e                iommu_detected
                0x000000004109fd80                process
                0x00000000410a6280                dwReaders
                0x00000000410a62a0                readerTracker
                0x00000000410a63e0                handler_descriptor_lock
                0x00000000410a63e2                e801_fake_ax
                0x00000000410a7000                . = ALIGN (0x1000)
 *fill*         0x00000000410a63e4      0xc1c 
                0x00000000410a7000                end = .

/DISCARD/
 *(.gomi)
LOAD output.o
OUTPUT(bitvisor.elf elf64-x86-64)

.comment        0x0000000000000000       0x2b
 .comment       0x0000000000000000       0x2b output.o
                                       0x5e88 (size before relaxing)

.note.GNU-stack
                0x0000000000000000        0x0
 .note.GNU-stack
                0x0000000000000000        0x0 output.o

.debug_aranges  0x0000000000000000     0x6980
 .debug_aranges
                0x0000000000000000     0x6980 output.o

.debug_info     0x0000000000000000   0x361375
 .debug_info    0x0000000000000000   0x361375 output.o

.debug_abbrev   0x0000000000000000    0x57102
 .debug_abbrev  0x0000000000000000    0x57102 output.o

.debug_line     0x0000000000000000    0x4f2ea
 .debug_line    0x0000000000000000    0x4f2ea output.o

.debug_str      0x0000000000000000    0x37e68
 .debug_str     0x0000000000000000    0x37e68 output.o
                                     0x15ba23 (size before relaxing)

.debug_loc      0x0000000000000000   0x261932
 .debug_loc     0x0000000000000000   0x261932 output.o

.debug_ranges   0x0000000000000000     0x6270
 .debug_ranges  0x0000000000000000     0x6270 output.o

Cross Reference Table

Symbol                                            File
ACCESS_DESCRIPTION_free                           output.o
ACCESS_DESCRIPTION_it                             output.o
ACCESS_DESCRIPTION_new                            output.o
AES_cbc_encrypt                                   output.o
AES_cfb128_encrypt                                output.o
AES_cfb1_encrypt                                  output.o
AES_cfb8_encrypt                                  output.o
AES_decrypt                                       output.o
AES_ecb_encrypt                                   output.o
AES_encrypt                                       output.o
AES_ofb128_encrypt                                output.o
AES_set_decrypt_key                               output.o
AES_set_encrypt_key                               output.o
AES_unwrap_key                                    output.o
AES_wrap_key                                      output.o
ASN1_ANY_it                                       output.o
ASN1_BIT_STRING_check                             output.o
ASN1_BIT_STRING_free                              output.o
ASN1_BIT_STRING_get_bit                           output.o
ASN1_BIT_STRING_it                                output.o
ASN1_BIT_STRING_new                               output.o
ASN1_BIT_STRING_set                               output.o
ASN1_BIT_STRING_set_bit                           output.o
ASN1_BMPSTRING_free                               output.o
ASN1_BMPSTRING_it                                 output.o
ASN1_BMPSTRING_new                                output.o
ASN1_BOOLEAN_it                                   output.o
ASN1_ENUMERATED_free                              output.o
ASN1_ENUMERATED_get                               output.o
ASN1_ENUMERATED_it                                output.o
ASN1_ENUMERATED_new                               output.o
ASN1_ENUMERATED_set                               output.o
ASN1_ENUMERATED_to_BN                             output.o
ASN1_FBOOLEAN_it                                  output.o
ASN1_GENERALIZEDTIME_adj                          output.o
ASN1_GENERALIZEDTIME_check                        output.o
ASN1_GENERALIZEDTIME_free                         output.o
ASN1_GENERALIZEDTIME_it                           output.o
ASN1_GENERALIZEDTIME_new                          output.o
ASN1_GENERALIZEDTIME_print                        output.o
ASN1_GENERALIZEDTIME_set                          output.o
ASN1_GENERALIZEDTIME_set_string                   output.o
ASN1_GENERALSTRING_free                           output.o
ASN1_GENERALSTRING_it                             output.o
ASN1_GENERALSTRING_new                            output.o
ASN1_IA5STRING_free                               output.o
ASN1_IA5STRING_it                                 output.o
ASN1_IA5STRING_new                                output.o
ASN1_INTEGER_cmp                                  output.o
ASN1_INTEGER_dup                                  output.o
ASN1_INTEGER_free                                 output.o
ASN1_INTEGER_get                                  output.o
ASN1_INTEGER_it                                   output.o
ASN1_INTEGER_new                                  output.o
ASN1_INTEGER_set                                  output.o
ASN1_INTEGER_to_BN                                output.o
ASN1_NULL_free                                    output.o
ASN1_NULL_it                                      output.o
ASN1_NULL_new                                     output.o
ASN1_OBJECT_create                                output.o
ASN1_OBJECT_free                                  output.o
ASN1_OBJECT_it                                    output.o
ASN1_OBJECT_new                                   output.o
ASN1_OCTET_STRING_NDEF_it                         output.o
ASN1_OCTET_STRING_cmp                             output.o
ASN1_OCTET_STRING_dup                             output.o
ASN1_OCTET_STRING_free                            output.o
ASN1_OCTET_STRING_it                              output.o
ASN1_OCTET_STRING_new                             output.o
ASN1_OCTET_STRING_set                             output.o
ASN1_PCTX_free                                    output.o
ASN1_PCTX_get_cert_flags                          output.o
ASN1_PCTX_get_flags                               output.o
ASN1_PCTX_get_nm_flags                            output.o
ASN1_PCTX_get_oid_flags                           output.o
ASN1_PCTX_get_str_flags                           output.o
ASN1_PCTX_new                                     output.o
ASN1_PCTX_set_cert_flags                          output.o
ASN1_PCTX_set_flags                               output.o
ASN1_PCTX_set_nm_flags                            output.o
ASN1_PCTX_set_oid_flags                           output.o
ASN1_PCTX_set_str_flags                           output.o
ASN1_PRINTABLESTRING_free                         output.o
ASN1_PRINTABLESTRING_it                           output.o
ASN1_PRINTABLESTRING_new                          output.o
ASN1_PRINTABLE_free                               output.o
ASN1_PRINTABLE_it                                 output.o
ASN1_PRINTABLE_new                                output.o
ASN1_PRINTABLE_type                               output.o
ASN1_SEQUENCE_ANY_it                              output.o
ASN1_SEQUENCE_it                                  output.o
ASN1_SET_ANY_it                                   output.o
ASN1_STRING_TABLE_add                             output.o
ASN1_STRING_TABLE_cleanup                         output.o
ASN1_STRING_TABLE_get                             output.o
ASN1_STRING_cmp                                   output.o
ASN1_STRING_copy                                  output.o
ASN1_STRING_data                                  output.o
ASN1_STRING_dup                                   output.o
ASN1_STRING_free                                  output.o
ASN1_STRING_get_default_mask                      output.o
ASN1_STRING_length                                output.o
ASN1_STRING_length_set                            output.o
ASN1_STRING_new                                   output.o
ASN1_STRING_print                                 output.o
ASN1_STRING_print_ex                              output.o
ASN1_STRING_set                                   output.o
ASN1_STRING_set0                                  output.o
ASN1_STRING_set_by_NID                            output.o
ASN1_STRING_set_default_mask                      output.o
ASN1_STRING_set_default_mask_asc                  output.o
ASN1_STRING_to_UTF8                               output.o
ASN1_STRING_type                                  output.o
ASN1_STRING_type_new                              output.o
ASN1_T61STRING_free                               output.o
ASN1_T61STRING_it                                 output.o
ASN1_T61STRING_new                                output.o
ASN1_TBOOLEAN_it                                  output.o
ASN1_TIME_adj                                     output.o
ASN1_TIME_check                                   output.o
ASN1_TIME_free                                    output.o
ASN1_TIME_it                                      output.o
ASN1_TIME_new                                     output.o
ASN1_TIME_print                                   output.o
ASN1_TIME_set                                     output.o
ASN1_TIME_set_string                              output.o
ASN1_TIME_to_generalizedtime                      output.o
ASN1_TYPE_cmp                                     output.o
ASN1_TYPE_free                                    output.o
ASN1_TYPE_get                                     output.o
ASN1_TYPE_get_int_octetstring                     output.o
ASN1_TYPE_get_octetstring                         output.o
ASN1_TYPE_new                                     output.o
ASN1_TYPE_set                                     output.o
ASN1_TYPE_set1                                    output.o
ASN1_TYPE_set_int_octetstring                     output.o
ASN1_TYPE_set_octetstring                         output.o
ASN1_UNIVERSALSTRING_free                         output.o
ASN1_UNIVERSALSTRING_it                           output.o
ASN1_UNIVERSALSTRING_new                          output.o
ASN1_UNIVERSALSTRING_to_string                    output.o
ASN1_UTCTIME_adj                                  output.o
ASN1_UTCTIME_check                                output.o
ASN1_UTCTIME_cmp_time_t                           output.o
ASN1_UTCTIME_free                                 output.o
ASN1_UTCTIME_it                                   output.o
ASN1_UTCTIME_new                                  output.o
ASN1_UTCTIME_print                                output.o
ASN1_UTCTIME_set                                  output.o
ASN1_UTCTIME_set_string                           output.o
ASN1_UTF8STRING_free                              output.o
ASN1_UTF8STRING_it                                output.o
ASN1_UTF8STRING_new                               output.o
ASN1_VISIBLESTRING_free                           output.o
ASN1_VISIBLESTRING_it                             output.o
ASN1_VISIBLESTRING_new                            output.o
ASN1_bn_print                                     output.o
ASN1_check_infinite_end                           output.o
ASN1_const_check_infinite_end                     output.o
ASN1_d2i_bio                                      output.o
ASN1_digest                                       output.o
ASN1_dup                                          output.o
ASN1_generate_nconf                               output.o
ASN1_generate_v3                                  output.o
ASN1_get_object                                   output.o
ASN1_i2d_bio                                      output.o
ASN1_item_d2i                                     output.o
ASN1_item_d2i_bio                                 output.o
ASN1_item_digest                                  output.o
ASN1_item_dup                                     output.o
ASN1_item_ex_d2i                                  output.o
ASN1_item_ex_free                                 output.o
ASN1_item_ex_i2d                                  output.o
ASN1_item_ex_new                                  output.o
ASN1_item_free                                    output.o
ASN1_item_i2d                                     output.o
ASN1_item_i2d_bio                                 output.o
ASN1_item_ndef_i2d                                output.o
ASN1_item_new                                     output.o
ASN1_item_pack                                    output.o
ASN1_item_print                                   output.o
ASN1_item_sign                                    output.o
ASN1_item_unpack                                  output.o
ASN1_item_verify                                  output.o
ASN1_mbstring_copy                                output.o
ASN1_mbstring_ncopy                               output.o
ASN1_object_size                                  output.o
ASN1_pack_string                                  output.o
ASN1_parse                                        output.o
ASN1_parse_dump                                   output.o
ASN1_primitive_free                               output.o
ASN1_primitive_new                                output.o
ASN1_put_eoc                                      output.o
ASN1_put_object                                   output.o
ASN1_seq_pack                                     output.o
ASN1_seq_unpack                                   output.o
ASN1_sign                                         output.o
ASN1_tag2bit                                      output.o
ASN1_tag2str                                      output.o
ASN1_template_d2i                                 output.o
ASN1_template_free                                output.o
ASN1_template_i2d                                 output.o
ASN1_template_new                                 output.o
ASN1_unpack_string                                output.o
ASN1_verify                                       output.o
ASN1_version                                      output.o
AUTHORITY_INFO_ACCESS_free                        output.o
AUTHORITY_INFO_ACCESS_it                          output.o
AUTHORITY_INFO_ACCESS_new                         output.o
AUTHORITY_KEYID_free                              output.o
AUTHORITY_KEYID_it                                output.o
AUTHORITY_KEYID_new                               output.o
AddCertDataByBuf                                  output.o
AddElem                                           output.o
AddIdPassDataByBuf                                output.o
AddObjTblByTlv                                    output.o
BASIC_CONSTRAINTS_free                            output.o
BASIC_CONSTRAINTS_it                              output.o
BASIC_CONSTRAINTS_new                             output.o
BF_cbc_encrypt                                    output.o
BF_cfb64_encrypt                                  output.o
BF_decrypt                                        output.o
BF_ecb_encrypt                                    output.o
BF_encrypt                                        output.o
BF_ofb64_encrypt                                  output.o
BF_options                                        output.o
BF_set_key                                        output.o
BF_version                                        output.o
BIGNUM_it                                         output.o
BIO_asn1_get_prefix                               output.o
BIO_asn1_get_suffix                               output.o
BIO_asn1_set_prefix                               output.o
BIO_asn1_set_suffix                               output.o
BIO_callback_ctrl                                 output.o
BIO_clear_flags                                   output.o
BIO_copy_next_retry                               output.o
BIO_ctrl                                          output.o
BIO_ctrl_pending                                  output.o
BIO_ctrl_wpending                                 output.o
BIO_dump                                          output.o
BIO_dump_cb                                       output.o
BIO_dump_indent                                   output.o
BIO_dump_indent_cb                                output.o
BIO_dup_chain                                     output.o
BIO_f_asn1                                        output.o
BIO_f_base64                                      output.o
BIO_f_buffer                                      output.o
BIO_f_cipher                                      output.o
BIO_f_md                                          output.o
BIO_find_type                                     output.o
BIO_free                                          output.o
BIO_free_all                                      output.o
BIO_get_callback                                  output.o
BIO_get_callback_arg                              output.o
BIO_get_ex_data                                   output.o
BIO_get_ex_new_index                              output.o
BIO_get_retry_BIO                                 output.o
BIO_get_retry_reason                              output.o
BIO_gets                                          output.o
BIO_indent                                        output.o
BIO_int_ctrl                                      output.o
BIO_method_name                                   output.o
BIO_method_type                                   output.o
BIO_new                                           output.o
BIO_new_CMS                                       output.o
BIO_new_NDEF                                      output.o
BIO_new_mem_buf                                   output.o
BIO_next                                          output.o
BIO_number_read                                   output.o
BIO_number_written                                output.o
BIO_pop                                           output.o
BIO_printf                                        output.o
BIO_ptr_ctrl                                      output.o
BIO_push                                          output.o
BIO_puts                                          output.o
BIO_read                                          output.o
BIO_s_mem                                         output.o
BIO_s_null                                        output.o
BIO_set                                           output.o
BIO_set_callback                                  output.o
BIO_set_callback_arg                              output.o
BIO_set_cipher                                    output.o
BIO_set_ex_data                                   output.o
BIO_set_flags                                     output.o
BIO_snprintf                                      output.o
BIO_test_flags                                    output.o
BIO_vfree                                         output.o
BIO_write                                         output.o
BN_BLINDING_convert                               output.o
BN_BLINDING_convert_ex                            output.o
BN_BLINDING_create_param                          output.o
BN_BLINDING_free                                  output.o
BN_BLINDING_get_flags                             output.o
BN_BLINDING_get_thread_id                         output.o
BN_BLINDING_invert                                output.o
BN_BLINDING_invert_ex                             output.o
BN_BLINDING_new                                   output.o
BN_BLINDING_set_flags                             output.o
BN_BLINDING_set_thread_id                         output.o
BN_BLINDING_thread_id                             output.o
BN_BLINDING_update                                output.o
BN_CTX_end                                        output.o
BN_CTX_free                                       output.o
BN_CTX_get                                        output.o
BN_CTX_init                                       output.o
BN_CTX_new                                        output.o
BN_CTX_start                                      output.o
BN_GENCB_call                                     output.o
BN_GF2m_add                                       output.o
BN_GF2m_arr2poly                                  output.o
BN_GF2m_mod                                       output.o
BN_GF2m_mod_arr                                   output.o
BN_GF2m_mod_div                                   output.o
BN_GF2m_mod_div_arr                               output.o
BN_GF2m_mod_exp                                   output.o
BN_GF2m_mod_exp_arr                               output.o
BN_GF2m_mod_inv                                   output.o
BN_GF2m_mod_inv_arr                               output.o
BN_GF2m_mod_mul                                   output.o
BN_GF2m_mod_mul_arr                               output.o
BN_GF2m_mod_solve_quad                            output.o
BN_GF2m_mod_solve_quad_arr                        output.o
BN_GF2m_mod_sqr                                   output.o
BN_GF2m_mod_sqr_arr                               output.o
BN_GF2m_mod_sqrt                                  output.o
BN_GF2m_mod_sqrt_arr                              output.o
BN_GF2m_poly2arr                                  output.o
BN_MONT_CTX_copy                                  output.o
BN_MONT_CTX_free                                  output.o
BN_MONT_CTX_init                                  output.o
BN_MONT_CTX_new                                   output.o
BN_MONT_CTX_set                                   output.o
BN_MONT_CTX_set_locked                            output.o
BN_RECP_CTX_free                                  output.o
BN_RECP_CTX_init                                  output.o
BN_RECP_CTX_new                                   output.o
BN_RECP_CTX_set                                   output.o
BN_add                                            output.o
BN_add_word                                       output.o
BN_asc2bn                                         output.o
BN_bin2bn                                         output.o
BN_bn2bin                                         output.o
BN_bn2dec                                         output.o
BN_bn2hex                                         output.o
BN_bntest_rand                                    output.o
BN_clear                                          output.o
BN_clear_bit                                      output.o
BN_clear_free                                     output.o
BN_cmp                                            output.o
BN_copy                                           output.o
BN_dec2bn                                         output.o
BN_div                                            output.o
BN_div_recp                                       output.o
BN_div_word                                       output.o
BN_dup                                            output.o
BN_exp                                            output.o
BN_free                                           output.o
BN_from_montgomery                                output.o
BN_gcd                                            output.o
BN_generate_prime_ex                              output.o
BN_get0_nist_prime_192                            output.o
BN_get0_nist_prime_224                            output.o
BN_get0_nist_prime_256                            output.o
BN_get0_nist_prime_384                            output.o
BN_get0_nist_prime_521                            output.o
BN_get_params                                     output.o
BN_get_word                                       output.o
BN_hex2bn                                         output.o
BN_init                                           output.o
BN_is_bit_set                                     output.o
BN_is_prime_ex                                    output.o
BN_is_prime_fasttest_ex                           output.o
BN_kronecker                                      output.o
BN_lshift                                         output.o
BN_lshift1                                        output.o
BN_mask_bits                                      output.o
BN_mod_add                                        output.o
BN_mod_add_quick                                  output.o
BN_mod_exp                                        output.o
BN_mod_exp2_mont                                  output.o
BN_mod_exp_mont                                   output.o
BN_mod_exp_mont_consttime                         output.o
BN_mod_exp_mont_word                              output.o
BN_mod_exp_recp                                   output.o
BN_mod_exp_simple                                 output.o
BN_mod_inverse                                    output.o
BN_mod_lshift                                     output.o
BN_mod_lshift1                                    output.o
BN_mod_lshift1_quick                              output.o
BN_mod_lshift_quick                               output.o
BN_mod_mul                                        output.o
BN_mod_mul_montgomery                             output.o
BN_mod_mul_reciprocal                             output.o
BN_mod_sqr                                        output.o
BN_mod_sqrt                                       output.o
BN_mod_sub                                        output.o
BN_mod_sub_quick                                  output.o
BN_mod_word                                       output.o
BN_mul                                            output.o
BN_mul_word                                       output.o
BN_new                                            output.o
BN_nist_mod_192                                   output.o
BN_nist_mod_224                                   output.o
BN_nist_mod_256                                   output.o
BN_nist_mod_384                                   output.o
BN_nist_mod_521                                   output.o
BN_nnmod                                          output.o
BN_num_bits                                       output.o
BN_num_bits_word                                  output.o
BN_options                                        output.o
BN_print                                          output.o
BN_pseudo_rand                                    output.o
BN_pseudo_rand_range                              output.o
BN_rand                                           output.o
BN_rand_range                                     output.o
BN_reciprocal                                     output.o
BN_rshift                                         output.o
BN_rshift1                                        output.o
BN_set_bit                                        output.o
BN_set_negative                                   output.o
BN_set_params                                     output.o
BN_set_word                                       output.o
BN_sqr                                            output.o
BN_sub                                            output.o
BN_sub_word                                       output.o
BN_swap                                           output.o
BN_to_ASN1_ENUMERATED                             output.o
BN_to_ASN1_INTEGER                                output.o
BN_uadd                                           output.o
BN_ucmp                                           output.o
BN_usub                                           output.o
BN_value_one                                      output.o
BN_version                                        output.o
BUF_MEM_free                                      output.o
BUF_MEM_grow                                      output.o
BUF_MEM_grow_clean                                output.o
BUF_MEM_new                                       output.o
BUF_memdup                                        output.o
BUF_reverse                                       output.o
BUF_strdup                                        output.o
BUF_strlcat                                       output.o
BUF_strlcpy                                       output.o
BUF_strndup                                       output.o
BlockSendCardT1                                   output.o
CAST_S_table0                                     output.o
CAST_S_table1                                     output.o
CAST_S_table2                                     output.o
CAST_S_table3                                     output.o
CAST_S_table4                                     output.o
CAST_S_table5                                     output.o
CAST_S_table6                                     output.o
CAST_S_table7                                     output.o
CAST_cbc_encrypt                                  output.o
CAST_cfb64_encrypt                                output.o
CAST_decrypt                                      output.o
CAST_ecb_encrypt                                  output.o
CAST_encrypt                                      output.o
CAST_ofb64_encrypt                                output.o
CAST_set_key                                      output.o
CAST_version                                      output.o
CBIGNUM_it                                        output.o
CERTIFICATEPOLICIES_free                          output.o
CERTIFICATEPOLICIES_it                            output.o
CERTIFICATEPOLICIES_new                           output.o
CMS_Attributes_Sign_it                            output.o
CMS_Attributes_Verify_it                          output.o
CMS_AuthenticatedData_it                          output.o
CMS_CertificateChoices_it                         output.o
CMS_CompressedData_it                             output.o
CMS_ContentInfo_free                              output.o
CMS_ContentInfo_it                                output.o
CMS_ContentInfo_new                               output.o
CMS_ContentInfo_print_ctx                         output.o
CMS_DigestedData_it                               output.o
CMS_EncapsulatedContentInfo_it                    output.o
CMS_EncryptedContentInfo_it                       output.o
CMS_EncryptedData_it                              output.o
CMS_EncryptedData_set1_key                        output.o
CMS_EnvelopedData_create                          output.o
CMS_EnvelopedData_it                              output.o
CMS_IssuerAndSerialNumber_it                      output.o
CMS_KEKIdentifier_it                              output.o
CMS_KEKRecipientInfo_it                           output.o
CMS_KeyAgreeRecipientIdentifier_it                output.o
CMS_KeyAgreeRecipientInfo_it                      output.o
CMS_KeyTransRecipientInfo_it                      output.o
CMS_OriginatorIdentifierOrKey_it                  output.o
CMS_OriginatorInfo_it                             output.o
CMS_OriginatorPublicKey_it                        output.o
CMS_OtherCertificateFormat_it                     output.o
CMS_OtherKeyAttribute_it                          output.o
CMS_OtherRecipientInfo_it                         output.o
CMS_OtherRevocationInfoFormat_it                  output.o
CMS_PasswordRecipientInfo_it                      output.o
CMS_ReceiptRequest_it                             output.o
CMS_Receipt_it                                    output.o
CMS_ReceiptsFrom_it                               output.o
CMS_RecipientEncryptedKey_it                      output.o
CMS_RecipientInfo_decrypt                         output.o
CMS_RecipientInfo_it                              output.o
CMS_RecipientInfo_kekri_get0_id                   output.o
CMS_RecipientInfo_kekri_id_cmp                    output.o
CMS_RecipientInfo_ktri_cert_cmp                   output.o
CMS_RecipientInfo_ktri_get0_algs                  output.o
CMS_RecipientInfo_ktri_get0_signer_id             output.o
CMS_RecipientInfo_set0_key                        output.o
CMS_RecipientInfo_set0_pkey                       output.o
CMS_RecipientInfo_type                            output.o
CMS_RecipientKeyIdentifier_it                     output.o
CMS_RevocationInfoChoice_it                       output.o
CMS_SignedData_init                               output.o
CMS_SignedData_it                                 output.o
CMS_SignerIdentifier_it                           output.o
CMS_SignerInfo_cert_cmp                           output.o
CMS_SignerInfo_get0_algs                          output.o
CMS_SignerInfo_get0_signer_id                     output.o
CMS_SignerInfo_it                                 output.o
CMS_SignerInfo_set1_signer_cert                   output.o
CMS_SignerInfo_sign                               output.o
CMS_SignerInfo_verify                             output.o
CMS_SignerInfo_verify_content                     output.o
CMS_add0_CertificateChoices                       output.o
CMS_add0_RevocationInfoChoice                     output.o
CMS_add0_cert                                     output.o
CMS_add0_crl                                      output.o
CMS_add0_recipient_key                            output.o
CMS_add1_cert                                     output.o
CMS_add1_crl                                      output.o
CMS_add1_recipient_cert                           output.o
CMS_add1_signer                                   output.o
CMS_add_simple_smimecap                           output.o
CMS_add_smimecap                                  output.o
CMS_add_standard_smimecap                         output.o
CMS_dataFinal                                     output.o
CMS_dataInit                                      output.o
CMS_get0_RecipientInfos                           output.o
CMS_get0_SignerInfos                              output.o
CMS_get0_content                                  output.o
CMS_get0_eContentType                             output.o
CMS_get0_signers                                  output.o
CMS_get0_type                                     output.o
CMS_get1_certs                                    output.o
CMS_get1_crls                                     output.o
CMS_is_detached                                   output.o
CMS_set1_eContentType                             output.o
CMS_set1_signers_certs                            output.o
CMS_set_detached                                  output.o
CMS_signed_add1_attr                              output.o
CMS_signed_add1_attr_by_NID                       output.o
CMS_signed_add1_attr_by_OBJ                       output.o
CMS_signed_add1_attr_by_txt                       output.o
CMS_signed_delete_attr                            output.o
CMS_signed_get0_data_by_OBJ                       output.o
CMS_signed_get_attr                               output.o
CMS_signed_get_attr_by_NID                        output.o
CMS_signed_get_attr_by_OBJ                        output.o
CMS_signed_get_attr_count                         output.o
CMS_stream                                        output.o
CMS_unsigned_add1_attr                            output.o
CMS_unsigned_add1_attr_by_NID                     output.o
CMS_unsigned_add1_attr_by_OBJ                     output.o
CMS_unsigned_add1_attr_by_txt                     output.o
CMS_unsigned_delete_attr                          output.o
CMS_unsigned_get0_data_by_OBJ                     output.o
CMS_unsigned_get_attr                             output.o
CMS_unsigned_get_attr_by_NID                      output.o
CMS_unsigned_get_attr_by_OBJ                      output.o
CMS_unsigned_get_attr_count                       output.o
CONF_def_version                                  output.o
CONF_dump_bio                                     output.o
CONF_free                                         output.o
CONF_get1_default_config_file                     output.o
CONF_get_number                                   output.o
CONF_get_section                                  output.o
CONF_get_string                                   output.o
CONF_imodule_get_flags                            output.o
CONF_imodule_get_module                           output.o
CONF_imodule_get_name                             output.o
CONF_imodule_get_usr_data                         output.o
CONF_imodule_get_value                            output.o
CONF_imodule_set_flags                            output.o
CONF_imodule_set_usr_data                         output.o
CONF_load                                         output.o
CONF_load_bio                                     output.o
CONF_module_add                                   output.o
CONF_module_get_usr_data                          output.o
CONF_module_set_usr_data                          output.o
CONF_modules_finish                               output.o
CONF_modules_free                                 output.o
CONF_modules_load                                 output.o
CONF_modules_load_file                            output.o
CONF_modules_unload                               output.o
CONF_parse_list                                   output.o
CONF_set_default_method                           output.o
CONF_set_nconf                                    output.o
CONF_version                                      output.o
CRL_DIST_POINTS_free                              output.o
CRL_DIST_POINTS_it                                output.o
CRL_DIST_POINTS_new                               output.o
CRYPTO_THREADID_cmp                               output.o
CRYPTO_THREADID_cpy                               output.o
CRYPTO_THREADID_current                           output.o
CRYPTO_THREADID_get_callback                      output.o
CRYPTO_THREADID_hash                              output.o
CRYPTO_THREADID_set_callback                      output.o
CRYPTO_THREADID_set_numeric                       output.o
CRYPTO_THREADID_set_pointer                       output.o
CRYPTO_add_lock                                   output.o
CRYPTO_cbc128_decrypt                             output.o
CRYPTO_cbc128_encrypt                             output.o
CRYPTO_cfb128_1_encrypt                           output.o
CRYPTO_cfb128_8_encrypt                           output.o
CRYPTO_cfb128_encrypt                             output.o
CRYPTO_cleanup_all_ex_data                        output.o
CRYPTO_dbg_free                                   output.o
CRYPTO_dbg_get_options                            output.o
CRYPTO_dbg_malloc                                 output.o
CRYPTO_dbg_realloc                                output.o
CRYPTO_dbg_set_options                            output.o
CRYPTO_destroy_dynlockid                          output.o
CRYPTO_dup_ex_data                                output.o
CRYPTO_ex_data_new_class                          output.o
CRYPTO_free                                       output.o
CRYPTO_free_ex_data                               output.o
CRYPTO_free_locked                                output.o
CRYPTO_get_add_lock_callback                      output.o
CRYPTO_get_dynlock_create_callback                output.o
CRYPTO_get_dynlock_destroy_callback               output.o
CRYPTO_get_dynlock_lock_callback                  output.o
CRYPTO_get_dynlock_value                          output.o
CRYPTO_get_ex_data                                output.o
CRYPTO_get_ex_data_implementation                 output.o
CRYPTO_get_ex_new_index                           output.o
CRYPTO_get_id_callback                            output.o
CRYPTO_get_lock_name                              output.o
CRYPTO_get_locked_mem_ex_functions                output.o
CRYPTO_get_locked_mem_functions                   output.o
CRYPTO_get_locking_callback                       output.o
CRYPTO_get_mem_debug_functions                    output.o
CRYPTO_get_mem_debug_options                      output.o
CRYPTO_get_mem_ex_functions                       output.o
CRYPTO_get_mem_functions                          output.o
CRYPTO_get_new_dynlockid                          output.o
CRYPTO_get_new_lockid                             output.o
CRYPTO_is_mem_check_on                            output.o
CRYPTO_lock                                       output.o
CRYPTO_malloc                                     output.o
CRYPTO_malloc_locked                              output.o
CRYPTO_mem_ctrl                                   output.o
CRYPTO_mem_leaks                                  output.o
CRYPTO_mem_leaks_cb                               output.o
CRYPTO_memcmp                                     output.o
CRYPTO_new_ex_data                                output.o
CRYPTO_num_locks                                  output.o
CRYPTO_ofb128_encrypt                             output.o
CRYPTO_pop_info                                   output.o
CRYPTO_push_info_                                 output.o
CRYPTO_realloc                                    output.o
CRYPTO_realloc_clean                              output.o
CRYPTO_remalloc                                   output.o
CRYPTO_remove_all_info                            output.o
CRYPTO_set_add_lock_callback                      output.o
CRYPTO_set_dynlock_create_callback                output.o
CRYPTO_set_dynlock_destroy_callback               output.o
CRYPTO_set_dynlock_lock_callback                  output.o
CRYPTO_set_ex_data                                output.o
CRYPTO_set_ex_data_implementation                 output.o
CRYPTO_set_id_callback                            output.o
CRYPTO_set_locked_mem_ex_functions                output.o
CRYPTO_set_locked_mem_functions                   output.o
CRYPTO_set_locking_callback                       output.o
CRYPTO_set_mem_debug_functions                    output.o
CRYPTO_set_mem_debug_options                      output.o
CRYPTO_set_mem_ex_functions                       output.o
CRYPTO_set_mem_functions                          output.o
CRYPTO_strdup                                     output.o
CRYPTO_thread_id                                  output.o
C_CloseAllSessions                                output.o
C_CloseSession                                    output.o
C_CreateObject                                    output.o
C_DestroyObject                                   output.o
C_DigestFinal                                     output.o
C_DigestInit                                      output.o
C_DigestUpdate                                    output.o
C_Finalize                                        output.o
C_FindObjects                                     output.o
C_FindObjectsFinal                                output.o
C_FindObjectsInit                                 output.o
C_GetAttributeValue                               output.o
C_GetCardStatus                                   output.o
C_GetFunctionList                                 output.o
C_GetInfo                                         output.o
C_GetMechanismInfo                                output.o
C_GetMechanismList                                output.o
C_GetSessionInfo                                  output.o
C_GetSlotInfo                                     output.o
C_GetSlotList                                     output.o
C_GetTokenInfo                                    output.o
C_Initialize                                      output.o
C_Login                                           output.o
C_Logout                                          output.o
C_OpenSession                                     output.o
C_SetAttributeValue                               output.o
C_Sign                                            output.o
C_SignInit                                        output.o
C_Verify                                          output.o
C_VerifyInit                                      output.o
CardConnect                                       output.o
CardDisconnect                                    output.o
CardEstablishContext                              output.o
CardListReaders                                   output.o
CardMechanical                                    output.o
CardReleaseContext                                output.o
CardStateConfirm                                  output.o
CardStatus                                        output.o
CardTransmit                                      output.o
CloseUSB                                          output.o
DES_SPtrans                                       output.o
DES_cfb64_encrypt                                 output.o
DES_cfb_encrypt                                   output.o
DES_check_key_parity                              output.o
DES_decrypt3                                      output.o
DES_ecb3_encrypt                                  output.o
DES_ecb_encrypt                                   output.o
DES_ede3_cbc_encrypt                              output.o
DES_ede3_cfb64_encrypt                            output.o
DES_ede3_cfb_encrypt                              output.o
DES_ede3_ofb64_encrypt                            output.o
DES_encrypt1                                      output.o
DES_encrypt2                                      output.o
DES_encrypt3                                      output.o
DES_is_weak_key                                   output.o
DES_key_sched                                     output.o
DES_ncbc_encrypt                                  output.o
DES_ofb64_encrypt                                 output.o
DES_options                                       output.o
DES_random_key                                    output.o
DES_set_key                                       output.o
DES_set_key_checked                               output.o
DES_set_key_unchecked                             output.o
DES_set_odd_parity                                output.o
DES_xcbc_encrypt                                  output.o
DH_OpenSSL                                        output.o
DH_check                                          output.o
DH_check_pub_key                                  output.o
DH_compute_key                                    output.o
DH_free                                           output.o
DH_generate_key                                   output.o
DH_generate_parameters_ex                         output.o
DH_get_default_method                             output.o
DH_get_ex_data                                    output.o
DH_get_ex_new_index                               output.o
DH_new                                            output.o
DH_new_method                                     output.o
DH_set_default_method                             output.o
DH_set_ex_data                                    output.o
DH_set_method                                     output.o
DH_size                                           output.o
DH_up_ref                                         output.o
DH_version                                        output.o
DHparams_dup                                      output.o
DHparams_it                                       output.o
DHparams_print                                    output.o
DI                                                output.o
DIRECTORYSTRING_free                              output.o
DIRECTORYSTRING_it                                output.o
DIRECTORYSTRING_new                               output.o
DISPLAYTEXT_free                                  output.o
DISPLAYTEXT_it                                    output.o
DISPLAYTEXT_new                                   output.o
DIST_POINT_NAME_free                              output.o
DIST_POINT_NAME_it                                output.o
DIST_POINT_NAME_new                               output.o
DIST_POINT_free                                   output.o
DIST_POINT_it                                     output.o
DIST_POINT_new                                    output.o
DIST_POINT_set_dpname                             output.o
DSAPrivateKey_it                                  output.o
DSAPublicKey_it                                   output.o
DSA_OpenSSL                                       output.o
DSA_SIG_free                                      output.o
DSA_SIG_it                                        output.o
DSA_SIG_new                                       output.o
DSA_do_sign                                       output.o
DSA_do_verify                                     output.o
DSA_dup_DH                                        output.o
DSA_free                                          output.o
DSA_generate_key                                  output.o
DSA_generate_parameters_ex                        output.o
DSA_get_default_method                            output.o
DSA_get_ex_data                                   output.o
DSA_get_ex_new_index                              output.o
DSA_new                                           output.o
DSA_new_method                                    output.o
DSA_set_default_method                            output.o
DSA_set_ex_data                                   output.o
DSA_set_method                                    output.o
DSA_sign                                          output.o
DSA_sign_setup                                    output.o
DSA_size                                          output.o
DSA_up_ref                                        output.o
DSA_verify                                        output.o
DSA_version                                       output.o
DSAparams_dup                                     output.o
DSAparams_it                                      output.o
DSO_METHOD_null                                   output.o
DSO_METHOD_openssl                                output.o
DSO_bind_func                                     output.o
DSO_bind_var                                      output.o
DSO_convert_filename                              output.o
DSO_ctrl                                          output.o
DSO_flags                                         output.o
DSO_free                                          output.o
DSO_get_default_method                            output.o
DSO_get_filename                                  output.o
DSO_get_loaded_filename                           output.o
DSO_get_method                                    output.o
DSO_global_lookup                                 output.o
DSO_load                                          output.o
DSO_merge                                         output.o
DSO_new                                           output.o
DSO_new_method                                    output.o
DSO_pathbyaddr                                    output.o
DSO_set_default_method                            output.o
DSO_set_filename                                  output.o
DSO_set_method                                    output.o
DSO_set_name_converter                            output.o
DSO_up_ref                                        output.o
DelElem                                           output.o
DestroyAttribute                                  output.o
DestroyElem                                       output.o
DestroyList                                       output.o
DestroySessionData                                output.o
DestroySlotData                                   output.o
DestroyTlvData                                    output.o
DestroyTokenData                                  output.o
ECDH_OpenSSL                                      output.o
ECDH_compute_key                                  output.o
ECDH_get_default_method                           output.o
ECDH_get_ex_data                                  output.o
ECDH_get_ex_new_index                             output.o
ECDH_set_default_method                           output.o
ECDH_set_ex_data                                  output.o
ECDH_set_method                                   output.o
ECDH_version                                      output.o
ECDSA_OpenSSL                                     output.o
ECDSA_SIG_free                                    output.o
ECDSA_SIG_it                                      output.o
ECDSA_SIG_new                                     output.o
ECDSA_do_sign                                     output.o
ECDSA_do_sign_ex                                  output.o
ECDSA_do_verify                                   output.o
ECDSA_get_default_method                          output.o
ECDSA_get_ex_data                                 output.o
ECDSA_get_ex_new_index                            output.o
ECDSA_set_default_method                          output.o
ECDSA_set_ex_data                                 output.o
ECDSA_set_method                                  output.o
ECDSA_sign                                        output.o
ECDSA_sign_ex                                     output.o
ECDSA_sign_setup                                  output.o
ECDSA_size                                        output.o
ECDSA_verify                                      output.o
ECDSA_version                                     output.o
ECPARAMETERS_free                                 output.o
ECPARAMETERS_it                                   output.o
ECPARAMETERS_new                                  output.o
ECPKPARAMETERS_free                               output.o
ECPKPARAMETERS_it                                 output.o
ECPKPARAMETERS_new                                output.o
ECPKParameters_print                              output.o
ECParameters_print                                output.o
EC_EX_DATA_clear_free_all_data                    output.o
EC_EX_DATA_clear_free_data                        output.o
EC_EX_DATA_free_all_data                          output.o
EC_EX_DATA_free_data                              output.o
EC_EX_DATA_get_data                               output.o
EC_EX_DATA_set_data                               output.o
EC_GF2m_simple_method                             output.o
EC_GFp_mont_method                                output.o
EC_GFp_nist_method                                output.o
EC_GFp_simple_method                              output.o
EC_GROUP_check_discriminant                       output.o
EC_GROUP_clear_free                               output.o
EC_GROUP_cmp                                      output.o
EC_GROUP_copy                                     output.o
EC_GROUP_dup                                      output.o
EC_GROUP_free                                     output.o
EC_GROUP_get0_generator                           output.o
EC_GROUP_get0_seed                                output.o
EC_GROUP_get_asn1_flag                            output.o
EC_GROUP_get_basis_type                           output.o
EC_GROUP_get_cofactor                             output.o
EC_GROUP_get_curve_GF2m                           output.o
EC_GROUP_get_curve_GFp                            output.o
EC_GROUP_get_curve_name                           output.o
EC_GROUP_get_degree                               output.o
EC_GROUP_get_order                                output.o
EC_GROUP_get_pentanomial_basis                    output.o
EC_GROUP_get_point_conversion_form                output.o
EC_GROUP_get_seed_len                             output.o
EC_GROUP_get_trinomial_basis                      output.o
EC_GROUP_have_precompute_mult                     output.o
EC_GROUP_method_of                                output.o
EC_GROUP_new                                      output.o
EC_GROUP_new_by_curve_name                        output.o
EC_GROUP_new_curve_GF2m                           output.o
EC_GROUP_new_curve_GFp                            output.o
EC_GROUP_precompute_mult                          output.o
EC_GROUP_set_asn1_flag                            output.o
EC_GROUP_set_curve_GF2m                           output.o
EC_GROUP_set_curve_GFp                            output.o
EC_GROUP_set_curve_name                           output.o
EC_GROUP_set_generator                            output.o
EC_GROUP_set_point_conversion_form                output.o
EC_GROUP_set_seed                                 output.o
EC_KEY_check_key                                  output.o
EC_KEY_copy                                       output.o
EC_KEY_dup                                        output.o
EC_KEY_free                                       output.o
EC_KEY_generate_key                               output.o
EC_KEY_get0_group                                 output.o
EC_KEY_get0_private_key                           output.o
EC_KEY_get0_public_key                            output.o
EC_KEY_get_conv_form                              output.o
EC_KEY_get_enc_flags                              output.o
EC_KEY_get_key_method_data                        output.o
EC_KEY_insert_key_method_data                     output.o
EC_KEY_new                                        output.o
EC_KEY_new_by_curve_name                          output.o
EC_KEY_precompute_mult                            output.o
EC_KEY_print                                      output.o
EC_KEY_set_asn1_flag                              output.o
EC_KEY_set_conv_form                              output.o
EC_KEY_set_enc_flags                              output.o
EC_KEY_set_group                                  output.o
EC_KEY_set_private_key                            output.o
EC_KEY_set_public_key                             output.o
EC_KEY_up_ref                                     output.o
EC_METHOD_get_field_type                          output.o
EC_POINT_add                                      output.o
EC_POINT_bn2point                                 output.o
EC_POINT_clear_free                               output.o
EC_POINT_cmp                                      output.o
EC_POINT_copy                                     output.o
EC_POINT_dbl                                      output.o
EC_POINT_dup                                      output.o
EC_POINT_free                                     output.o
EC_POINT_get_Jprojective_coordinates_GFp          output.o
EC_POINT_get_affine_coordinates_GF2m              output.o
EC_POINT_get_affine_coordinates_GFp               output.o
EC_POINT_hex2point                                output.o
EC_POINT_invert                                   output.o
EC_POINT_is_at_infinity                           output.o
EC_POINT_is_on_curve                              output.o
EC_POINT_make_affine                              output.o
EC_POINT_method_of                                output.o
EC_POINT_mul                                      output.o
EC_POINT_new                                      output.o
EC_POINT_oct2point                                output.o
EC_POINT_point2bn                                 output.o
EC_POINT_point2hex                                output.o
EC_POINT_point2oct                                output.o
EC_POINT_set_Jprojective_coordinates_GFp          output.o
EC_POINT_set_affine_coordinates_GF2m              output.o
EC_POINT_set_affine_coordinates_GFp               output.o
EC_POINT_set_compressed_coordinates_GF2m          output.o
EC_POINT_set_compressed_coordinates_GFp           output.o
EC_POINT_set_to_infinity                          output.o
EC_POINTs_make_affine                             output.o
EC_POINTs_mul                                     output.o
EC_PRIVATEKEY_free                                output.o
EC_PRIVATEKEY_it                                  output.o
EC_PRIVATEKEY_new                                 output.o
EC_get_builtin_curves                             output.o
EDIPARTYNAME_free                                 output.o
EDIPARTYNAME_it                                   output.o
EDIPARTYNAME_new                                  output.o
EHDestroyEventHandler                             output.o
EHInitEventHandler                                output.o
EHStatusHandler                                   output.o
ERR_add_error_data                                output.o
ERR_clear_error                                   output.o
ERR_error_string                                  output.o
ERR_error_string_n                                output.o
ERR_free_strings                                  output.o
ERR_func_error_string                             output.o
ERR_get_err_state_table                           output.o
ERR_get_error                                     output.o
ERR_get_error_line                                output.o
ERR_get_error_line_data                           output.o
ERR_get_implementation                            output.o
ERR_get_next_error_library                        output.o
ERR_get_state                                     output.o
ERR_get_string_table                              output.o
ERR_lib_error_string                              output.o
ERR_load_ASN1_strings                             output.o
ERR_load_BIO_strings                              output.o
ERR_load_BN_strings                               output.o
ERR_load_BUF_strings                              output.o
ERR_load_CMS_strings                              output.o
ERR_load_COMP_strings                             output.o
ERR_load_CONF_strings                             output.o
ERR_load_CRYPTO_strings                           output.o
ERR_load_DH_strings                               output.o
ERR_load_DSA_strings                              output.o
ERR_load_DSO_strings                              output.o
ERR_load_ECDH_strings                             output.o
ERR_load_ECDSA_strings                            output.o
ERR_load_EC_strings                               output.o
ERR_load_ERR_strings                              output.o
ERR_load_EVP_strings                              output.o
ERR_load_OBJ_strings                              output.o
ERR_load_OCSP_strings                             output.o
ERR_load_PEM_strings                              output.o
ERR_load_PKCS12_strings                           output.o
ERR_load_PKCS7_strings                            output.o
ERR_load_RAND_strings                             output.o
ERR_load_RSA_strings                              output.o
ERR_load_TS_strings                               output.o
ERR_load_UI_strings                               output.o
ERR_load_X509V3_strings                           output.o
ERR_load_X509_strings                             output.o
ERR_load_crypto_strings                           output.o
ERR_load_strings                                  output.o
ERR_peek_error                                    output.o
ERR_peek_error_line                               output.o
ERR_peek_error_line_data                          output.o
ERR_peek_last_error                               output.o
ERR_peek_last_error_line                          output.o
ERR_peek_last_error_line_data                     output.o
ERR_pop_to_mark                                   output.o
ERR_print_errors                                  output.o
ERR_print_errors_cb                               output.o
ERR_put_error                                     output.o
ERR_reason_error_string                           output.o
ERR_release_err_state_table                       output.o
ERR_remove_state                                  output.o
ERR_remove_thread_state                           output.o
ERR_set_error_data                                output.o
ERR_set_implementation                            output.o
ERR_set_mark                                      output.o
ERR_unload_strings                                output.o
EVP_BytesToKey                                    output.o
EVP_CIPHER_CTX_block_size                         output.o
EVP_CIPHER_CTX_cipher                             output.o
EVP_CIPHER_CTX_cleanup                            output.o
EVP_CIPHER_CTX_clear_flags                        output.o
EVP_CIPHER_CTX_copy                               output.o
EVP_CIPHER_CTX_ctrl                               output.o
EVP_CIPHER_CTX_flags                              output.o
EVP_CIPHER_CTX_free                               output.o
EVP_CIPHER_CTX_get_app_data                       output.o
EVP_CIPHER_CTX_init                               output.o
EVP_CIPHER_CTX_iv_length                          output.o
EVP_CIPHER_CTX_key_length                         output.o
EVP_CIPHER_CTX_new                                output.o
EVP_CIPHER_CTX_nid                                output.o
EVP_CIPHER_CTX_rand_key                           output.o
EVP_CIPHER_CTX_set_app_data                       output.o
EVP_CIPHER_CTX_set_flags                          output.o
EVP_CIPHER_CTX_set_key_length                     output.o
EVP_CIPHER_CTX_set_padding                        output.o
EVP_CIPHER_CTX_test_flags                         output.o
EVP_CIPHER_asn1_to_param                          output.o
EVP_CIPHER_block_size                             output.o
EVP_CIPHER_do_all                                 output.o
EVP_CIPHER_do_all_sorted                          output.o
EVP_CIPHER_flags                                  output.o
EVP_CIPHER_get_asn1_iv                            output.o
EVP_CIPHER_iv_length                              output.o
EVP_CIPHER_key_length                             output.o
EVP_CIPHER_nid                                    output.o
EVP_CIPHER_param_to_asn1                          output.o
EVP_CIPHER_set_asn1_iv                            output.o
EVP_CIPHER_type                                   output.o
EVP_Cipher                                        output.o
EVP_CipherFinal                                   output.o
EVP_CipherFinal_ex                                output.o
EVP_CipherInit                                    output.o
EVP_CipherInit_ex                                 output.o
EVP_CipherUpdate                                  output.o
EVP_DecodeBlock                                   output.o
EVP_DecodeFinal                                   output.o
EVP_DecodeInit                                    output.o
EVP_DecodeUpdate                                  output.o
EVP_DecryptFinal                                  output.o
EVP_DecryptFinal_ex                               output.o
EVP_DecryptInit                                   output.o
EVP_DecryptInit_ex                                output.o
EVP_DecryptUpdate                                 output.o
EVP_Digest                                        output.o
EVP_DigestFinal                                   output.o
EVP_DigestFinal_ex                                output.o
EVP_DigestInit                                    output.o
EVP_DigestInit_ex                                 output.o
EVP_DigestSignFinal                               output.o
EVP_DigestSignInit                                output.o
EVP_DigestUpdate                                  output.o
EVP_DigestVerifyFinal                             output.o
EVP_DigestVerifyInit                              output.o
EVP_EncodeBlock                                   output.o
EVP_EncodeFinal                                   output.o
EVP_EncodeInit                                    output.o
EVP_EncodeUpdate                                  output.o
EVP_EncryptFinal                                  output.o
EVP_EncryptFinal_ex                               output.o
EVP_EncryptInit                                   output.o
EVP_EncryptInit_ex                                output.o
EVP_EncryptUpdate                                 output.o
EVP_MD_CTX_cleanup                                output.o
EVP_MD_CTX_clear_flags                            output.o
EVP_MD_CTX_copy                                   output.o
EVP_MD_CTX_copy_ex                                output.o
EVP_MD_CTX_create                                 output.o
EVP_MD_CTX_destroy                                output.o
EVP_MD_CTX_init                                   output.o
EVP_MD_CTX_md                                     output.o
EVP_MD_CTX_set_flags                              output.o
EVP_MD_CTX_test_flags                             output.o
EVP_MD_block_size                                 output.o
EVP_MD_do_all                                     output.o
EVP_MD_do_all_sorted                              output.o
EVP_MD_flags                                      output.o
EVP_MD_pkey_type                                  output.o
EVP_MD_size                                       output.o
EVP_MD_type                                       output.o
EVP_PBE_CipherInit                                output.o
EVP_PBE_alg_add                                   output.o
EVP_PBE_alg_add_type                              output.o
EVP_PBE_cleanup                                   output.o
EVP_PBE_find                                      output.o
EVP_PKCS82PKEY                                    output.o
EVP_PKEY2PKCS8                                    output.o
EVP_PKEY2PKCS8_broken                             output.o
EVP_PKEY_CTX_ctrl                                 output.o
EVP_PKEY_CTX_ctrl_str                             output.o
EVP_PKEY_CTX_dup                                  output.o
EVP_PKEY_CTX_free                                 output.o
EVP_PKEY_CTX_get0_peerkey                         output.o
EVP_PKEY_CTX_get0_pkey                            output.o
EVP_PKEY_CTX_get_app_data                         output.o
EVP_PKEY_CTX_get_cb                               output.o
EVP_PKEY_CTX_get_data                             output.o
EVP_PKEY_CTX_get_keygen_info                      output.o
EVP_PKEY_CTX_get_operation                        output.o
EVP_PKEY_CTX_new                                  output.o
EVP_PKEY_CTX_new_id                               output.o
EVP_PKEY_CTX_set0_keygen_info                     output.o
EVP_PKEY_CTX_set_app_data                         output.o
EVP_PKEY_CTX_set_cb                               output.o
EVP_PKEY_CTX_set_data                             output.o
EVP_PKEY_add1_attr                                output.o
EVP_PKEY_add1_attr_by_NID                         output.o
EVP_PKEY_add1_attr_by_OBJ                         output.o
EVP_PKEY_add1_attr_by_txt                         output.o
EVP_PKEY_asn1_add0                                output.o
EVP_PKEY_asn1_add_alias                           output.o
EVP_PKEY_asn1_copy                                output.o
EVP_PKEY_asn1_find                                output.o
EVP_PKEY_asn1_find_str                            output.o
EVP_PKEY_asn1_free                                output.o
EVP_PKEY_asn1_get0                                output.o
EVP_PKEY_asn1_get0_info                           output.o
EVP_PKEY_asn1_get_count                           output.o
EVP_PKEY_asn1_new                                 output.o
EVP_PKEY_asn1_set_ctrl                            output.o
EVP_PKEY_asn1_set_free                            output.o
EVP_PKEY_asn1_set_param                           output.o
EVP_PKEY_asn1_set_private                         output.o
EVP_PKEY_asn1_set_public                          output.o
EVP_PKEY_assign                                   output.o
EVP_PKEY_base_id                                  output.o
EVP_PKEY_bits                                     output.o
EVP_PKEY_cmp                                      output.o
EVP_PKEY_cmp_parameters                           output.o
EVP_PKEY_copy_parameters                          output.o
EVP_PKEY_decrypt                                  output.o
EVP_PKEY_decrypt_init                             output.o
EVP_PKEY_delete_attr                              output.o
EVP_PKEY_derive                                   output.o
EVP_PKEY_derive_init                              output.o
EVP_PKEY_derive_set_peer                          output.o
EVP_PKEY_encrypt                                  output.o
EVP_PKEY_encrypt_init                             output.o
EVP_PKEY_free                                     output.o
EVP_PKEY_get0                                     output.o
EVP_PKEY_get0_asn1                                output.o
EVP_PKEY_get1_DH                                  output.o
EVP_PKEY_get1_DSA                                 output.o
EVP_PKEY_get1_EC_KEY                              output.o
EVP_PKEY_get1_RSA                                 output.o
EVP_PKEY_get_attr                                 output.o
EVP_PKEY_get_attr_by_NID                          output.o
EVP_PKEY_get_attr_by_OBJ                          output.o
EVP_PKEY_get_attr_count                           output.o
EVP_PKEY_get_default_digest_nid                   output.o
EVP_PKEY_id                                       output.o
EVP_PKEY_keygen                                   output.o
EVP_PKEY_keygen_init                              output.o
EVP_PKEY_meth_add0                                output.o
EVP_PKEY_meth_find                                output.o
EVP_PKEY_meth_free                                output.o
EVP_PKEY_meth_new                                 output.o
EVP_PKEY_meth_set_cleanup                         output.o
EVP_PKEY_meth_set_copy                            output.o
EVP_PKEY_meth_set_ctrl                            output.o
EVP_PKEY_meth_set_decrypt                         output.o
EVP_PKEY_meth_set_derive                          output.o
EVP_PKEY_meth_set_encrypt                         output.o
EVP_PKEY_meth_set_init                            output.o
EVP_PKEY_meth_set_keygen                          output.o
EVP_PKEY_meth_set_paramgen                        output.o
EVP_PKEY_meth_set_sign                            output.o
EVP_PKEY_meth_set_signctx                         output.o
EVP_PKEY_meth_set_verify                          output.o
EVP_PKEY_meth_set_verify_recover                  output.o
EVP_PKEY_meth_set_verifyctx                       output.o
EVP_PKEY_missing_parameters                       output.o
EVP_PKEY_new                                      output.o
EVP_PKEY_new_mac_key                              output.o
EVP_PKEY_paramgen                                 output.o
EVP_PKEY_paramgen_init                            output.o
EVP_PKEY_print_params                             output.o
EVP_PKEY_print_private                            output.o
EVP_PKEY_print_public                             output.o
EVP_PKEY_save_parameters                          output.o
EVP_PKEY_set1_DH                                  output.o
EVP_PKEY_set1_DSA                                 output.o
EVP_PKEY_set1_EC_KEY                              output.o
EVP_PKEY_set1_RSA                                 output.o
EVP_PKEY_set_type                                 output.o
EVP_PKEY_set_type_str                             output.o
EVP_PKEY_sign                                     output.o
EVP_PKEY_sign_init                                output.o
EVP_PKEY_size                                     output.o
EVP_PKEY_type                                     output.o
EVP_PKEY_verify                                   output.o
EVP_PKEY_verify_init                              output.o
EVP_PKEY_verify_recover                           output.o
EVP_PKEY_verify_recover_init                      output.o
EVP_SignFinal                                     output.o
EVP_VerifyFinal                                   output.o
EVP_add_cipher                                    output.o
EVP_add_digest                                    output.o
EVP_aes_128_cbc                                   output.o
EVP_aes_128_cfb1                                  output.o
EVP_aes_128_cfb128                                output.o
EVP_aes_128_cfb8                                  output.o
EVP_aes_128_ecb                                   output.o
EVP_aes_128_ofb                                   output.o
EVP_aes_192_cbc                                   output.o
EVP_aes_192_cfb1                                  output.o
EVP_aes_192_cfb128                                output.o
EVP_aes_192_cfb8                                  output.o
EVP_aes_192_ecb                                   output.o
EVP_aes_192_ofb                                   output.o
EVP_aes_256_cbc                                   output.o
EVP_aes_256_cfb1                                  output.o
EVP_aes_256_cfb128                                output.o
EVP_aes_256_cfb8                                  output.o
EVP_aes_256_ecb                                   output.o
EVP_aes_256_ofb                                   output.o
EVP_bf_cbc                                        output.o
EVP_bf_cfb64                                      output.o
EVP_bf_ecb                                        output.o
EVP_bf_ofb                                        output.o
EVP_cast5_cbc                                     output.o
EVP_cast5_cfb64                                   output.o
EVP_cast5_ecb                                     output.o
EVP_cast5_ofb                                     output.o
EVP_cleanup                                       output.o
EVP_des_cbc                                       output.o
EVP_des_cfb1                                      output.o
EVP_des_cfb64                                     output.o
EVP_des_cfb8                                      output.o
EVP_des_ecb                                       output.o
EVP_des_ede                                       output.o
EVP_des_ede3                                      output.o
EVP_des_ede3_cbc                                  output.o
EVP_des_ede3_cfb1                                 output.o
EVP_des_ede3_cfb64                                output.o
EVP_des_ede3_cfb8                                 output.o
EVP_des_ede3_ecb                                  output.o
EVP_des_ede3_ofb                                  output.o
EVP_des_ede_cbc                                   output.o
EVP_des_ede_cfb64                                 output.o
EVP_des_ede_ecb                                   output.o
EVP_des_ede_ofb                                   output.o
EVP_des_ofb                                       output.o
EVP_desx_cbc                                      output.o
EVP_dss                                           output.o
EVP_dss1                                          output.o
EVP_ecdsa                                         output.o
EVP_get_cipherbyname                              output.o
EVP_get_digestbyname                              output.o
EVP_get_pw_prompt                                 output.o
EVP_idea_cbc                                      output.o
EVP_idea_cfb64                                    output.o
EVP_idea_ecb                                      output.o
EVP_idea_ofb                                      output.o
EVP_md4                                           output.o
EVP_md5                                           output.o
EVP_rc2_40_cbc                                    output.o
EVP_rc2_64_cbc                                    output.o
EVP_rc2_cbc                                       output.o
EVP_rc2_cfb64                                     output.o
EVP_rc2_ecb                                       output.o
EVP_rc2_ofb                                       output.o
EVP_rc4                                           output.o
EVP_rc4_40                                        output.o
EVP_read_pw_string                                output.o
EVP_read_pw_string_min                            output.o
EVP_ripemd160                                     output.o
EVP_set_pw_prompt                                 output.o
EVP_sha                                           output.o
EVP_sha1                                          output.o
EVP_sha224                                        output.o
EVP_sha256                                        output.o
EVP_sha384                                        output.o
EVP_sha512                                        output.o
EVP_version                                       output.o
EVP_whirlpool                                     output.o
EXTENDED_KEY_USAGE_free                           output.o
EXTENDED_KEY_USAGE_it                             output.o
EXTENDED_KEY_USAGE_new                            output.o
ExchangePPSData                                   output.o
FI                                                output.o
FindBaudRateTable                                 output.o
GENERAL_NAMES_free                                output.o
GENERAL_NAMES_it                                  output.o
GENERAL_NAMES_new                                 output.o
GENERAL_NAME_cmp                                  output.o
GENERAL_NAME_dup                                  output.o
GENERAL_NAME_free                                 output.o
GENERAL_NAME_get0_otherName                       output.o
GENERAL_NAME_get0_value                           output.o
GENERAL_NAME_it                                   output.o
GENERAL_NAME_new                                  output.o
GENERAL_NAME_print                                output.o
GENERAL_NAME_set0_othername                       output.o
GENERAL_NAME_set0_value                           output.o
GENERAL_SUBTREE_free                              output.o
GENERAL_SUBTREE_it                                output.o
GENERAL_SUBTREE_new                               output.o
GetAttrValType                                    output.o
GetBWICWIData                                     output.o
GetCardStatus                                     output.o
GetDirDataByTlv                                   output.o
GetElem                                           output.o
GetICCardData                                     output.o
GetIFSCData                                       output.o
GetLength                                         output.o
GetOdfDataByTlv                                   output.o
GetTlvByBuf                                       output.o
GetTokenDataByTlv                                 output.o
GetUlByByte                                       output.o
GetUlByTxt                                        output.o
GetValueData                                      output.o
GetVerByTex                                       output.o
HMAC                                              output.o
HMAC_CTX_cleanup                                  output.o
HMAC_CTX_copy                                     output.o
HMAC_CTX_init                                     output.o
HMAC_CTX_set_flags                                output.o
HMAC_Final                                        output.o
HMAC_Init                                         output.o
HMAC_Init_ex                                      output.o
HMAC_Update                                       output.o
HPSearchHotPluggables                             output.o
IDEA_version                                      output.o
IDMan_CheckCardStatus                             output.o
IDMan_CmCheckCRL                                  output.o
IDMan_CmChgRSA                                    output.o
IDMan_CmGetCertificateSign                        output.o
IDMan_CmGetDN                                     output.o
IDMan_CmGetPublicKey                              output.o
IDMan_CmMakeRand                                  output.o
IDMan_CmMkHash                                    output.o
IDMan_CmPadding                                   output.o
IDMan_CmPadding2                                  output.o
IDMan_EncryptByIndex                              output.o
IDMan_IPCheckCrlPkcX                              output.o
IDMan_IPCheckPKC                                  output.o
IDMan_IPCheckSignature                            output.o
IDMan_IPCrSignature                               output.o
IDMan_IPFinalize                                  output.o
IDMan_IPFinalizeReader                            output.o
IDMan_IPIdPassListMalloc                          output.o
IDMan_IPInitialize                                output.o
IDMan_IPInitializeReader                          output.o
IDMan_IPMkPublicKeyObj                            output.o
IDMan_IPMkRandHash                                output.o
IDMan_IPRetJudgment                               output.o
IDMan_IPSignatureVerify                           output.o
IDMan_IPgCIndexParamChk                           output.o
IDMan_IPgCParamChk                                output.o
IDMan_IPgIdxSParamChk                             output.o
IDMan_IPgSParamChk                                output.o
IDMan_IPgetCertIdxPKCS                            output.o
IDMan_IPgetCertPKCS                               output.o
IDMan_IPgetCertPkeyIdxPKCSx                       output.o
IDMan_IPgetCertPkeyPKCSx                          output.o
IDMan_IPgetCertPkeyPKCSy                          output.o
IDMan_IPgetHash                                   output.o
IDMan_IPgetMakeRandData                           output.o
IDMan_IPgetPrivateKey                             output.o
IDMan_IPgetPrivateKeyPKCSx                        output.o
IDMan_IPuAPKCS11IdxParamChk                       output.o
IDMan_IPuAPKCS11ParamChk                          output.o
IDMan_IPvSIdxParamChk                             output.o
IDMan_IPvSParamChk                                output.o
IDMan_PaddingParamChk                             output.o
IDMan_SCardConnect                                output.o
IDMan_SCardDisconnect                             output.o
IDMan_SCardEstablishContext                       output.o
IDMan_SCardListReaders                            output.o
IDMan_SCardReleaseContext                         output.o
IDMan_SCardSetBinay                               output.o
IDMan_SCardSizeLongToChar                         output.o
IDMan_SCardStatus                                 output.o
IDMan_SCardTransmit                               output.o
IDMan_StAtoi                                      output.o
IDMan_StAtol                                      output.o
IDMan_StFree                                      output.o
IDMan_StMalloc                                    output.o
IDMan_StMemcmp                                    output.o
IDMan_StMemcpy                                    output.o
IDMan_StMemset                                    output.o
IDMan_StReadSetData                               output.o
IDMan_StStrcat                                    output.o
IDMan_StStrchr                                    output.o
IDMan_StStrcmp                                    output.o
IDMan_StStrcpy                                    output.o
IDMan_StStrlen                                    output.o
IDMan_generateSignature                           output.o
IDMan_generateSignatureByIndex                    output.o
IDMan_getCertificate                              output.o
IDMan_getCertificateByIndex                       output.o
IDMan_getMemoryFree                               output.o
IDMan_getStaticPassword                           output.o
IDMan_userAuthPKCS11                              output.o
IDMan_userAuthPKCS11ByIndex                       output.o
IDMan_verifySignature                             output.o
IDMan_verifySignatureByIndex                      output.o
IFDHCloseChannel                                  output.o
IFDHControl                                       output.o
IFDHCreateChannel                                 output.o
IFDHGetCapabilities                               output.o
IFDHICCPresence                                   output.o
IFDHPowerICC                                      output.o
IFDHSetProtocolParameters                         output.o
IFDHTransmitToICC                                 output.o
ISSUING_DIST_POINT_free                           output.o
ISSUING_DIST_POINT_it                             output.o
ISSUING_DIST_POINT_new                            output.o
InitCryptoLibrary                                 output.o
InitLeaderCardProtocol                            output.o
InternalAuth                                      output.o
LONG_it                                           output.o
MD4_Final                                         output.o
MD4_Init                                          output.o
MD4_Transform                                     output.o
MD4_Update                                        output.o
MD4_version                                       output.o
MD5                                               output.o
MD5_Final                                         output.o
MD5_Init                                          output.o
MD5_Transform                                     output.o
MD5_Update                                        output.o
MD5_version                                       output.o
NAME_CONSTRAINTS_check                            output.o
NAME_CONSTRAINTS_free                             output.o
NAME_CONSTRAINTS_it                               output.o
NAME_CONSTRAINTS_new                              output.o
NCONF_WIN32                                       output.o
NCONF_default                                     output.o
NCONF_dump_bio                                    output.o
NCONF_free                                        output.o
NCONF_free_data                                   output.o
NCONF_get_number_e                                output.o
NCONF_get_section                                 output.o
NCONF_get_string                                  output.o
NCONF_load                                        output.o
NCONF_load_bio                                    output.o
NCONF_new                                         output.o
NETSCAPE_CERT_SEQUENCE_free                       output.o
NETSCAPE_CERT_SEQUENCE_it                         output.o
NETSCAPE_CERT_SEQUENCE_new                        output.o
NETSCAPE_SPKAC_free                               output.o
NETSCAPE_SPKAC_it                                 output.o
NETSCAPE_SPKAC_new                                output.o
NETSCAPE_SPKI_free                                output.o
NETSCAPE_SPKI_it                                  output.o
NETSCAPE_SPKI_new                                 output.o
NETSCAPE_SPKI_sign                                output.o
NETSCAPE_SPKI_verify                              output.o
NOTICEREF_free                                    output.o
NOTICEREF_it                                      output.o
NOTICEREF_new                                     output.o
OBJ_NAME_add                                      output.o
OBJ_NAME_cleanup                                  output.o
OBJ_NAME_do_all                                   output.o
OBJ_NAME_do_all_sorted                            output.o
OBJ_NAME_get                                      output.o
OBJ_NAME_init                                     output.o
OBJ_NAME_new_index                                output.o
OBJ_NAME_remove                                   output.o
OBJ_add_object                                    output.o
OBJ_add_sigid                                     output.o
OBJ_bsearch_                                      output.o
OBJ_bsearch_ex_                                   output.o
OBJ_cleanup                                       output.o
OBJ_cmp                                           output.o
OBJ_create                                        output.o
OBJ_create_objects                                output.o
OBJ_dup                                           output.o
OBJ_find_sigid_algs                               output.o
OBJ_find_sigid_by_algs                            output.o
OBJ_ln2nid                                        output.o
OBJ_new_nid                                       output.o
OBJ_nid2ln                                        output.o
OBJ_nid2obj                                       output.o
OBJ_nid2sn                                        output.o
OBJ_obj2nid                                       output.o
OBJ_obj2txt                                       output.o
OBJ_sigid_free                                    output.o
OBJ_sn2nid                                        output.o
OBJ_txt2nid                                       output.o
OBJ_txt2obj                                       output.o
OCSP_BASICRESP_free                               output.o
OCSP_BASICRESP_it                                 output.o
OCSP_BASICRESP_new                                output.o
OCSP_CERTID_free                                  output.o
OCSP_CERTID_it                                    output.o
OCSP_CERTID_new                                   output.o
OCSP_CERTSTATUS_free                              output.o
OCSP_CERTSTATUS_it                                output.o
OCSP_CERTSTATUS_new                               output.o
OCSP_CRLID_free                                   output.o
OCSP_CRLID_it                                     output.o
OCSP_CRLID_new                                    output.o
OCSP_ONEREQ_free                                  output.o
OCSP_ONEREQ_it                                    output.o
OCSP_ONEREQ_new                                   output.o
OCSP_REQINFO_free                                 output.o
OCSP_REQINFO_it                                   output.o
OCSP_REQINFO_new                                  output.o
OCSP_REQUEST_free                                 output.o
OCSP_REQUEST_it                                   output.o
OCSP_REQUEST_new                                  output.o
OCSP_RESPBYTES_free                               output.o
OCSP_RESPBYTES_it                                 output.o
OCSP_RESPBYTES_new                                output.o
OCSP_RESPDATA_free                                output.o
OCSP_RESPDATA_it                                  output.o
OCSP_RESPDATA_new                                 output.o
OCSP_RESPID_free                                  output.o
OCSP_RESPID_it                                    output.o
OCSP_RESPID_new                                   output.o
OCSP_RESPONSE_free                                output.o
OCSP_RESPONSE_it                                  output.o
OCSP_RESPONSE_new                                 output.o
OCSP_REVOKEDINFO_free                             output.o
OCSP_REVOKEDINFO_it                               output.o
OCSP_REVOKEDINFO_new                              output.o
OCSP_SERVICELOC_free                              output.o
OCSP_SERVICELOC_it                                output.o
OCSP_SERVICELOC_new                               output.o
OCSP_SIGNATURE_free                               output.o
OCSP_SIGNATURE_it                                 output.o
OCSP_SIGNATURE_new                                output.o
OCSP_SINGLERESP_free                              output.o
OCSP_SINGLERESP_it                                output.o
OCSP_SINGLERESP_new                               output.o
OPENSSL_NONPIC_relocated                          output.o
OPENSSL_asc2uni                                   output.o
OPENSSL_cleanse                                   output.o
OPENSSL_cpuid_setup                               output.o
OPENSSL_gmtime                                    output.o
OPENSSL_gmtime_adj                                output.o
OPENSSL_ia32cap_P                                 output.o
OPENSSL_ia32cap_loc                               output.o
OPENSSL_isservice                                 output.o
OPENSSL_showfatal                                 output.o
OPENSSL_stderr                                    output.o
OPENSSL_uni2asc                                   output.o
OSSL_DES_version                                  output.o
OSSL_libdes_version                               output.o
OTHERNAME_cmp                                     output.o
OTHERNAME_free                                    output.o
OTHERNAME_it                                      output.o
OTHERNAME_new                                     output.o
OpenSSLDie                                        output.o
OpenSSL_add_all_ciphers                           output.o
OpenSSL_add_all_digests                           output.o
OpenUSB                                           output.o
PBE2PARAM_free                                    output.o
PBE2PARAM_it                                      output.o
PBE2PARAM_new                                     output.o
PBEPARAM_free                                     output.o
PBEPARAM_it                                       output.o
PBEPARAM_new                                      output.o
PBKDF2PARAM_free                                  output.o
PBKDF2PARAM_it                                    output.o
PBKDF2PARAM_new                                   output.o
PEM_ASN1_read_bio                                 output.o
PEM_ASN1_write_bio                                output.o
PEM_bytes_read_bio                                output.o
PEM_def_callback                                  output.o
PEM_dek_info                                      output.o
PEM_do_header                                     output.o
PEM_get_EVP_CIPHER_INFO                           output.o
PEM_proc_type                                     output.o
PEM_read_bio                                      output.o
PEM_read_bio_CMS                                  output.o
PEM_read_bio_DHparams                             output.o
PEM_read_bio_DSAPrivateKey                        output.o
PEM_read_bio_DSA_PUBKEY                           output.o
PEM_read_bio_DSAparams                            output.o
PEM_read_bio_ECPKParameters                       output.o
PEM_read_bio_ECPrivateKey                         output.o
PEM_read_bio_EC_PUBKEY                            output.o
PEM_read_bio_NETSCAPE_CERT_SEQUENCE               output.o
PEM_read_bio_PKCS7                                output.o
PEM_read_bio_PKCS8                                output.o
PEM_read_bio_PKCS8_PRIV_KEY_INFO                  output.o
PEM_read_bio_PUBKEY                               output.o
PEM_read_bio_Parameters                           output.o
PEM_read_bio_PrivateKey                           output.o
PEM_read_bio_RSAPrivateKey                        output.o
PEM_read_bio_RSAPublicKey                         output.o
PEM_read_bio_RSA_PUBKEY                           output.o
PEM_read_bio_X509                                 output.o
PEM_read_bio_X509_CRL                             output.o
PEM_read_bio_X509_REQ                             output.o
PEM_version                                       output.o
PEM_write_bio                                     output.o
PEM_write_bio_ASN1_stream                         output.o
PEM_write_bio_CMS                                 output.o
PEM_write_bio_CMS_stream                          output.o
PEM_write_bio_DHparams                            output.o
PEM_write_bio_DSAPrivateKey                       output.o
PEM_write_bio_DSA_PUBKEY                          output.o
PEM_write_bio_DSAparams                           output.o
PEM_write_bio_ECPKParameters                      output.o
PEM_write_bio_ECPrivateKey                        output.o
PEM_write_bio_EC_PUBKEY                           output.o
PEM_write_bio_NETSCAPE_CERT_SEQUENCE              output.o
PEM_write_bio_PKCS7                               output.o
PEM_write_bio_PKCS8                               output.o
PEM_write_bio_PKCS8PrivateKey                     output.o
PEM_write_bio_PKCS8PrivateKey_nid                 output.o
PEM_write_bio_PKCS8_PRIV_KEY_INFO                 output.o
PEM_write_bio_PUBKEY                              output.o
PEM_write_bio_Parameters                          output.o
PEM_write_bio_PrivateKey                          output.o
PEM_write_bio_RSAPrivateKey                       output.o
PEM_write_bio_RSAPublicKey                        output.o
PEM_write_bio_RSA_PUBKEY                          output.o
PEM_write_bio_X509                                output.o
PEM_write_bio_X509_CRL                            output.o
PEM_write_bio_X509_REQ                            output.o
PEM_write_bio_X509_REQ_NEW                        output.o
PHGetProtocol                                     output.o
PHSetProtocol                                     output.o
PKCS12_AUTHSAFES_it                               output.o
PKCS12_BAGS_free                                  output.o
PKCS12_BAGS_it                                    output.o
PKCS12_BAGS_new                                   output.o
PKCS12_MAC_DATA_free                              output.o
PKCS12_MAC_DATA_it                                output.o
PKCS12_MAC_DATA_new                               output.o
PKCS12_MAKE_KEYBAG                                output.o
PKCS12_MAKE_SHKEYBAG                              output.o
PKCS12_PBE_add                                    output.o
PKCS12_PBE_keyivgen                               output.o
PKCS12_SAFEBAGS_it                                output.o
PKCS12_SAFEBAG_free                               output.o
PKCS12_SAFEBAG_it                                 output.o
PKCS12_SAFEBAG_new                                output.o
PKCS12_certbag2x509                               output.o
PKCS12_certbag2x509crl                            output.o
PKCS12_decrypt_skey                               output.o
PKCS12_free                                       output.o
PKCS12_it                                         output.o
PKCS12_item_decrypt_d2i                           output.o
PKCS12_item_i2d_encrypt                           output.o
PKCS12_item_pack_safebag                          output.o
PKCS12_key_gen_asc                                output.o
PKCS12_key_gen_uni                                output.o
PKCS12_new                                        output.o
PKCS12_pack_authsafes                             output.o
PKCS12_pack_p7data                                output.o
PKCS12_pack_p7encdata                             output.o
PKCS12_pbe_crypt                                  output.o
PKCS12_unpack_authsafes                           output.o
PKCS12_unpack_p7data                              output.o
PKCS12_unpack_p7encdata                           output.o
PKCS12_x5092certbag                               output.o
PKCS12_x509crl2certbag                            output.o
PKCS1_MGF1                                        output.o
PKCS5_PBE_add                                     output.o
PKCS5_PBE_keyivgen                                output.o
PKCS5_PBKDF2_HMAC                                 output.o
PKCS5_PBKDF2_HMAC_SHA1                            output.o
PKCS5_pbe2_set                                    output.o
PKCS5_pbe2_set_iv                                 output.o
PKCS5_pbe_set                                     output.o
PKCS5_pbe_set0_algor                              output.o
PKCS5_v2_PBE_keyivgen                             output.o
PKCS7_ATTR_SIGN_it                                output.o
PKCS7_ATTR_VERIFY_it                              output.o
PKCS7_DIGEST_free                                 output.o
PKCS7_DIGEST_it                                   output.o
PKCS7_DIGEST_new                                  output.o
PKCS7_ENCRYPT_free                                output.o
PKCS7_ENCRYPT_it                                  output.o
PKCS7_ENCRYPT_new                                 output.o
PKCS7_ENC_CONTENT_free                            output.o
PKCS7_ENC_CONTENT_it                              output.o
PKCS7_ENC_CONTENT_new                             output.o
PKCS7_ENVELOPE_free                               output.o
PKCS7_ENVELOPE_it                                 output.o
PKCS7_ENVELOPE_new                                output.o
PKCS7_ISSUER_AND_SERIAL_digest                    output.o
PKCS7_ISSUER_AND_SERIAL_free                      output.o
PKCS7_ISSUER_AND_SERIAL_it                        output.o
PKCS7_ISSUER_AND_SERIAL_new                       output.o
PKCS7_RECIP_INFO_free                             output.o
PKCS7_RECIP_INFO_get0_alg                         output.o
PKCS7_RECIP_INFO_it                               output.o
PKCS7_RECIP_INFO_new                              output.o
PKCS7_RECIP_INFO_set                              output.o
PKCS7_SIGNED_free                                 output.o
PKCS7_SIGNED_it                                   output.o
PKCS7_SIGNED_new                                  output.o
PKCS7_SIGNER_INFO_free                            output.o
PKCS7_SIGNER_INFO_get0_algs                       output.o
PKCS7_SIGNER_INFO_it                              output.o
PKCS7_SIGNER_INFO_new                             output.o
PKCS7_SIGNER_INFO_set                             output.o
PKCS7_SIGNER_INFO_sign                            output.o
PKCS7_SIGN_ENVELOPE_free                          output.o
PKCS7_SIGN_ENVELOPE_it                            output.o
PKCS7_SIGN_ENVELOPE_new                           output.o
PKCS7_add0_attrib_signing_time                    output.o
PKCS7_add1_attrib_digest                          output.o
PKCS7_add_attrib_content_type                     output.o
PKCS7_add_attrib_smimecap                         output.o
PKCS7_add_attribute                               output.o
PKCS7_add_certificate                             output.o
PKCS7_add_crl                                     output.o
PKCS7_add_recipient                               output.o
PKCS7_add_recipient_info                          output.o
PKCS7_add_signature                               output.o
PKCS7_add_signed_attribute                        output.o
PKCS7_add_signer                                  output.o
PKCS7_cert_from_signer_info                       output.o
PKCS7_content_new                                 output.o
PKCS7_ctrl                                        output.o
PKCS7_dataDecode                                  output.o
PKCS7_dataFinal                                   output.o
PKCS7_dataInit                                    output.o
PKCS7_dataVerify                                  output.o
PKCS7_digest_from_attributes                      output.o
PKCS7_dup                                         output.o
PKCS7_free                                        output.o
PKCS7_get_attribute                               output.o
PKCS7_get_issuer_and_serial                       output.o
PKCS7_get_signed_attribute                        output.o
PKCS7_get_signer_info                             output.o
PKCS7_get_smimecap                                output.o
PKCS7_it                                          output.o
PKCS7_new                                         output.o
PKCS7_print_ctx                                   output.o
PKCS7_set0_type_other                             output.o
PKCS7_set_attributes                              output.o
PKCS7_set_cipher                                  output.o
PKCS7_set_content                                 output.o
PKCS7_set_digest                                  output.o
PKCS7_set_signed_attributes                       output.o
PKCS7_set_type                                    output.o
PKCS7_signatureVerify                             output.o
PKCS7_simple_smimecap                             output.o
PKCS7_stream                                      output.o
PKCS8_PRIV_KEY_INFO_free                          output.o
PKCS8_PRIV_KEY_INFO_it                            output.o
PKCS8_PRIV_KEY_INFO_new                           output.o
PKCS8_decrypt                                     output.o
PKCS8_encrypt                                     output.o
PKCS8_pkey_get0                                   output.o
PKCS8_pkey_set0                                   output.o
PKCS8_set_broken                                  output.o
PKEY_USAGE_PERIOD_free                            output.o
PKEY_USAGE_PERIOD_it                              output.o
PKEY_USAGE_PERIOD_new                             output.o
POLICYINFO_free                                   output.o
POLICYINFO_it                                     output.o
POLICYINFO_new                                    output.o
POLICYQUALINFO_free                               output.o
POLICYQUALINFO_it                                 output.o
POLICYQUALINFO_new                                output.o
POLICY_CONSTRAINTS_free                           output.o
POLICY_CONSTRAINTS_it                             output.o
POLICY_CONSTRAINTS_new                            output.o
POLICY_MAPPINGS_it                                output.o
POLICY_MAPPING_free                               output.o
POLICY_MAPPING_it                                 output.o
POLICY_MAPPING_new                                output.o
PROXY_CERT_INFO_EXTENSION_free                    output.o
PROXY_CERT_INFO_EXTENSION_it                      output.o
PROXY_CERT_INFO_EXTENSION_new                     output.o
PROXY_POLICY_free                                 output.o
PROXY_POLICY_it                                   output.o
PROXY_POLICY_new                                  output.o
PowerOff                                          output.o
PowerOn                                           output.o
RAND_SSLeay                                       output.o
RAND_add                                          output.o
RAND_bytes                                        output.o
RAND_cleanup                                      output.o
RAND_get_rand_method                              output.o
RAND_poll                                         output.o
RAND_pseudo_bytes                                 output.o
RAND_seed                                         output.o
RAND_set_rand_method                              output.o
RAND_status                                       output.o
RAND_version                                      output.o
RC2_cbc_encrypt                                   output.o
RC2_cfb64_encrypt                                 output.o
RC2_decrypt                                       output.o
RC2_ecb_encrypt                                   output.o
RC2_encrypt                                       output.o
RC2_ofb64_encrypt                                 output.o
RC2_set_key                                       output.o
RC2_version                                       output.o
RC4                                               output.o
RC4_options                                       output.o
RC4_set_key                                       output.o
RC4_version                                       output.o
RFAddReader                                       output.o
RFCheckReaderEventState                           output.o
RFReaderInfoById                                  output.o
RFRemoveReader                                    output.o
RIPEMD160_Final                                   output.o
RIPEMD160_Init                                    output.o
RIPEMD160_Transform                               output.o
RIPEMD160_Update                                  output.o
RMD160_version                                    output.o
RSAPrivateKey_dup                                 output.o
RSAPrivateKey_it                                  output.o
RSAPublicKey_dup                                  output.o
RSAPublicKey_it                                   output.o
RSA_PKCS1_SSLeay                                  output.o
RSA_X931_hash_id                                  output.o
RSA_blinding_off                                  output.o
RSA_blinding_on                                   output.o
RSA_flags                                         output.o
RSA_free                                          output.o
RSA_generate_key                                  output.o
RSA_generate_key_ex                               output.o
RSA_get_default_method                            output.o
RSA_get_ex_data                                   output.o
RSA_get_ex_new_index                              output.o
RSA_get_method                                    output.o
RSA_memory_lock                                   output.o
RSA_new                                           output.o
RSA_new_method                                    output.o
RSA_padding_add_PKCS1_OAEP                        output.o
RSA_padding_add_PKCS1_PSS                         output.o
RSA_padding_add_PKCS1_type_1                      output.o
RSA_padding_add_PKCS1_type_2                      output.o
RSA_padding_add_SSLv23                            output.o
RSA_padding_add_X931                              output.o
RSA_padding_add_none                              output.o
RSA_padding_check_PKCS1_OAEP                      output.o
RSA_padding_check_PKCS1_type_1                    output.o
RSA_padding_check_PKCS1_type_2                    output.o
RSA_padding_check_SSLv23                          output.o
RSA_padding_check_X931                            output.o
RSA_padding_check_none                            output.o
RSA_private_decrypt                               output.o
RSA_private_encrypt                               output.o
RSA_public_decrypt                                output.o
RSA_public_encrypt                                output.o
RSA_set_default_method                            output.o
RSA_set_ex_data                                   output.o
RSA_set_method                                    output.o
RSA_setup_blinding                                output.o
RSA_sign                                          output.o
RSA_size                                          output.o
RSA_up_ref                                        output.o
RSA_verify                                        output.o
RSA_verify_PKCS1_PSS                              output.o
RSA_version                                       output.o
ReadBinary                                        output.o
ReadDataT0                                        output.o
ReadUSB                                           output.o
ReceiveReply                                      output.o
SCardBeginTransaction                             output.o
SCardConnect                                      output.o
SCardDisconnect                                   output.o
SCardEndTransaction                               output.o
SCardEstablishContext                             output.o
SCardListReaders                                  output.o
SCardReleaseContext                               output.o
SCardStatus                                       output.o
SCardTransmit                                     output.o
SHA1                                              output.o
SHA1_Final                                        output.o
SHA1_Init                                         output.o
SHA1_Transform                                    output.o
SHA1_Update                                       output.o
SHA1_version                                      output.o
SHA224                                            output.o
SHA224_Final                                      output.o
SHA224_Init                                       output.o
SHA224_Update                                     output.o
SHA256                                            output.o
SHA256_Final                                      output.o
SHA256_Init                                       output.o
SHA256_Transform                                  output.o
SHA256_Update                                     output.o
SHA256_version                                    output.o
SHA384                                            output.o
SHA384_Final                                      output.o
SHA384_Init                                       output.o
SHA384_Update                                     output.o
SHA512                                            output.o
SHA512_Final                                      output.o
SHA512_Init                                       output.o
SHA512_Transform                                  output.o
SHA512_Update                                     output.o
SHA512_version                                    output.o
SHA_Final                                         output.o
SHA_Init                                          output.o
SHA_Transform                                     output.o
SHA_Update                                        output.o
SHA_version                                       output.o
SMIME_crlf_copy                                   output.o
SMIME_read_ASN1                                   output.o
SMIME_read_CMS                                    output.o
SMIME_text                                        output.o
SMIME_write_ASN1                                  output.o
SMIME_write_CMS                                   output.o
STACK_version                                     output.o
SXNETID_free                                      output.o
SXNETID_it                                        output.o
SXNETID_new                                       output.o
SXNET_add_id_INTEGER                              output.o
SXNET_add_id_asc                                  output.o
SXNET_add_id_ulong                                output.o
SXNET_free                                        output.o
SXNET_get_id_INTEGER                              output.o
SXNET_get_id_asc                                  output.o
SXNET_get_id_ulong                                output.o
SXNET_it                                          output.o
SXNET_new                                         output.o
Se4AddArpEntryList                                output.o
Se4AdjustTcpMss                                   output.o
Se4And                                            output.o
Se4BitToHex                                       output.o
Se4BroadcastMacAddress                            output.o
Se4BuildIcmpEchoPacket                            output.o
Se4CheckUnicastAddress                            output.o
Se4Cmp                                            output.o
Se4CmpArpEntry                                    output.o
Se4CmpArpWaitEntry                                output.o
Se4CmpIpCombineList                               output.o
Se4CombineIp                                      output.o
Se4FlushArpEntryList                              output.o
Se4FlushIpCombineList                             output.o
Se4FlushIpWaitList                                output.o
Se4Free                                           output.o
Se4FreeArpEntryList                               output.o
Se4FreeArpWaitList                                output.o
Se4FreeIpCombine                                  output.o
Se4FreeIpCombineList                              output.o
Se4FreeIpFragmentList                             output.o
Se4FreeIpHeaderInfo                               output.o
Se4FreeIpWait                                     output.o
Se4FreeIpWaitList                                 output.o
Se4GenerateSubnetMask                             output.o
Se4GenerateSubnetMask32                           output.o
Se4GetBroadcastAddress                            output.o
Se4GetHostAddress                                 output.o
Se4GetNetworkAddress                              output.o
Se4IPToStr                                        output.o
Se4IPToStr32                                      output.o
Se4IPToUINT                                       output.o
Se4Init                                           output.o
Se4InitArpEntryList                               output.o
Se4InitArpWaitList                                output.o
Se4InitIpCombineList                              output.o
Se4InitIpFragmentList                             output.o
Se4InitIpWaitList                                 output.o
Se4InsertIpCombine                                output.o
Se4InsertIpWait                                   output.o
Se4IpCheckChecksum                                output.o
Se4IpChecksum                                     output.o
Se4IsBroadcastAddress                             output.o
Se4IsInSameNetwork                                output.o
Se4IsSubnetMask                                   output.o
Se4IsZeroIP                                       output.o
Se4MacIpRelationKnown                             output.o
Se4MainProc                                       output.o
Se4Not                                            output.o
Se4Or                                             output.o
Se4ParseIpPacket                                  output.o
Se4ParseIpPacketICMPv4                            output.o
Se4ParseIpPacketUDPv4                             output.o
Se4ProcessArpWaitList                             output.o
Se4RecvArp                                        output.o
Se4RecvArpRequest                                 output.o
Se4RecvArpResponse                                output.o
Se4RecvEthPacket                                  output.o
Se4RecvIp                                         output.o
Se4RecvIpComplete                                 output.o
Se4SearchArpEntryList                             output.o
Se4SearchArpWaitList                              output.o
Se4SearchIpCombineList                            output.o
Se4SendArpDoProcess                               output.o
Se4SendArpRequest                                 output.o
Se4SendArpResponse                                output.o
Se4SendEthPacket                                  output.o
Se4SendIcmp                                       output.o
Se4SendIcmpEchoRequest                            output.o
Se4SendIcmpEchoResponse                           output.o
Se4SendIp                                         output.o
Se4SendIpFragment                                 output.o
Se4SendIpFragmentNow                              output.o
Se4SendRawIp                                      output.o
Se4SendUdp                                        output.o
Se4SendWaitingIpWait                              output.o
Se4StrToIP                                        output.o
Se4StrToIP32                                      output.o
Se4Tick                                           output.o
Se4UINTToIP                                       output.o
Se4ZeroIP                                         output.o
Se6AddGuestNode                                   output.o
Se6AddNeighborEntryList                           output.o
Se6And                                            output.o
Se6BroadcastMacAddress                            output.o
Se6BuildIcmpEchoPacket                            output.o
Se6CalcChecksum                                   output.o
Se6CheckIPItemStr                                 output.o
Se6CheckSubnetLength                              output.o
Se6CheckUnicastAddress                            output.o
Se6Cmp                                            output.o
Se6CmpIpCombineList                               output.o
Se6CmpNdpWaitEntry                                output.o
Se6CmpNeighborEntry                               output.o
Se6CombineIp                                      output.o
Se6FlushIpCombineList                             output.o
Se6FlushIpWaitList                                output.o
Se6FlushNeighborEntryList                         output.o
Se6Free                                           output.o
Se6FreeIpCombine                                  output.o
Se6FreeIpCombineList                              output.o
Se6FreeIpFragmentList                             output.o
Se6FreeIpHeaderInfo                               output.o
Se6FreeIpWait                                     output.o
Se6FreeIpWaitList                                 output.o
Se6FreeNdpWaitList                                output.o
Se6FreeNeighborEntryList                          output.o
Se6GenerateEui64Address                           output.o
Se6GenerateEui64GlobalAddress                     output.o
Se6GenerateEui64LocalAddress                      output.o
Se6GenerateMulticastMacAddress                    output.o
Se6GenerateSubnetMask                             output.o
Se6GetAllNodeMulticastAddr                        output.o
Se6GetAllRouterMulticastAddr                      output.o
Se6GetHostAddress                                 output.o
Se6GetIPAddrType                                  output.o
Se6GetPrefixAddress                               output.o
Se6GetSoliciationMulticastAddr                    output.o
Se6IPItemStrToChars                               output.o
Se6IPToStr                                        output.o
Se6Init                                           output.o
Se6InitIpCombineList                              output.o
Se6InitIpFragmentList                             output.o
Se6InitIpWaitList                                 output.o
Se6InitNdpWaitList                                output.o
Se6InitNeighborEntryList                          output.o
Se6InsertIpCombine                                output.o
Se6InsertIpWait                                   output.o
Se6IpChecksum                                     output.o
Se6IsGuestNode                                    output.o
Se6IsInSameNetwork                                output.o
Se6IsNetworkPrefixAddress                         output.o
Se6IsSubnetMask                                   output.o
Se6IsZeroIP                                       output.o
Se6LocalSubnet                                    output.o
Se6MacIpRelationKnown                             output.o
Se6MainProc                                       output.o
Se6Not                                            output.o
Se6Or                                             output.o
Se6ParseIpPacket                                  output.o
Se6ParseIpPacketICMPv6                            output.o
Se6ParseIpPacketUDPv6                             output.o
Se6ProcessNdpWaitList                             output.o
Se6RecvEthPacket                                  output.o
Se6RecvIp                                         output.o
Se6RecvIpComplete                                 output.o
Se6SearchIpCombineList                            output.o
Se6SearchNdpWaitList                              output.o
Se6SearchNeighborEntryList                        output.o
Se6SendEthPacket                                  output.o
Se6SendIcmp                                       output.o
Se6SendIcmpEchoRequest                            output.o
Se6SendIcmpEchoResponse                           output.o
Se6SendIcmpNeighborAdvertisement                  output.o
Se6SendIcmpNeighborSoliciation                    output.o
Se6SendIcmpRouterAdvertisement                    output.o
Se6SendIp                                         output.o
Se6SendIpFragment                                 output.o
Se6SendIpFragmentNow                              output.o
Se6SendNeighborSoliciation                        output.o
Se6SendNeighborSoliciationDoProcess               output.o
Se6SendRawIp                                      output.o
Se6SendUdp                                        output.o
Se6SendWaitingIpWait                              output.o
Se6StrToIP                                        output.o
Se6SubnetMaskToInt                                output.o
Se6Tick                                           output.o
Se6ZeroIP                                         output.o
SeAdd                                             output.o
SeAddBufStr                                       output.o
SeAdjustBufSize                                   output.o
SeB64CharToCode                                   output.o
SeB64CodeToChar                                   output.o
SeB64Decode                                       output.o
SeB64Encode                                       output.o
SeBSearch                                         output.o
SeBigNumToBuf                                     output.o
SeBigNumToStr                                     output.o
SeBinToBigNum                                     output.o
SeBinToStr                                        output.o
SeBinToStrEx                                      output.o
SeBioToBuf                                        output.o
SeBioToCert                                       output.o
SeBioToKey                                        output.o
SeBufToBigNum                                     output.o
SeBufToBio                                        output.o
SeBufToCert                                       output.o
SeBufToKey                                        output.o
SeBuildAndAddIPv6PacketOptionHeader               output.o
SeBuildICMPv6OptionValue                          output.o
SeBuildICMPv6Options                              output.o
SeBuildIPv6Packet                                 output.o
SeBuildIPv6PacketWithFragment                     output.o
SeCalcReplaceStrEx                                output.o
SeCertToBio                                       output.o
SeCertToBuf                                       output.o
SeCheckCert                                       output.o
SeCheckCertAndKey                                 output.o
SeCheckSignature                                  output.o
SeClearBuf                                        output.o
SeClearFifo                                       output.o
SeClone                                           output.o
SeCloneBuf                                        output.o
SeCloneCert                                       output.o
SeCloneKey                                        output.o
SeCloneList                                       output.o
SeCmp                                             output.o
SeCmpBuf                                          output.o
SeCmpEx                                           output.o
SeCompareCert                                     output.o
SeCompareStr                                      output.o
SeCopy                                            output.o
SeCopyStr                                         output.o
SeCopyToArray                                     output.o
SeDebug                                           output.o
SeDebugBin                                        output.o
SeDefaultTokenSplitChars                          output.o
SeDelete                                          output.o
SeDeleteAll                                       output.o
SeDeleteLock                                      output.o
SeDes3Decrypt                                     output.o
SeDes3Encrypt                                     output.o
SeDes3FreeKey                                     output.o
SeDes3NewKey                                      output.o
SeDes3RandKey                                     output.o
SeDesFreeKey                                      output.o
SeDesFreeKeyValue                                 output.o
SeDesNewKey                                       output.o
SeDesNewKeyValue                                  output.o
SeDesRandKey                                      output.o
SeDesRandKeyValue                                 output.o
SeDhCompute                                       output.o
SeDhFree                                          output.o
SeDhNew                                           output.o
SeDhNewGroup2                                     output.o
SeDumpBuf                                         output.o
SeEndWith                                         output.o
SeEndian16                                        output.o
SeEndian32                                        output.o
SeEndian64                                        output.o
SeError                                           output.o
SeEthAddSenderMacList                             output.o
SeEthDeleteOldSenderMacList                       output.o
SeEthFree                                         output.o
SeEthGenRandMacAddress                            output.o
SeEthGetInfo                                      output.o
SeEthGetNextRecvPacket                            output.o
SeEthIsSenderMacAddressExistsInList               output.o
SeEthNew                                          output.o
SeEthNicCallback                                  output.o
SeEthParseEthernetPacket                          output.o
SeEthSend                                         output.o
SeEthSendAdd                                      output.o
SeEthSendAll                                      output.o
SeFastSwap                                        output.o
SeFatal                                           output.o
SeFifoSize                                        output.o
SeFormat                                          output.o
SeFormatArgs                                      output.o
SeFormatEx                                        output.o
SeFree                                            output.o
SeFreeBio                                         output.o
SeFreeBuf                                         output.o
SeFreeBufWithoutBuffer                            output.o
SeFreeCert                                        output.o
SeFreeConfigEntryList                             output.o
SeFreeCrypto                                      output.o
SeFreeFifo                                        output.o
SeFreeKernel                                      output.o
SeFreeKey                                         output.o
SeFreeList                                        output.o
SeFreePKey                                        output.o
SeFreePacket                                      output.o
SeFreePacketList                                  output.o
SeFreePacketListWithoutBuffer                     output.o
SeFreeQueue                                       output.o
SeFreeStack                                       output.o
SeFreeToken                                       output.o
SeFreeX509                                        output.o
SeGetCertIssuerName                               output.o
SeGetCertMd5                                      output.o
SeGetCertSha1                                     output.o
SeGetCertSubjectName                              output.o
SeGetConfigBin                                    output.o
SeGetConfigBool                                   output.o
SeGetConfigEntry                                  output.o
SeGetConfigInt                                    output.o
SeGetConfigInt64                                  output.o
SeGetConfigStr                                    output.o
SeGetCurrentCpuId                                 output.o
SeGetKeyAndValue                                  output.o
SeGetKeyFromCert                                  output.o
SeGetNext                                         output.o
SeGetNextHeaderFromQueue                          output.o
SeGetNextInt                                      output.o
SeHashForSignBySHA1                               output.o
SeHexTo4Bit                                       output.o
SeHexToInt                                        output.o
SeHexToInt64                                      output.o
SeIkeBuild                                        output.o
SeIkeBuildCertPayload                             output.o
SeIkeBuildCertRequestPayload                      output.o
SeIkeBuildDataPayload                             output.o
SeIkeBuildDeletePayload                           output.o
SeIkeBuildIdPayload                               output.o
SeIkeBuildNoticePayload                           output.o
SeIkeBuildPayload                                 output.o
SeIkeBuildPayloadList                             output.o
SeIkeBuildProposalPayload                         output.o
SeIkeBuildSaPayload                               output.o
SeIkeBuildTransformPayload                        output.o
SeIkeBuildTransformValue                          output.o
SeIkeBuildTransformValueList                      output.o
SeIkeDecrypt                                      output.o
SeIkeEncrypt                                      output.o
SeIkeEncryptWithPadding                           output.o
SeIkeFree                                         output.o
SeIkeFreeCertPayload                              output.o
SeIkeFreeCertRequestPayload                       output.o
SeIkeFreeDataPayload                              output.o
SeIkeFreeDeletePayload                            output.o
SeIkeFreeIdPayload                                output.o
SeIkeFreeNoticePayload                            output.o
SeIkeFreePayload                                  output.o
SeIkeFreePayloadList                              output.o
SeIkeFreeProposalPayload                          output.o
SeIkeFreeSaPayload                                output.o
SeIkeFreeTransformPayload                         output.o
SeIkeFreeTransformValueList                       output.o
SeIkeGetFirstPayloadType                          output.o
SeIkeGetIPv4Address                               output.o
SeIkeGetIPv6Address                               output.o
SeIkeGetPayload                                   output.o
SeIkeGetPayloadNum                                output.o
SeIkeInitIPv4Address                              output.o
SeIkeInitIPv6Address                              output.o
SeIkeIpAddressToStr                               output.o
SeIkeIsZeroIP                                     output.o
SeIkeNew                                          output.o
SeIkeNewCertPayload                               output.o
SeIkeNewCertRequestPayload                        output.o
SeIkeNewDataPayload                               output.o
SeIkeNewDeletePayload                             output.o
SeIkeNewIdPayload                                 output.o
SeIkeNewNoticePayload                             output.o
SeIkeNewPayload                                   output.o
SeIkeNewProposalPayload                           output.o
SeIkeNewSaPayload                                 output.o
SeIkeNewTransformPayload                          output.o
SeIkeNewTransformValue                            output.o
SeIkeParse                                        output.o
SeIkeParseCertPayload                             output.o
SeIkeParseCertRequestPayload                      output.o
SeIkeParseDataPayload                             output.o
SeIkeParseDeletePayload                           output.o
SeIkeParseEx                                      output.o
SeIkeParseHeader                                  output.o
SeIkeParseIdPayload                               output.o
SeIkeParseNoticePayload                           output.o
SeIkeParsePayload                                 output.o
SeIkeParsePayloadList                             output.o
SeIkeParsePayloadListEx                           output.o
SeIkeParseProposalPayload                         output.o
SeIkeParseSaPayload                               output.o
SeIkeParseTransformPayload                        output.o
SeIkeParseTransformValueList                      output.o
SeIkePhase1CryptIdToKeySize                       output.o
SeIkePhase2CryptIdToKeySize                       output.o
SeIkeStrToPassword                                output.o
SeIkeStrToPhase1CryptId                           output.o
SeIkeStrToPhase1HashId                            output.o
SeIkeStrToPhase1Mode                              output.o
SeIkeStrToPhase2CryptId                           output.o
SeIkeStrToPhase2HashId                            output.o
SeInfo                                            output.o
SeInitCrypto                                      output.o
SeInitKernel                                      output.o
SeInsert                                          output.o
SeInsertQueue                                     output.o
SeInsertQueueInt                                  output.o
SeInsertStr                                       output.o
SeIntFree                                         output.o
SeIntInit                                         output.o
SeIsAllLowerStr                                   output.o
SeIsAllUpperStr                                   output.o
SeIsBase64                                        output.o
SeIsBigEndian                                     output.o
SeIsCertSignedByCert                              output.o
SeIsCharInStr                                     output.o
SeIsEmptyStr                                      output.o
SeIsInList                                        output.o
SeIsInListStr                                     output.o
SeIsLittleEndian                                  output.o
SeIsSplitChar                                     output.o
SeIsZero                                          output.o
SeKeyToBio                                        output.o
SeKeyToBuf                                        output.o
SeLoad                                            output.o
SeLoadCert                                        output.o
SeLoadConfigEntryList                             output.o
SeLoadConfigEntryListFromBuf                      output.o
SeLoadKey                                         output.o
SeLock                                            output.o
SeLog                                             output.o
SeLogArgs                                         output.o
SeMacSha1                                         output.o
SeMacSha196                                       output.o
SeMacToStr                                        output.o
SeMakeCharArray                                   output.o
SeMalloc                                          output.o
SeMd5                                             output.o
SeMemSize                                         output.o
SeMemToBuf                                        output.o
SeNewBio                                          output.o
SeNewBuf                                          output.o
SeNewFifo                                         output.o
SeNewList                                         output.o
SeNewLock                                         output.o
SeNewQueue                                        output.o
SeNewStack                                        output.o
SeNormalizeCrlf                                   output.o
SeNullTokenList                                   output.o
SePKeyPasswordCallbackFunction                    output.o
SeParseICMPv6Options                              output.o
SeParseIPv6ExtHeader                              output.o
SeParseIPv6Packet                                 output.o
SeParsePacket                                     output.o
SeParsePacketL2                                   output.o
SeParsePacketL3ARPv4                              output.o
SeParsePacketL3IPv4                               output.o
SeParsePacketL3IPv6                               output.o
SeParseToken                                      output.o
SeParseTokenWithNullStr                           output.o
SePeekFifo                                        output.o
SePeekNext                                        output.o
SePop                                             output.o
SePush                                            output.o
SeQSort                                           output.o
SeRand                                            output.o
SeRand1                                           output.o
SeRand16                                          output.o
SeRand32                                          output.o
SeRand64                                          output.o
SeRand8                                           output.o
SeRandBuf                                         output.o
SeReAlloc                                         output.o
SeReadBuf                                         output.o
SeReadBufFromBuf                                  output.o
SeReadBufInt                                      output.o
SeReadBufInt64                                    output.o
SeReadBufStr                                      output.o
SeReadDump                                        output.o
SeReadFifo                                        output.o
SeReadNextLine                                    output.o
SeReadRemainBuf                                   output.o
SeReplaceListPointer                              output.o
SeReplaceStr                                      output.o
SeReplaceStrEx                                    output.o
SeReplaceStri                                     output.o
SeRsaGen                                          output.o
SeRsaPrivateDecrypt                               output.o
SeRsaPrivateEncrypt                               output.o
SeRsaPublicDecrypt                                output.o
SeRsaPublicEncrypt                                output.o
SeRsaPublicSize                                   output.o
SeRsaPublicToBin                                  output.o
SeRsaPublicToBuf                                  output.o
SeRsaSign                                         output.o
SeRsaSignWithPadding                              output.o
SeRsaSignWithSha1                                 output.o
SeRsaVerifyWithPadding                            output.o
SeRsaVerifyWithSha1                               output.o
SeSave                                            output.o
SeSaveCert                                        output.o
SeSaveKey                                         output.o
SeSearch                                          output.o
SeSearchStr                                       output.o
SeSearchStrEx                                     output.o
SeSearchStri                                      output.o
SeSecAddTimer                                     output.o
SeSecCalcKEYMAT                                   output.o
SeSecCalcKEYMATFull                               output.o
SeSecCalcKa                                       output.o
SeSecCalcP1Iv                                     output.o
SeSecCalcP1KeySet                                 output.o
SeSecCalcP2Iv                                     output.o
SeSecCheckIPsecSaExpires                          output.o
SeSecCheckIkeSaExpires                            output.o
SeSecCmpIkeSa                                     output.o
SeSecDeleteExpiredIPsecSa                         output.o
SeSecDeleteExpiredIkeSa                           output.o
SeSecDoInterval                                   output.o
SeSecEspRecvCallback                              output.o
SeSecForceReconnect                               output.o
SeSecFree                                         output.o
SeSecFreeIPsecSa                                  output.o
SeSecFreeIkeSa                                    output.o
SeSecFreeMain                                     output.o
SeSecFreeP1KeySet                                 output.o
SeSecFreeSaList                                   output.o
SeSecGenIPsecSASpi                                output.o
SeSecGenIkeSaInitCookie                           output.o
SeSecGenIkeSaMessageId                            output.o
SeSecGetIPsecSa                                   output.o
SeSecInit                                         output.o
SeSecInitMain                                     output.o
SeSecInitSaList                                   output.o
SeSecLifeSeconds64bit                             output.o
SeSecNewIPsecSa                                   output.o
SeSecNewIkeSa                                     output.o
SeSecNewSpi                                       output.o
SeSecProcessIkeSaMsg                              output.o
SeSecProcessIkeSaMsgInfo                          output.o
SeSecProcessIkeSaMsgPhase1                        output.o
SeSecProcessIkeSaMsgPhase2                        output.o
SeSecProcessMain                                  output.o
SeSecRecvAggr                                     output.o
SeSecRecvMain2                                    output.o
SeSecRecvMain4                                    output.o
SeSecRecvMain6                                    output.o
SeSecSearchIPsecSaBySpi                           output.o
SeSecSearchIkeSa                                  output.o
SeSecSearchIkeSaBySpi                             output.o
SeSecSendAggr                                     output.o
SeSecSendEsp                                      output.o
SeSecSendIPsecSaDeleteMsg                         output.o
SeSecSendIkeSaDeleteMsg                           output.o
SeSecSendIkeSaMsgInfo                             output.o
SeSecSendIkeSaMsgInfoSimple                       output.o
SeSecSendIkeSaMsgPhase2                           output.o
SeSecSendIkeSaMsgPhase2FinalHash                  output.o
SeSecSendMain1                                    output.o
SeSecSendMain3                                    output.o
SeSecSendMain5                                    output.o
SeSecSendUdp                                      output.o
SeSecSendVirtualIp                                output.o
SeSecSetRecvEspCallback                           output.o
SeSecSetRecvUdpCallback                           output.o
SeSecSetRecvVirtualIpCallback                     output.o
SeSecSetTimerCallback                             output.o
SeSecStartVpnConnect                              output.o
SeSecStrToAuthMethod                              output.o
SeSecTick                                         output.o
SeSecTimerCallback                                output.o
SeSecUdpRecvCallback                              output.o
SeSecVirtualIpRecvCallback                        output.o
SeSeekBuf                                         output.o
SeSetCmp                                          output.o
SeSetSortFlag                                     output.o
SeSha1                                            output.o
SeSort                                            output.o
SeStartWith                                       output.o
SeStrCat                                          output.o
SeStrCheckLen                                     output.o
SeStrCheckSize                                    output.o
SeStrCmp                                          output.o
SeStrCmpi                                         output.o
SeStrCpy                                          output.o
SeStrLen                                          output.o
SeStrLower                                        output.o
SeStrSize                                         output.o
SeStrToBin                                        output.o
SeStrToBinEx                                      output.o
SeStrToMac                                        output.o
SeStrUpper                                        output.o
SeStrnCmp                                         output.o
SeStrnCmpi                                        output.o
SeSwap                                            output.o
SeSwap16                                          output.o
SeSwap32                                          output.o
SeSwap64                                          output.o
SeSysFreeData                                     output.o
SeSysFreeLock                                     output.o
SeSysFreeTimer                                    output.o
SeSysGetCurrentCpuId                              output.o
SeSysGetPhysicalNicInfo                           output.o
SeSysGetTickCount                                 output.o
SeSysGetVirtualNicInfo                            output.o
SeSysLoadData                                     output.o
SeSysLock                                         output.o
SeSysLog                                          output.o
SeSysMemoryAlloc                                  output.o
SeSysMemoryFree                                   output.o
SeSysMemoryReAlloc                                output.o
SeSysNewLock                                      output.o
SeSysNewTimer                                     output.o
SeSysRsaSign                                      output.o
SeSysSaveData                                     output.o
SeSysSendPhysicalNic                              output.o
SeSysSendVirtualNic                               output.o
SeSysSetPhysicalNicRecvCallback                   output.o
SeSysSetTimer                                     output.o
SeSysSetVirtualNicRecvCallback                    output.o
SeSysUnlock                                       output.o
SeTick                                            output.o
SeTick64                                          output.o
SeTick64Internal                                  output.o
SeTimerAdjust                                     output.o
SeTimerCallback                                   output.o
SeTimerEntryCompare                               output.o
SeTimerFree                                       output.o
SeTimerNew                                        output.o
SeTimerSet                                        output.o
SeToArray                                         output.o
SeToHex                                           output.o
SeToHex64                                         output.o
SeToInt                                           output.o
SeToInt64                                         output.o
SeToLower                                         output.o
SeToStr                                           output.o
SeToStr3                                          output.o
SeToStr64                                         output.o
SeToUpper                                         output.o
SeTrim                                            output.o
SeTrimCopy                                        output.o
SeTrimCrlf                                        output.o
SeTrimLeft                                        output.o
SeTrimRight                                       output.o
SeUniqueToken                                     output.o
SeUnlock                                          output.o
SeVpn4ClientAddTimer                              output.o
SeVpn4ClientGetTick                               output.o
SeVpn4ClientSendEsp                               output.o
SeVpn4ClientSendUdp                               output.o
SeVpn4ClientSendVirtualIp                         output.o
SeVpn4ClientSetRecvEspCallback                    output.o
SeVpn4ClientSetRecvUdpCallback                    output.o
SeVpn4ClientSetRecvVirtualIpCallback              output.o
SeVpn4ClientSetTimerCallback                      output.o
SeVpn4DhcpBuildDhcpOptionList                     output.o
SeVpn4DhcpFreeOptionList                          output.o
SeVpn4DhcpOptionsToBuf                            output.o
SeVpn4DhcpParseOptionList                         output.o
SeVpn4DhcpParseOptionListMain                     output.o
SeVpn4DhcpSearchOption                            output.o
SeVpn4DhcpSendResponse                            output.o
SeVpn4DhcpServer                                  output.o
SeVpn4DoInterval                                  output.o
SeVpn4Free                                        output.o
SeVpn4FreeIPsec                                   output.o
SeVpn4IPsecInputFromPhysical                      output.o
SeVpn4IPsecInputFromVirtual                       output.o
SeVpn4IPsecMainProc                               output.o
SeVpn4IPsecSendPing                               output.o
SeVpn4Init                                        output.o
SeVpn4InitIPsec                                   output.o
SeVpn4InitSecConfig                               output.o
SeVpn4MainProc                                    output.o
SeVpn4NewDhcpOption                               output.o
SeVpn4RecvPacketPhysical                          output.o
SeVpn4RecvPacketVirtual                           output.o
SeVpn4SetTimer                                    output.o
SeVpn4Tick                                        output.o
SeVpn6ClientAddTimer                              output.o
SeVpn6ClientGetTick                               output.o
SeVpn6ClientSendEsp                               output.o
SeVpn6ClientSendUdp                               output.o
SeVpn6ClientSendVirtualIp                         output.o
SeVpn6ClientSetRecvEspCallback                    output.o
SeVpn6ClientSetRecvUdpCallback                    output.o
SeVpn6ClientSetRecvVirtualIpCallback              output.o
SeVpn6ClientSetTimerCallback                      output.o
SeVpn6DoInterval                                  output.o
SeVpn6Free                                        output.o
SeVpn6FreeIPsec                                   output.o
SeVpn6IPsecInputFromPhysical                      output.o
SeVpn6IPsecInputFromVirtual                       output.o
SeVpn6IPsecMainProc                               output.o
SeVpn6IPsecSendPing                               output.o
SeVpn6Init                                        output.o
SeVpn6InitIPsec                                   output.o
SeVpn6InitSecConfig                               output.o
SeVpn6MainProc                                    output.o
SeVpn6RecvPacketPhysical                          output.o
SeVpn6RecvPacketVirtual                           output.o
SeVpn6SetTimer                                    output.o
SeVpn6Tick                                        output.o
SeVpn6UpdateGuestOsIpAddress                      output.o
SeVpnAddTimer                                     output.o
SeVpnDoInterval                                   output.o
SeVpnEthRecvCallback                              output.o
SeVpnFree                                         output.o
SeVpnFreeConfig                                   output.o
SeVpnFreeIpStack                                  output.o
SeVpnInit                                         output.o
SeVpnInitIpStack                                  output.o
SeVpnLoadConfig                                   output.o
SeVpnMainFree                                     output.o
SeVpnMainHandler                                  output.o
SeVpnMainInit                                     output.o
SeVpnMainProcRecvEtherPacket                      output.o
SeVpnMainProcess                                  output.o
SeVpnRecvEtherPacket                              output.o
SeVpnRecvIpV4PacketCallback                       output.o
SeVpnRecvIpV6PacketCallback                       output.o
SeVpnSendEtherPacket                              output.o
SeVpnStatusChanged                                output.o
SeVpnTick                                         output.o
SeVpnTimerCallback                                output.o
SeWarning                                         output.o
SeWriteBuf                                        output.o
SeWriteBufBuf                                     output.o
SeWriteBufInt                                     output.o
SeWriteBufInt64                                   output.o
SeWriteBufLine                                    output.o
SeWriteBufStr                                     output.o
SeWriteFifo                                       output.o
SeX509ToCert                                      output.o
SeZero                                            output.o
SeZeroMalloc                                      output.o
SelectFileDF                                      output.o
SelectFileEF                                      output.o
SetATR                                            output.o
SetElem                                           output.o
SetLength                                         output.o
StIsdigit                                         output.o
StIsspace                                         output.o
T0XfrBlockCHAR                                    output.o
T0XfrBlockTPDU                                    output.o
T1NegociateIFSD                                   output.o
T1XfrBlockExtendedAPDU                            output.o
T1XfrBlockTPDU                                    output.o
TransHex2Tex                                      output.o
TransTex2Hex                                      output.o
TransmitCommand                                   output.o
TransmitPPS                                       output.o
UI_OpenSSL                                        output.o
UI_add_error_string                               output.o
UI_add_info_string                                output.o
UI_add_input_boolean                              output.o
UI_add_input_string                               output.o
UI_add_user_data                                  output.o
UI_add_verify_string                              output.o
UI_construct_prompt                               output.o
UI_create_method                                  output.o
UI_ctrl                                           output.o
UI_destroy_method                                 output.o
UI_dup_error_string                               output.o
UI_dup_info_string                                output.o
UI_dup_input_boolean                              output.o
UI_dup_input_string                               output.o
UI_dup_verify_string                              output.o
UI_free                                           output.o
UI_get0_action_string                             output.o
UI_get0_output_string                             output.o
UI_get0_result                                    output.o
UI_get0_result_string                             output.o
UI_get0_test_string                               output.o
UI_get0_user_data                                 output.o
UI_get_default_method                             output.o
UI_get_ex_data                                    output.o
UI_get_ex_new_index                               output.o
UI_get_input_flags                                output.o
UI_get_method                                     output.o
UI_get_result_maxsize                             output.o
UI_get_result_minsize                             output.o
UI_get_string_type                                output.o
UI_method_get_closer                              output.o
UI_method_get_flusher                             output.o
UI_method_get_opener                              output.o
UI_method_get_prompt_constructor                  output.o
UI_method_get_reader                              output.o
UI_method_get_writer                              output.o
UI_method_set_closer                              output.o
UI_method_set_flusher                             output.o
UI_method_set_opener                              output.o
UI_method_set_prompt_constructor                  output.o
UI_method_set_reader                              output.o
UI_method_set_writer                              output.o
UI_new                                            output.o
UI_new_method                                     output.o
UI_process                                        output.o
UI_set_default_method                             output.o
UI_set_ex_data                                    output.o
UI_set_method                                     output.o
UI_set_result                                     output.o
USERNOTICE_free                                   output.o
USERNOTICE_it                                     output.o
USERNOTICE_new                                    output.o
UTF8_getc                                         output.o
UTF8_putc                                         output.o
UpdateBinary                                      output.o
VPN_IPsec_Client_Start                            output.o
VPN_IPsec_Client_Stop                             output.o
VPN_IPsec_Free                                    output.o
VPN_IPsec_Init                                    output.o
Verify                                            output.o
WHIRLPOOL                                         output.o
WHIRLPOOL_BitUpdate                               output.o
WHIRLPOOL_Final                                   output.o
WHIRLPOOL_Init                                    output.o
WHIRLPOOL_Update                                  output.o
WriteUSB                                          output.o
X509V3_EXT_CRL_add_conf                           output.o
X509V3_EXT_CRL_add_nconf                          output.o
X509V3_EXT_REQ_add_conf                           output.o
X509V3_EXT_REQ_add_nconf                          output.o
X509V3_EXT_add                                    output.o
X509V3_EXT_add_alias                              output.o
X509V3_EXT_add_conf                               output.o
X509V3_EXT_add_list                               output.o
X509V3_EXT_add_nconf                              output.o
X509V3_EXT_add_nconf_sk                           output.o
X509V3_EXT_cleanup                                output.o
X509V3_EXT_conf                                   output.o
X509V3_EXT_conf_nid                               output.o
X509V3_EXT_d2i                                    output.o
X509V3_EXT_get                                    output.o
X509V3_EXT_get_nid                                output.o
X509V3_EXT_i2d                                    output.o
X509V3_EXT_nconf                                  output.o
X509V3_EXT_nconf_nid                              output.o
X509V3_EXT_print                                  output.o
X509V3_EXT_val_prn                                output.o
X509V3_NAME_from_section                          output.o
X509V3_add1_i2d                                   output.o
X509V3_add_standard_extensions                    output.o
X509V3_add_value                                  output.o
X509V3_add_value_bool                             output.o
X509V3_add_value_bool_nf                          output.o
X509V3_add_value_int                              output.o
X509V3_add_value_uchar                            output.o
X509V3_conf_free                                  output.o
X509V3_extensions_print                           output.o
X509V3_get_d2i                                    output.o
X509V3_get_section                                output.o
X509V3_get_string                                 output.o
X509V3_get_value_bool                             output.o
X509V3_get_value_int                              output.o
X509V3_parse_list                                 output.o
X509V3_section_free                               output.o
X509V3_set_conf_lhash                             output.o
X509V3_set_ctx                                    output.o
X509V3_set_nconf                                  output.o
X509V3_string_free                                output.o
X509_ALGORS_it                                    output.o
X509_ALGOR_dup                                    output.o
X509_ALGOR_free                                   output.o
X509_ALGOR_get0                                   output.o
X509_ALGOR_it                                     output.o
X509_ALGOR_new                                    output.o
X509_ALGOR_set0                                   output.o
X509_ATTRIBUTE_SET_it                             output.o
X509_ATTRIBUTE_count                              output.o
X509_ATTRIBUTE_create                             output.o
X509_ATTRIBUTE_create_by_NID                      output.o
X509_ATTRIBUTE_create_by_OBJ                      output.o
X509_ATTRIBUTE_create_by_txt                      output.o
X509_ATTRIBUTE_dup                                output.o
X509_ATTRIBUTE_free                               output.o
X509_ATTRIBUTE_get0_data                          output.o
X509_ATTRIBUTE_get0_object                        output.o
X509_ATTRIBUTE_get0_type                          output.o
X509_ATTRIBUTE_it                                 output.o
X509_ATTRIBUTE_new                                output.o
X509_ATTRIBUTE_set1_data                          output.o
X509_ATTRIBUTE_set1_object                        output.o
X509_CERT_AUX_free                                output.o
X509_CERT_AUX_it                                  output.o
X509_CERT_AUX_new                                 output.o
X509_CERT_AUX_print                               output.o
X509_CERT_PAIR_free                               output.o
X509_CERT_PAIR_it                                 output.o
X509_CERT_PAIR_new                                output.o
X509_CINF_free                                    output.o
X509_CINF_it                                      output.o
X509_CINF_new                                     output.o
X509_CRL_INFO_free                                output.o
X509_CRL_INFO_it                                  output.o
X509_CRL_INFO_new                                 output.o
X509_CRL_METHOD_free                              output.o
X509_CRL_METHOD_new                               output.o
X509_CRL_add0_revoked                             output.o
X509_CRL_add1_ext_i2d                             output.o
X509_CRL_add_ext                                  output.o
X509_CRL_cmp                                      output.o
X509_CRL_delete_ext                               output.o
X509_CRL_digest                                   output.o
X509_CRL_dup                                      output.o
X509_CRL_free                                     output.o
X509_CRL_get0_by_cert                             output.o
X509_CRL_get0_by_serial                           output.o
X509_CRL_get_ext                                  output.o
X509_CRL_get_ext_by_NID                           output.o
X509_CRL_get_ext_by_OBJ                           output.o
X509_CRL_get_ext_by_critical                      output.o
X509_CRL_get_ext_count                            output.o
X509_CRL_get_ext_d2i                              output.o
X509_CRL_get_meth_data                            output.o
X509_CRL_it                                       output.o
X509_CRL_match                                    output.o
X509_CRL_new                                      output.o
X509_CRL_set_default_method                       output.o
X509_CRL_set_meth_data                            output.o
X509_CRL_sign                                     output.o
X509_CRL_verify                                   output.o
X509_EXTENSIONS_it                                output.o
X509_EXTENSION_create_by_NID                      output.o
X509_EXTENSION_create_by_OBJ                      output.o
X509_EXTENSION_dup                                output.o
X509_EXTENSION_free                               output.o
X509_EXTENSION_get_critical                       output.o
X509_EXTENSION_get_data                           output.o
X509_EXTENSION_get_object                         output.o
X509_EXTENSION_it                                 output.o
X509_EXTENSION_new                                output.o
X509_EXTENSION_set_critical                       output.o
X509_EXTENSION_set_data                           output.o
X509_EXTENSION_set_object                         output.o
X509_LOOKUP_by_alias                              output.o
X509_LOOKUP_by_fingerprint                        output.o
X509_LOOKUP_by_issuer_serial                      output.o
X509_LOOKUP_by_subject                            output.o
X509_LOOKUP_ctrl                                  output.o
X509_LOOKUP_free                                  output.o
X509_LOOKUP_init                                  output.o
X509_LOOKUP_new                                   output.o
X509_LOOKUP_shutdown                              output.o
X509_NAME_ENTRIES_it                              output.o
X509_NAME_ENTRY_create_by_NID                     output.o
X509_NAME_ENTRY_create_by_OBJ                     output.o
X509_NAME_ENTRY_create_by_txt                     output.o
X509_NAME_ENTRY_dup                               output.o
X509_NAME_ENTRY_free                              output.o
X509_NAME_ENTRY_get_data                          output.o
X509_NAME_ENTRY_get_object                        output.o
X509_NAME_ENTRY_it                                output.o
X509_NAME_ENTRY_new                               output.o
X509_NAME_ENTRY_set_data                          output.o
X509_NAME_ENTRY_set_object                        output.o
X509_NAME_INTERNAL_it                             output.o
X509_NAME_add_entry                               output.o
X509_NAME_add_entry_by_NID                        output.o
X509_NAME_add_entry_by_OBJ                        output.o
X509_NAME_add_entry_by_txt                        output.o
X509_NAME_cmp                                     output.o
X509_NAME_delete_entry                            output.o
X509_NAME_digest                                  output.o
X509_NAME_dup                                     output.o
X509_NAME_entry_count                             output.o
X509_NAME_free                                    output.o
X509_NAME_get_entry                               output.o
X509_NAME_get_index_by_NID                        output.o
X509_NAME_get_index_by_OBJ                        output.o
X509_NAME_get_text_by_NID                         output.o
X509_NAME_get_text_by_OBJ                         output.o
X509_NAME_hash                                    output.o
X509_NAME_hash_old                                output.o
X509_NAME_it                                      output.o
X509_NAME_new                                     output.o
X509_NAME_oneline                                 output.o
X509_NAME_print                                   output.o
X509_NAME_print_ex                                output.o
X509_NAME_set                                     output.o
X509_OBJECT_free_contents                         output.o
X509_OBJECT_idx_by_subject                        output.o
X509_OBJECT_retrieve_by_subject                   output.o
X509_OBJECT_retrieve_match                        output.o
X509_OBJECT_up_ref_count                          output.o
X509_POLICY_NODE_print                            output.o
X509_PUBKEY_free                                  output.o
X509_PUBKEY_get                                   output.o
X509_PUBKEY_get0_param                            output.o
X509_PUBKEY_it                                    output.o
X509_PUBKEY_new                                   output.o
X509_PUBKEY_set                                   output.o
X509_PUBKEY_set0_param                            output.o
X509_PURPOSE_add                                  output.o
X509_PURPOSE_cleanup                              output.o
X509_PURPOSE_get0                                 output.o
X509_PURPOSE_get0_name                            output.o
X509_PURPOSE_get0_sname                           output.o
X509_PURPOSE_get_by_id                            output.o
X509_PURPOSE_get_by_sname                         output.o
X509_PURPOSE_get_count                            output.o
X509_PURPOSE_get_id                               output.o
X509_PURPOSE_get_trust                            output.o
X509_PURPOSE_set                                  output.o
X509_REQ_INFO_free                                output.o
X509_REQ_INFO_it                                  output.o
X509_REQ_INFO_new                                 output.o
X509_REQ_add1_attr                                output.o
X509_REQ_add1_attr_by_NID                         output.o
X509_REQ_add1_attr_by_OBJ                         output.o
X509_REQ_add1_attr_by_txt                         output.o
X509_REQ_add_extensions                           output.o
X509_REQ_add_extensions_nid                       output.o
X509_REQ_check_private_key                        output.o
X509_REQ_delete_attr                              output.o
X509_REQ_digest                                   output.o
X509_REQ_dup                                      output.o
X509_REQ_extension_nid                            output.o
X509_REQ_free                                     output.o
X509_REQ_get1_email                               output.o
X509_REQ_get_attr                                 output.o
X509_REQ_get_attr_by_NID                          output.o
X509_REQ_get_attr_by_OBJ                          output.o
X509_REQ_get_attr_count                           output.o
X509_REQ_get_extension_nids                       output.o
X509_REQ_get_extensions                           output.o
X509_REQ_get_pubkey                               output.o
X509_REQ_it                                       output.o
X509_REQ_new                                      output.o
X509_REQ_set_extension_nids                       output.o
X509_REQ_set_pubkey                               output.o
X509_REQ_set_subject_name                         output.o
X509_REQ_set_version                              output.o
X509_REQ_sign                                     output.o
X509_REQ_verify                                   output.o
X509_REVOKED_add1_ext_i2d                         output.o
X509_REVOKED_add_ext                              output.o
X509_REVOKED_delete_ext                           output.o
X509_REVOKED_free                                 output.o
X509_REVOKED_get_ext                              output.o
X509_REVOKED_get_ext_by_NID                       output.o
X509_REVOKED_get_ext_by_OBJ                       output.o
X509_REVOKED_get_ext_by_critical                  output.o
X509_REVOKED_get_ext_count                        output.o
X509_REVOKED_get_ext_d2i                          output.o
X509_REVOKED_it                                   output.o
X509_REVOKED_new                                  output.o
X509_SIG_free                                     output.o
X509_SIG_it                                       output.o
X509_SIG_new                                      output.o
X509_STORE_CTX_cleanup                            output.o
X509_STORE_CTX_free                               output.o
X509_STORE_CTX_get0_current_crl                   output.o
X509_STORE_CTX_get0_current_issuer                output.o
X509_STORE_CTX_get0_param                         output.o
X509_STORE_CTX_get0_parent_ctx                    output.o
X509_STORE_CTX_get0_policy_tree                   output.o
X509_STORE_CTX_get1_chain                         output.o
X509_STORE_CTX_get1_issuer                        output.o
X509_STORE_CTX_get_chain                          output.o
X509_STORE_CTX_get_current_cert                   output.o
X509_STORE_CTX_get_error                          output.o
X509_STORE_CTX_get_error_depth                    output.o
X509_STORE_CTX_get_ex_data                        output.o
X509_STORE_CTX_get_ex_new_index                   output.o
X509_STORE_CTX_get_explicit_policy                output.o
X509_STORE_CTX_init                               output.o
X509_STORE_CTX_new                                output.o
X509_STORE_CTX_purpose_inherit                    output.o
X509_STORE_CTX_set0_crls                          output.o
X509_STORE_CTX_set0_param                         output.o
X509_STORE_CTX_set_cert                           output.o
X509_STORE_CTX_set_chain                          output.o
X509_STORE_CTX_set_default                        output.o
X509_STORE_CTX_set_depth                          output.o
X509_STORE_CTX_set_error                          output.o
X509_STORE_CTX_set_ex_data                        output.o
X509_STORE_CTX_set_flags                          output.o
X509_STORE_CTX_set_purpose                        output.o
X509_STORE_CTX_set_time                           output.o
X509_STORE_CTX_set_trust                          output.o
X509_STORE_CTX_set_verify_cb                      output.o
X509_STORE_CTX_trusted_stack                      output.o
X509_STORE_add_cert                               output.o
X509_STORE_add_crl                                output.o
X509_STORE_add_lookup                             output.o
X509_STORE_free                                   output.o
X509_STORE_get1_certs                             output.o
X509_STORE_get1_crls                              output.o
X509_STORE_get_by_subject                         output.o
X509_STORE_new                                    output.o
X509_STORE_set1_param                             output.o
X509_STORE_set_depth                              output.o
X509_STORE_set_flags                              output.o
X509_STORE_set_purpose                            output.o
X509_STORE_set_trust                              output.o
X509_STORE_set_verify_cb                          output.o
X509_TRUST_add                                    output.o
X509_TRUST_cleanup                                output.o
X509_TRUST_get0                                   output.o
X509_TRUST_get0_name                              output.o
X509_TRUST_get_by_id                              output.o
X509_TRUST_get_count                              output.o
X509_TRUST_get_flags                              output.o
X509_TRUST_get_trust                              output.o
X509_TRUST_set                                    output.o
X509_TRUST_set_default                            output.o
X509_VAL_free                                     output.o
X509_VAL_it                                       output.o
X509_VAL_new                                      output.o
X509_VERIFY_PARAM_add0_policy                     output.o
X509_VERIFY_PARAM_add0_table                      output.o
X509_VERIFY_PARAM_clear_flags                     output.o
X509_VERIFY_PARAM_free                            output.o
X509_VERIFY_PARAM_get_depth                       output.o
X509_VERIFY_PARAM_get_flags                       output.o
X509_VERIFY_PARAM_inherit                         output.o
X509_VERIFY_PARAM_lookup                          output.o
X509_VERIFY_PARAM_new                             output.o
X509_VERIFY_PARAM_set1                            output.o
X509_VERIFY_PARAM_set1_name                       output.o
X509_VERIFY_PARAM_set1_policies                   output.o
X509_VERIFY_PARAM_set_depth                       output.o
X509_VERIFY_PARAM_set_flags                       output.o
X509_VERIFY_PARAM_set_purpose                     output.o
X509_VERIFY_PARAM_set_time                        output.o
X509_VERIFY_PARAM_set_trust                       output.o
X509_VERIFY_PARAM_table_cleanup                   output.o
X509_add1_ext_i2d                                 output.o
X509_add1_reject_object                           output.o
X509_add1_trust_object                            output.o
X509_add_ext                                      output.o
X509_alias_get0                                   output.o
X509_alias_set1                                   output.o
X509_check_akid                                   output.o
X509_check_ca                                     output.o
X509_check_issued                                 output.o
X509_check_private_key                            output.o
X509_check_purpose                                output.o
X509_check_trust                                  output.o
X509_cmp                                          output.o
X509_cmp_current_time                             output.o
X509_cmp_time                                     output.o
X509_delete_ext                                   output.o
X509_digest                                       output.o
X509_dup                                          output.o
X509_email_free                                   output.o
X509_find_by_issuer_and_serial                    output.o
X509_find_by_subject                              output.o
X509_free                                         output.o
X509_get0_pubkey_bitstr                           output.o
X509_get1_email                                   output.o
X509_get1_ocsp                                    output.o
X509_get_default_cert_area                        output.o
X509_get_default_cert_dir                         output.o
X509_get_default_cert_dir_env                     output.o
X509_get_default_cert_file                        output.o
X509_get_default_cert_file_env                    output.o
X509_get_default_private_dir                      output.o
X509_get_ex_data                                  output.o
X509_get_ex_new_index                             output.o
X509_get_ext                                      output.o
X509_get_ext_by_NID                               output.o
X509_get_ext_by_OBJ                               output.o
X509_get_ext_by_critical                          output.o
X509_get_ext_count                                output.o
X509_get_ext_d2i                                  output.o
X509_get_issuer_name                              output.o
X509_get_pubkey                                   output.o
X509_get_pubkey_parameters                        output.o
X509_get_serialNumber                             output.o
X509_get_subject_name                             output.o
X509_gmtime_adj                                   output.o
X509_issuer_and_serial_cmp                        output.o
X509_issuer_and_serial_hash                       output.o
X509_issuer_name_cmp                              output.o
X509_issuer_name_hash                             output.o
X509_issuer_name_hash_old                         output.o
X509_it                                           output.o
X509_keyid_get0                                   output.o
X509_keyid_set1                                   output.o
X509_new                                          output.o
X509_ocspid_print                                 output.o
X509_policy_check                                 output.o
X509_policy_level_get0_node                       output.o
X509_policy_level_node_count                      output.o
X509_policy_node_get0_parent                      output.o
X509_policy_node_get0_policy                      output.o
X509_policy_node_get0_qualifiers                  output.o
X509_policy_tree_free                             output.o
X509_policy_tree_get0_level                       output.o
X509_policy_tree_get0_policies                    output.o
X509_policy_tree_get0_user_policies               output.o
X509_policy_tree_level_count                      output.o
X509_print                                        output.o
X509_print_ex                                     output.o
X509_pubkey_digest                                output.o
X509_reject_clear                                 output.o
X509_set_ex_data                                  output.o
X509_sign                                         output.o
X509_signature_print                              output.o
X509_subject_name_cmp                             output.o
X509_subject_name_hash                            output.o
X509_subject_name_hash_old                        output.o
X509_supported_extension                          output.o
X509_time_adj                                     output.o
X509_time_adj_ex                                  output.o
X509_to_X509_REQ                                  output.o
X509_trust_clear                                  output.o
X509_verify                                       output.o
X509_verify_cert                                  output.o
X509_version                                      output.o
X509at_add1_attr                                  output.o
X509at_add1_attr_by_NID                           output.o
X509at_add1_attr_by_OBJ                           output.o
X509at_add1_attr_by_txt                           output.o
X509at_delete_attr                                output.o
X509at_get0_data_by_OBJ                           output.o
X509at_get_attr                                   output.o
X509at_get_attr_by_NID                            output.o
X509at_get_attr_by_OBJ                            output.o
X509at_get_attr_count                             output.o
X509v3_add_ext                                    output.o
X509v3_delete_ext                                 output.o
X509v3_get_ext                                    output.o
X509v3_get_ext_by_NID                             output.o
X509v3_get_ext_by_OBJ                             output.o
X509v3_get_ext_by_critical                        output.o
X509v3_get_ext_count                              output.o
X9_62_CHARACTERISTIC_TWO_free                     output.o
X9_62_CHARACTERISTIC_TWO_it                       output.o
X9_62_CHARACTERISTIC_TWO_new                      output.o
X9_62_CURVE_it                                    output.o
X9_62_FIELDID_it                                  output.o
X9_62_PENTANOMIAL_free                            output.o
X9_62_PENTANOMIAL_it                              output.o
X9_62_PENTANOMIAL_new                             output.o
ZLONG_it                                          output.o
_CONF_add_string                                  output.o
_CONF_free_data                                   output.o
_CONF_get_section                                 output.o
_CONF_get_section_values                          output.o
_CONF_get_string                                  output.o
_CONF_new_data                                    output.o
_CONF_new_section                                 output.o
__initfunc_acpi_init_global                       output.o
__initfunc_acpi_init_paral                        output.o
__initfunc_ata_init                               output.o
__initfunc_beep_init_msg                          output.o
__initfunc_cache_init_pass                        output.o
__initfunc_cache_init_pcpu                        output.o
__initfunc_cache_init_vcpu                        output.o
__initfunc_callrealmode_init_global               output.o
__initfunc_callrealmode_panic                     output.o
__initfunc_copy_minios                            output.o
__initfunc_core_init                              output.o
__initfunc_cpu_mmu_spt_init_global                output.o
__initfunc_cpu_mmu_spt_init_pcpu                  output.o
__initfunc_cpuid_init                             output.o
__initfunc_cpuid_pass_init                        output.o
__initfunc_create_pass_vm                         output.o
__initfunc_debug_on_shift_key                     output.o
__initfunc_ehci_init                              output.o
__initfunc_end                                    output.o
__initfunc_exint_pass_init                        output.o
__initfunc_get_shiftflags                         output.o
__initfunc_gmm_pass_init                          output.o
__initfunc_idman_init                             output.o
__initfunc_idman_init_global                      output.o
__initfunc_idman_kernel_init                      output.o
__initfunc_ieee1394_init                          output.o
__initfunc_ieee1394_init_boot                     output.o
__initfunc_install_int0x15_hook                   output.o
__initfunc_int_init_global                        output.o
__initfunc_int_wakeup                             output.o
__initfunc_io_io_init                             output.o
__initfunc_io_iopass_init                         output.o
__initfunc_iommu_setup                            output.o
__initfunc_keyboard_init_msg                      output.o
__initfunc_localapic_init                         output.o
__initfunc_localapic_init2                        output.o
__initfunc_mm_init_global                         output.o
__initfunc_mmio_debug                             output.o
__initfunc_mmio_init                              output.o
__initfunc_msg_init_global                        output.o
__initfunc_msr_init                               output.o
__initfunc_msr_pass_init                          output.o
__initfunc_nmi_pass_init                          output.o
__initfunc_nmi_pass_init_pcpu                     output.o
__initfunc_panic_init_global                      output.o
__initfunc_panic_init_global3                     output.o
__initfunc_panic_init_msg                         output.o
__initfunc_panic_init_pcpu                        output.o
__initfunc_pci_init                               output.o
__initfunc_print_boot_msg                         output.o
__initfunc_printf_init_global                     output.o
__initfunc_pro100_init                            output.o
__initfunc_process_init_ap                        output.o
__initfunc_process_init_global                    output.o
__initfunc_process_wakeup                         output.o
__initfunc_random_init_config0                    output.o
__initfunc_random_init_global                     output.o
__initfunc_reboot_init_msg                        output.o
__initfunc_resume_pro1000                         output.o
__initfunc_segment_init_global                    output.o
__initfunc_serial_init_msg                        output.o
__initfunc_setiohooks                             output.o
__initfunc_sleep_init_global                      output.o
__initfunc_sleep_init_msg                         output.o
__initfunc_start                                  output.o
__initfunc_storage_io_initfunc                    output.o
__initfunc_storage_kernel_init                    output.o
__initfunc_suspend_pro1000                        output.o
__initfunc_svm_panic                              output.o
__initfunc_sx_init_pass_init                      output.o
__initfunc_thread_init_global                     output.o
__initfunc_thread_init_pcpu                       output.o
__initfunc_time_init_dbsp                         output.o
__initfunc_time_init_global                       output.o
__initfunc_time_init_global_status                output.o
__initfunc_time_init_msg                          output.o
__initfunc_time_init_pcpu                         output.o
__initfunc_time_wakeup                            output.o
__initfunc_timer_init_global                      output.o
__initfunc_tty_init_global                        output.o
__initfunc_tty_init_global2                       output.o
__initfunc_tty_init_msg                           output.o
__initfunc_uhci_init                              output.o
__initfunc_unmap_user_area                        output.o
__initfunc_update_mtrr_and_pat                    output.o
__initfunc_vcpu_init_global                       output.o
__initfunc_vga_init                               output.o
__initfunc_virtualization_init_pcpu               output.o
__initfunc_vmmcall_boot_init                      output.o
__initfunc_vmmcall_dbgsh_init                     output.o
__initfunc_vmmcall_dbgsh_init_global              output.o
__initfunc_vmmcall_dbgsh_init_pcpu                output.o
__initfunc_vmmcall_dump_memory_init               output.o
__initfunc_vmmcall_iccard_init                    output.o
__initfunc_vmmcall_init                           output.o
__initfunc_vmmcall_listmodule_init                output.o
__initfunc_vmmcall_listprocess_init               output.o
__initfunc_vmmcall_printlog_init                  output.o
__initfunc_vmmcall_status_init                    output.o
__initfunc_vmmcall_status_init_global             output.o
__initfunc_vpn_kernel_init                        output.o
__initfunc_vpn_pro1000_init                       output.o
__initfunc_vramwrite_init_bsp                     output.o
__initfunc_vramwrite_init_msg                     output.o
__initfunc_vt_panic                               output.o
__initfunc_vt_register_status_callback            output.o
__initfunc_wait_for_create_pass_vm                output.o
__initfunc_xsetbv_init                            output.o
__initfunc_xsetbv_pass_init                       output.o
__process_builtin                                 output.o
__process_builtin_end                             output.o
_dprintf                                          output.o
_dprintft                                         output.o
_shadow_DES_check_key                             output.o
a2d_ASN1_OBJECT                                   output.o
a2i_ASN1_INTEGER                                  output.o
a2i_ASN1_STRING                                   output.o
a2i_GENERAL_NAME                                  output.o
a2i_IPADDRESS                                     output.o
a2i_IPADDRESS_NC                                  output.o
a2i_ipadd                                         output.o
acpi_dsdt_parse                                   output.o
acpi_dsdt_system_state                            output.o
acpi_iohook                                       output.o
acpi_poweroff                                     output.o
acpi_read_mcfg                                    output.o
acpi_reset                                        output.o
acpi_smi_hook                                     output.o
acpi_ssdt_parse                                   output.o
add_remap                                         output.o
aes_xts_init                                      output.o
ahci_config_read                                  output.o
ahci_config_write                                 output.o
ahci_new                                          output.o
alloc                                             output.o
alloc2                                            output.o
alloc_handler_descriptor                          output.o
alloc_page                                        output.o
alloc_pages                                       output.o
alloc_realmodemem                                 output.o
ap_start_addr                                     output.o
apic_available                                    output.o
apinit_lock                                       output.o
apinit_procs                                      output.o
apinitproc0                                       output.o
app_pkey_methods                                  output.o
asm_vmlaunch_regs_32                              output.o
asm_vmlaunch_regs_64                              output.o
asm_vmresume_regs_32                              output.o
asm_vmresume_regs_64                              output.o
asm_vmrun_regs_32                                 output.o
asm_vmrun_regs_64                                 output.o
asn1_Finish                                       output.o
asn1_GetSequence                                  output.o
asn1_add_error                                    output.o
asn1_const_Finish                                 output.o
asn1_do_adb                                       output.o
asn1_do_lock                                      output.o
asn1_enc_free                                     output.o
asn1_enc_init                                     output.o
asn1_enc_restore                                  output.o
asn1_enc_save                                     output.o
asn1_ex_c2i                                       output.o
asn1_ex_i2c                                       output.o
asn1_get_choice_selector                          output.o
asn1_get_field_ptr                                output.o
asn1_set_choice_selector                          output.o
asn1_template_print_ctx                           output.o
assertion_failed                                  output.o
ata_ahci_mode                                     output.o
ata_bm_handle_command                             output.o
ata_bm_handle_device_specific                     output.o
ata_bm_handle_prd_table                           output.o
ata_bm_handle_status                              output.o
ata_bm_handler                                    output.o
ata_bm_handler_table                              output.o
ata_channel_lock                                  output.o
ata_channel_unlock                                output.o
ata_cmdblk_handler                                output.o
ata_cmdblk_handler_table                          output.o
ata_config_read                                   output.o
ata_config_write                                  output.o
ata_ctlblk_handler                                output.o
ata_ctlblk_handler_table                          output.o
ata_get_cmd_type                                  output.o
ata_handle_queued_status                          output.o
ata_init_io_handler                               output.o
ata_init_vendor                                   output.o
ata_set_bm_handler                                output.o
ata_set_cmdblk_handler                            output.o
ata_set_ctlblk_handler                            output.o
atapi_handle_cmd_packet                           output.o
atapi_handle_config_data                          output.o
atapi_handle_interrupt_reason                     output.o
atapi_handle_packet_data                          output.o
atapi_handle_pio_identify_packet                  output.o
atoi                                              output.o
auto_reboot                                       output.o
backtrace                                         output.o
beep_off                                          output.o
beep_on                                           output.o
beep_set_freq                                     output.o
bn_add_part_words                                 output.o
bn_add_words                                      output.o
bn_cmp_part_words                                 output.o
bn_cmp_words                                      output.o
bn_div_words                                      output.o
bn_dup_expand                                     output.o
bn_expand2                                        output.o
bn_mul_add_words                                  output.o
bn_mul_comba4                                     output.o
bn_mul_comba8                                     output.o
bn_mul_high                                       output.o
bn_mul_low_normal                                 output.o
bn_mul_low_recursive                              output.o
bn_mul_normal                                     output.o
bn_mul_part_recursive                             output.o
bn_mul_recursive                                  output.o
bn_mul_words                                      output.o
bn_sqr_comba4                                     output.o
bn_sqr_comba8                                     output.o
bn_sqr_normal                                     output.o
bn_sqr_recursive                                  output.o
bn_sqr_words                                      output.o
bn_sub_part_words                                 output.o
bn_sub_words                                      output.o
bss                                               output.o
c2i_ASN1_BIT_STRING                               output.o
c2i_ASN1_INTEGER                                  output.o
c2i_ASN1_OBJECT                                   output.o
cache_get_attr                                    output.o
cache_get_gmsr_amd                                output.o
cache_get_gmtrr                                   output.o
cache_get_gmtrr_attr                              output.o
cache_get_gmtrr_type                              output.o
cache_get_gmtrrcap                                output.o
cache_get_gpat                                    output.o
cache_set_gmsr_amd                                output.o
cache_set_gmtrr                                   output.o
cache_set_gpat                                    output.o
call_cpuid                                        output.o
call_initfunc                                     output.o
call_io                                           output.o
call_read_msr                                     output.o
call_uefi_allocate_pages                          output.o
call_uefi_free_pages                              output.o
call_uefi_get_memory_map                          output.o
call_uefi_getkey                                  output.o
call_uefi_putchar                                 output.o
call_write_msr                                    output.o
call_xsetbv                                       output.o
callfunc_and_getint                               output.o
callrealmode_bootcd_getstatus                     output.o
callrealmode_disk_readlba                         output.o
callrealmode_disk_readmbr                         output.o
callrealmode_end                                  output.o
callrealmode_endofcodeaddr                        output.o
callrealmode_getfontinfo                          output.o
callrealmode_getshiftflags                        output.o
callrealmode_getsysmemmap                         output.o
callrealmode_printmsg                             output.o
callrealmode_reboot                               output.o
callrealmode_setcursorpos                         output.o
callrealmode_setvideomode                         output.o
callrealmode_start                                output.o
callrealmode_start2                               output.o
callrealmode_startkernel32                        output.o
callrealmode_tcgbios                              output.o
callrealmode_usevcpu                              output.o
calluefi                                          output.o
calluefi_uefi_cr3                                 output.o
calluefi_uefi_gdtr                                output.o
calluefi_uefi_idtr                                output.o
calluefi_uefi_ldtr                                output.o
calluefi_uefi_sregs                               output.o
cancel_sleep                                      output.o
check_defer                                       output.o
chelp_abort                                       output.o
chelp_bsearch                                     output.o
chelp_div_64_32_32                                output.o
chelp_div_64_32_64                                output.o
chelp_free                                        output.o
chelp_inited                                      output.o
chelp_isalnum                                     output.o
chelp_isalpha                                     output.o
chelp_isdigit                                     output.o
chelp_islower                                     output.o
chelp_isspace                                     output.o
chelp_isupper                                     output.o
chelp_isxdigit                                    output.o
chelp_malloc                                      output.o
chelp_memchr                                      output.o
chelp_memcmp                                      output.o
chelp_memcpy                                      output.o
chelp_memmove                                     output.o
chelp_memset                                      output.o
chelp_mod_64_32_32                                output.o
chelp_mul_64_64_64                                output.o
chelp_print                                       output.o
chelp_printf                                      output.o
chelp_qsort                                       output.o
chelp_realloc                                     output.o
chelp_snprintf                                    output.o
chelp_sprintf                                     output.o
chelp_strcat                                      output.o
chelp_strchr                                      output.o
chelp_strcmp                                      output.o
chelp_strcpy                                      output.o
chelp_stricmp                                     output.o
chelp_strlen                                      output.o
chelp_strncasecmp                                 output.o
chelp_strncmp                                     output.o
chelp_strncpy                                     output.o
chelp_strrchr                                     output.o
chelp_strtol                                      output.o
chelp_strtoul                                     output.o
chelp_strtoul_ex                                  output.o
chelp_swap                                        output.o
chelp_tolower                                     output.o
chelp_toupper                                     output.o
cleanse_ctr                                       output.o
clflush_size                                      output.o
cmpxchg_gphys_l                                   output.o
cmpxchg_gphys_q                                   output.o
cmpxchg_hphys_l                                   output.o
cmpxchg_hphys_q                                   output.o
cms_Data_create                                   output.o
cms_DigestAlgorithm_find_ctx                      output.o
cms_DigestAlgorithm_init_bio                      output.o
cms_DigestAlgorithm_set                           output.o
cms_DigestedData_create                           output.o
cms_DigestedData_do_final                         output.o
cms_DigestedData_init_bio                         output.o
cms_EncryptedContent_init                         output.o
cms_EncryptedContent_init_bio                     output.o
cms_EncryptedData_init_bio                        output.o
cms_EnvelopedData_init_bio                        output.o
cms_SignedData_final                              output.o
cms_SignedData_init_bio                           output.o
cms_SignerIdentifier_cert_cmp                     output.o
cms_SignerIdentifier_get0_signer_id               output.o
cms_content_bio                                   output.o
cms_set1_SignerIdentifier                         output.o
code                                              output.o
codeend                                           output.o
config                                            output.o
copy_bootsector                                   output.o
copy_uefi_bootcode                                output.o
core_init                                         output.o
core_io_handle_default                            output.o
core_io_modify_handler                            output.o
core_io_register_handler                          output.o
core_io_unregister_handler                        output.o
core_mm_read_guest_phys                           output.o
core_mm_write_guest_phys                          output.o
cpu_emul_cli                                      output.o
cpu_emul_cpuid                                    output.o
cpu_emul_hlt                                      output.o
cpu_emul_rdmsr                                    output.o
cpu_emul_realmode_int                             output.o
cpu_emul_sti                                      output.o
cpu_emul_wrmsr                                    output.o
cpu_emul_xsetbv                                   output.o
cpu_interpreter                                   output.o
cpu_mmu_get_pte                                   output.o
cpu_mmu_spt_clear_all                             output.o
cpu_mmu_spt_extern_mapsearch                      output.o
cpu_mmu_spt_init                                  output.o
cpu_mmu_spt_invalidate                            output.o
cpu_mmu_spt_map_1mb                               output.o
cpu_mmu_spt_pagefault                             output.o
cpu_mmu_spt_tlbflush                              output.o
cpu_mmu_spt_updatecr3                             output.o
cpu_seg_read_b                                    output.o
cpu_seg_read_l                                    output.o
cpu_seg_read_q                                    output.o
cpu_seg_read_w                                    output.o
cpu_seg_write_b                                   output.o
cpu_seg_write_l                                   output.o
cpu_seg_write_q                                   output.o
cpu_seg_write_w                                   output.o
cpu_stack_get                                     output.o
cpu_stack_pop                                     output.o
cpu_stack_push                                    output.o
cpu_stack_set                                     output.o
cpuinit_end                                       output.o
cpuinit_start                                     output.o
create_dom                                        output.o
crypt_sys_rsa_sign                                output.o
crypto_find                                       output.o
crypto_init                                       output.o
crypto_none_init                                  output.o
crypto_register                                   output.o
curthread                                         output.o
d2i_ACCESS_DESCRIPTION                            output.o
d2i_ASN1_BIT_STRING                               output.o
d2i_ASN1_BMPSTRING                                output.o
d2i_ASN1_BOOLEAN                                  output.o
d2i_ASN1_ENUMERATED                               output.o
d2i_ASN1_GENERALIZEDTIME                          output.o
d2i_ASN1_GENERALSTRING                            output.o
d2i_ASN1_IA5STRING                                output.o
d2i_ASN1_INTEGER                                  output.o
d2i_ASN1_NULL                                     output.o
d2i_ASN1_OBJECT                                   output.o
d2i_ASN1_OCTET_STRING                             output.o
d2i_ASN1_PRINTABLE                                output.o
d2i_ASN1_PRINTABLESTRING                          output.o
d2i_ASN1_SEQUENCE_ANY                             output.o
d2i_ASN1_SET                                      output.o
d2i_ASN1_SET_ANY                                  output.o
d2i_ASN1_T61STRING                                output.o
d2i_ASN1_TIME                                     output.o
d2i_ASN1_TYPE                                     output.o
d2i_ASN1_UINTEGER                                 output.o
d2i_ASN1_UNIVERSALSTRING                          output.o
d2i_ASN1_UTCTIME                                  output.o
d2i_ASN1_UTF8STRING                               output.o
d2i_ASN1_VISIBLESTRING                            output.o
d2i_ASN1_bytes                                    output.o
d2i_ASN1_type_bytes                               output.o
d2i_AUTHORITY_INFO_ACCESS                         output.o
d2i_AUTHORITY_KEYID                               output.o
d2i_AutoPrivateKey                                output.o
d2i_BASIC_CONSTRAINTS                             output.o
d2i_CERTIFICATEPOLICIES                           output.o
d2i_CMS_ContentInfo                               output.o
d2i_CMS_bio                                       output.o
d2i_CRL_DIST_POINTS                               output.o
d2i_DHparams                                      output.o
d2i_DIRECTORYSTRING                               output.o
d2i_DISPLAYTEXT                                   output.o
d2i_DIST_POINT                                    output.o
d2i_DIST_POINT_NAME                               output.o
d2i_DSAPrivateKey                                 output.o
d2i_DSAPrivateKey_bio                             output.o
d2i_DSAPublicKey                                  output.o
d2i_DSA_PUBKEY                                    output.o
d2i_DSA_PUBKEY_bio                                output.o
d2i_DSA_SIG                                       output.o
d2i_DSAparams                                     output.o
d2i_ECDSA_SIG                                     output.o
d2i_ECPKPARAMETERS                                output.o
d2i_ECPKParameters                                output.o
d2i_ECParameters                                  output.o
d2i_ECPrivateKey                                  output.o
d2i_ECPrivateKey_bio                              output.o
d2i_EC_PRIVATEKEY                                 output.o
d2i_EC_PUBKEY                                     output.o
d2i_EC_PUBKEY_bio                                 output.o
d2i_EDIPARTYNAME                                  output.o
d2i_EXTENDED_KEY_USAGE                            output.o
d2i_GENERAL_NAME                                  output.o
d2i_GENERAL_NAMES                                 output.o
d2i_ISSUING_DIST_POINT                            output.o
d2i_NETSCAPE_CERT_SEQUENCE                        output.o
d2i_NETSCAPE_SPKAC                                output.o
d2i_NETSCAPE_SPKI                                 output.o
d2i_NOTICEREF                                     output.o
d2i_OCSP_BASICRESP                                output.o
d2i_OCSP_CERTID                                   output.o
d2i_OCSP_CERTSTATUS                               output.o
d2i_OCSP_CRLID                                    output.o
d2i_OCSP_ONEREQ                                   output.o
d2i_OCSP_REQINFO                                  output.o
d2i_OCSP_REQUEST                                  output.o
d2i_OCSP_RESPBYTES                                output.o
d2i_OCSP_RESPDATA                                 output.o
d2i_OCSP_RESPID                                   output.o
d2i_OCSP_RESPONSE                                 output.o
d2i_OCSP_REVOKEDINFO                              output.o
d2i_OCSP_SERVICELOC                               output.o
d2i_OCSP_SIGNATURE                                output.o
d2i_OCSP_SINGLERESP                               output.o
d2i_OTHERNAME                                     output.o
d2i_PBE2PARAM                                     output.o
d2i_PBEPARAM                                      output.o
d2i_PBKDF2PARAM                                   output.o
d2i_PKCS12                                        output.o
d2i_PKCS12_BAGS                                   output.o
d2i_PKCS12_MAC_DATA                               output.o
d2i_PKCS12_SAFEBAG                                output.o
d2i_PKCS12_bio                                    output.o
d2i_PKCS7                                         output.o
d2i_PKCS7_DIGEST                                  output.o
d2i_PKCS7_ENCRYPT                                 output.o
d2i_PKCS7_ENC_CONTENT                             output.o
d2i_PKCS7_ENVELOPE                                output.o
d2i_PKCS7_ISSUER_AND_SERIAL                       output.o
d2i_PKCS7_RECIP_INFO                              output.o
d2i_PKCS7_SIGNED                                  output.o
d2i_PKCS7_SIGNER_INFO                             output.o
d2i_PKCS7_SIGN_ENVELOPE                           output.o
d2i_PKCS7_bio                                     output.o
d2i_PKCS8PrivateKey_bio                           output.o
d2i_PKCS8_PRIV_KEY_INFO                           output.o
d2i_PKCS8_PRIV_KEY_INFO_bio                       output.o
d2i_PKCS8_bio                                     output.o
d2i_PKEY_USAGE_PERIOD                             output.o
d2i_POLICYINFO                                    output.o
d2i_POLICYQUALINFO                                output.o
d2i_PROXY_CERT_INFO_EXTENSION                     output.o
d2i_PROXY_POLICY                                  output.o
d2i_PUBKEY                                        output.o
d2i_PUBKEY_bio                                    output.o
d2i_PrivateKey                                    output.o
d2i_PrivateKey_bio                                output.o
d2i_RSAPrivateKey                                 output.o
d2i_RSAPrivateKey_bio                             output.o
d2i_RSAPublicKey                                  output.o
d2i_RSAPublicKey_bio                              output.o
d2i_RSA_PUBKEY                                    output.o
d2i_RSA_PUBKEY_bio                                output.o
d2i_SXNET                                         output.o
d2i_SXNETID                                       output.o
d2i_USERNOTICE                                    output.o
d2i_X509                                          output.o
d2i_X509_ALGOR                                    output.o
d2i_X509_ALGORS                                   output.o
d2i_X509_ATTRIBUTE                                output.o
d2i_X509_AUX                                      output.o
d2i_X509_CERT_AUX                                 output.o
d2i_X509_CERT_PAIR                                output.o
d2i_X509_CINF                                     output.o
d2i_X509_CRL                                      output.o
d2i_X509_CRL_INFO                                 output.o
d2i_X509_CRL_bio                                  output.o
d2i_X509_EXTENSION                                output.o
d2i_X509_EXTENSIONS                               output.o
d2i_X509_NAME                                     output.o
d2i_X509_NAME_ENTRY                               output.o
d2i_X509_PUBKEY                                   output.o
d2i_X509_REQ                                      output.o
d2i_X509_REQ_INFO                                 output.o
d2i_X509_REQ_bio                                  output.o
d2i_X509_REVOKED                                  output.o
d2i_X509_SIG                                      output.o
d2i_X509_VAL                                      output.o
d2i_X509_bio                                      output.o
deactivate_and_delete_urb                         output.o
debug_addstr                                      output.o
debug_gdb                                         output.o
debug_iohook                                      output.o
debug_msgregister                                 output.o
debug_msgunregister                               output.o
decryptcfg                                        output.o
default_pctx                                      output.o
dh_asn1_meth                                      output.o
dh_pkey_meth                                      output.o
disable_apic                                      output.o
do_exint_pass                                     output.o
do_externalint_enable                             output.o
do_io_nothing                                     output.o
do_iopass_default                                 output.o
do_panic_reboot                                   output.o
dom_io                                            output.o
dprintf_port                                      output.o
drhd_list_head                                    output.o
dsa_asn1_meths                                    output.o
dsa_builtin_paramgen                              output.o
dsa_pkey_meth                                     output.o
dsa_pub_internal_it                               output.o
dump_frame                                        output.o
dump_qh                                           output.o
dump_td                                           output.o
dump_td_byvirt                                    output.o
dwReaders                                         output.o
e801_fake_ax                                      output.o
e801_fake_bx                                      output.o
ec_GF2m_have_precompute_mult                      output.o
ec_GF2m_precompute_mult                           output.o
ec_GF2m_simple_add                                output.o
ec_GF2m_simple_cmp                                output.o
ec_GF2m_simple_dbl                                output.o
ec_GF2m_simple_field_div                          output.o
ec_GF2m_simple_field_mul                          output.o
ec_GF2m_simple_field_sqr                          output.o
ec_GF2m_simple_group_check_discriminant           output.o
ec_GF2m_simple_group_clear_finish                 output.o
ec_GF2m_simple_group_copy                         output.o
ec_GF2m_simple_group_finish                       output.o
ec_GF2m_simple_group_get_curve                    output.o
ec_GF2m_simple_group_get_degree                   output.o
ec_GF2m_simple_group_init                         output.o
ec_GF2m_simple_group_set_curve                    output.o
ec_GF2m_simple_invert                             output.o
ec_GF2m_simple_is_at_infinity                     output.o
ec_GF2m_simple_is_on_curve                        output.o
ec_GF2m_simple_make_affine                        output.o
ec_GF2m_simple_mul                                output.o
ec_GF2m_simple_oct2point                          output.o
ec_GF2m_simple_point2oct                          output.o
ec_GF2m_simple_point_clear_finish                 output.o
ec_GF2m_simple_point_copy                         output.o
ec_GF2m_simple_point_finish                       output.o
ec_GF2m_simple_point_get_affine_coordinates       output.o
ec_GF2m_simple_point_init                         output.o
ec_GF2m_simple_point_set_affine_coordinates       output.o
ec_GF2m_simple_point_set_to_infinity              output.o
ec_GF2m_simple_points_make_affine                 output.o
ec_GF2m_simple_set_compressed_coordinates         output.o
ec_GFp_mont_field_decode                          output.o
ec_GFp_mont_field_encode                          output.o
ec_GFp_mont_field_mul                             output.o
ec_GFp_mont_field_set_to_one                      output.o
ec_GFp_mont_field_sqr                             output.o
ec_GFp_mont_group_clear_finish                    output.o
ec_GFp_mont_group_copy                            output.o
ec_GFp_mont_group_finish                          output.o
ec_GFp_mont_group_init                            output.o
ec_GFp_mont_group_set_curve                       output.o
ec_GFp_nist_field_mul                             output.o
ec_GFp_nist_field_sqr                             output.o
ec_GFp_nist_group_copy                            output.o
ec_GFp_nist_group_set_curve                       output.o
ec_GFp_simple_add                                 output.o
ec_GFp_simple_cmp                                 output.o
ec_GFp_simple_dbl                                 output.o
ec_GFp_simple_field_mul                           output.o
ec_GFp_simple_field_sqr                           output.o
ec_GFp_simple_get_Jprojective_coordinates_GFp     output.o
ec_GFp_simple_group_check_discriminant            output.o
ec_GFp_simple_group_clear_finish                  output.o
ec_GFp_simple_group_copy                          output.o
ec_GFp_simple_group_finish                        output.o
ec_GFp_simple_group_get_curve                     output.o
ec_GFp_simple_group_get_degree                    output.o
ec_GFp_simple_group_init                          output.o
ec_GFp_simple_group_set_curve                     output.o
ec_GFp_simple_invert                              output.o
ec_GFp_simple_is_at_infinity                      output.o
ec_GFp_simple_is_on_curve                         output.o
ec_GFp_simple_make_affine                         output.o
ec_GFp_simple_oct2point                           output.o
ec_GFp_simple_point2oct                           output.o
ec_GFp_simple_point_clear_finish                  output.o
ec_GFp_simple_point_copy                          output.o
ec_GFp_simple_point_finish                        output.o
ec_GFp_simple_point_get_affine_coordinates        output.o
ec_GFp_simple_point_init                          output.o
ec_GFp_simple_point_set_affine_coordinates        output.o
ec_GFp_simple_point_set_to_infinity               output.o
ec_GFp_simple_points_make_affine                  output.o
ec_GFp_simple_set_Jprojective_coordinates_GFp     output.o
ec_GFp_simple_set_compressed_coordinates          output.o
ec_pkey_meth                                      output.o
ec_wNAF_have_precompute_mult                      output.o
ec_wNAF_mul                                       output.o
ec_wNAF_precompute_mult                           output.o
ecdh_check                                        output.o
ecdsa_check                                       output.o
eckey_asn1_meth                                   output.o
ehci_check_advance                                output.o
ehci_check_urb_advance                            output.o
ehci_cleanup_urbs                                 output.o
ehci_conceal_portroute                            output.o
ehci_deactivate_urb                               output.o
ehci_dump_alist                                   output.o
ehci_dump_all                                     output.o
ehci_dump_async                                   output.o
ehci_dump_qtd                                     output.o
ehci_dump_qtdm                                    output.o
ehci_dump_urb                                     output.o
ehci_dump_urblist                                 output.o
ehci_end_monitor_async                            output.o
ehci_host                                         output.o
ehci_init                                         output.o
ehci_monitor_async_list                           output.o
ehci_shadow_async_list                            output.o
ehci_shadow_buffer                                output.o
ehci_submit_bulk                                  output.o
ehci_submit_control                               output.o
ehci_submit_interrupt                             output.o
end                                               output.o
entry                                             output.o
entry_pd                                          output.o
entry_pd0                                         output.o
entry_pdp                                         output.o
evp_pkey_set_cb_translate                         output.o
exitprocess                                       output.o
fill_pagetable                                    output.o
free                                              output.o
free_config_descriptors                           output.o
free_device                                       output.o
free_page                                         output.o
free_page_phys                                    output.o
g_rgSCardT0Pci                                    output.o
g_rgSCardT1Pci                                    output.o
get_acpi_time                                     output.o
get_acpi_time_raw                                 output.o
get_cpu_id                                        output.o
get_cpu_time                                      output.o
get_gurb_by_address                               output.o
get_idman_session                                 output.o
get_seg_access_rights                             output.o
get_seg_base                                      output.o
get_time                                          output.o
getfakesysmemmap                                  output.o
getsysmemmap                                      output.o
gmm_pass_gp2hp                                    output.o
gs_current                                        output.o
gs_currentcpu                                     output.o
gs_init_count                                     output.o
gs_inthandling                                    output.o
gs_nmi                                            output.o
gs_syscallstack                                   output.o
guest_int0x15_e801_fake_ax                        output.o
guest_int0x15_e801_fake_bx                        output.o
guest_int0x15_e820_data_minus0x18                 output.o
guest_int0x15_e820_end                            output.o
guest_int0x15_hook                                output.o
guest_int0x15_hook_end                            output.o
guest_int0x15_orig                                output.o
hContext                                          output.o
hObjectCnt                                        output.o
hSessionCnt                                       output.o
handle_connect_status                             output.o
handle_init_to_bsp                                output.o
handle_port_reset                                 output.o
handler_descriptor                                output.o
handler_descriptor_lock                           output.o
head                                              output.o
hex_to_string                                     output.o
hmac_asn1_meth                                    output.o
hmac_pkey_meth                                    output.o
htoi                                              output.o
hub_portdevice_register                           output.o
i2a_ACCESS_DESCRIPTION                            output.o
i2a_ASN1_INTEGER                                  output.o
i2a_ASN1_OBJECT                                   output.o
i2a_ASN1_STRING                                   output.o
i2c_ASN1_BIT_STRING                               output.o
i2c_ASN1_INTEGER                                  output.o
i2d_ACCESS_DESCRIPTION                            output.o
i2d_ASN1_BIT_STRING                               output.o
i2d_ASN1_BMPSTRING                                output.o
i2d_ASN1_BOOLEAN                                  output.o
i2d_ASN1_ENUMERATED                               output.o
i2d_ASN1_GENERALIZEDTIME                          output.o
i2d_ASN1_GENERALSTRING                            output.o
i2d_ASN1_IA5STRING                                output.o
i2d_ASN1_INTEGER                                  output.o
i2d_ASN1_NULL                                     output.o
i2d_ASN1_OBJECT                                   output.o
i2d_ASN1_OCTET_STRING                             output.o
i2d_ASN1_PRINTABLE                                output.o
i2d_ASN1_PRINTABLESTRING                          output.o
i2d_ASN1_SEQUENCE_ANY                             output.o
i2d_ASN1_SET                                      output.o
i2d_ASN1_SET_ANY                                  output.o
i2d_ASN1_T61STRING                                output.o
i2d_ASN1_TIME                                     output.o
i2d_ASN1_TYPE                                     output.o
i2d_ASN1_UNIVERSALSTRING                          output.o
i2d_ASN1_UTCTIME                                  output.o
i2d_ASN1_UTF8STRING                               output.o
i2d_ASN1_VISIBLESTRING                            output.o
i2d_ASN1_bio_stream                               output.o
i2d_ASN1_bytes                                    output.o
i2d_AUTHORITY_INFO_ACCESS                         output.o
i2d_AUTHORITY_KEYID                               output.o
i2d_BASIC_CONSTRAINTS                             output.o
i2d_CERTIFICATEPOLICIES                           output.o
i2d_CMS_ContentInfo                               output.o
i2d_CMS_bio                                       output.o
i2d_CMS_bio_stream                                output.o
i2d_CRL_DIST_POINTS                               output.o
i2d_DHparams                                      output.o
i2d_DIRECTORYSTRING                               output.o
i2d_DISPLAYTEXT                                   output.o
i2d_DIST_POINT                                    output.o
i2d_DIST_POINT_NAME                               output.o
i2d_DSAPrivateKey                                 output.o
i2d_DSAPrivateKey_bio                             output.o
i2d_DSAPublicKey                                  output.o
i2d_DSA_PUBKEY                                    output.o
i2d_DSA_PUBKEY_bio                                output.o
i2d_DSA_SIG                                       output.o
i2d_DSAparams                                     output.o
i2d_ECDSA_SIG                                     output.o
i2d_ECPKPARAMETERS                                output.o
i2d_ECPKParameters                                output.o
i2d_ECParameters                                  output.o
i2d_ECPrivateKey                                  output.o
i2d_ECPrivateKey_bio                              output.o
i2d_EC_PRIVATEKEY                                 output.o
i2d_EC_PUBKEY                                     output.o
i2d_EC_PUBKEY_bio                                 output.o
i2d_EDIPARTYNAME                                  output.o
i2d_EXTENDED_KEY_USAGE                            output.o
i2d_GENERAL_NAME                                  output.o
i2d_GENERAL_NAMES                                 output.o
i2d_ISSUING_DIST_POINT                            output.o
i2d_NETSCAPE_CERT_SEQUENCE                        output.o
i2d_NETSCAPE_SPKAC                                output.o
i2d_NETSCAPE_SPKI                                 output.o
i2d_NOTICEREF                                     output.o
i2d_OCSP_BASICRESP                                output.o
i2d_OCSP_CERTID                                   output.o
i2d_OCSP_CERTSTATUS                               output.o
i2d_OCSP_CRLID                                    output.o
i2d_OCSP_ONEREQ                                   output.o
i2d_OCSP_REQINFO                                  output.o
i2d_OCSP_REQUEST                                  output.o
i2d_OCSP_RESPBYTES                                output.o
i2d_OCSP_RESPDATA                                 output.o
i2d_OCSP_RESPID                                   output.o
i2d_OCSP_RESPONSE                                 output.o
i2d_OCSP_REVOKEDINFO                              output.o
i2d_OCSP_SERVICELOC                               output.o
i2d_OCSP_SIGNATURE                                output.o
i2d_OCSP_SINGLERESP                               output.o
i2d_OTHERNAME                                     output.o
i2d_PBE2PARAM                                     output.o
i2d_PBEPARAM                                      output.o
i2d_PBKDF2PARAM                                   output.o
i2d_PKCS12                                        output.o
i2d_PKCS12_BAGS                                   output.o
i2d_PKCS12_MAC_DATA                               output.o
i2d_PKCS12_SAFEBAG                                output.o
i2d_PKCS12_bio                                    output.o
i2d_PKCS7                                         output.o
i2d_PKCS7_DIGEST                                  output.o
i2d_PKCS7_ENCRYPT                                 output.o
i2d_PKCS7_ENC_CONTENT                             output.o
i2d_PKCS7_ENVELOPE                                output.o
i2d_PKCS7_ISSUER_AND_SERIAL                       output.o
i2d_PKCS7_NDEF                                    output.o
i2d_PKCS7_RECIP_INFO                              output.o
i2d_PKCS7_SIGNED                                  output.o
i2d_PKCS7_SIGNER_INFO                             output.o
i2d_PKCS7_SIGN_ENVELOPE                           output.o
i2d_PKCS7_bio                                     output.o
i2d_PKCS8PrivateKeyInfo_bio                       output.o
i2d_PKCS8PrivateKey_bio                           output.o
i2d_PKCS8PrivateKey_nid_bio                       output.o
i2d_PKCS8_PRIV_KEY_INFO                           output.o
i2d_PKCS8_PRIV_KEY_INFO_bio                       output.o
i2d_PKCS8_bio                                     output.o
i2d_PKEY_USAGE_PERIOD                             output.o
i2d_POLICYINFO                                    output.o
i2d_POLICYQUALINFO                                output.o
i2d_PROXY_CERT_INFO_EXTENSION                     output.o
i2d_PROXY_POLICY                                  output.o
i2d_PUBKEY                                        output.o
i2d_PUBKEY_bio                                    output.o
i2d_PrivateKey                                    output.o
i2d_PrivateKey_bio                                output.o
i2d_RSAPrivateKey                                 output.o
i2d_RSAPrivateKey_bio                             output.o
i2d_RSAPublicKey                                  output.o
i2d_RSAPublicKey_bio                              output.o
i2d_RSA_PUBKEY                                    output.o
i2d_RSA_PUBKEY_bio                                output.o
i2d_SXNET                                         output.o
i2d_SXNETID                                       output.o
i2d_USERNOTICE                                    output.o
i2d_X509                                          output.o
i2d_X509_ALGOR                                    output.o
i2d_X509_ALGORS                                   output.o
i2d_X509_ATTRIBUTE                                output.o
i2d_X509_AUX                                      output.o
i2d_X509_CERT_AUX                                 output.o
i2d_X509_CERT_PAIR                                output.o
i2d_X509_CINF                                     output.o
i2d_X509_CRL                                      output.o
i2d_X509_CRL_INFO                                 output.o
i2d_X509_CRL_bio                                  output.o
i2d_X509_EXTENSION                                output.o
i2d_X509_EXTENSIONS                               output.o
i2d_X509_NAME                                     output.o
i2d_X509_NAME_ENTRY                               output.o
i2d_X509_PUBKEY                                   output.o
i2d_X509_REQ                                      output.o
i2d_X509_REQ_INFO                                 output.o
i2d_X509_REQ_bio                                  output.o
i2d_X509_REVOKED                                  output.o
i2d_X509_SIG                                      output.o
i2d_X509_VAL                                      output.o
i2d_X509_bio                                      output.o
i2o_ECPublicKey                                   output.o
i2s_ASN1_ENUMERATED                               output.o
i2s_ASN1_ENUMERATED_TABLE                         output.o
i2s_ASN1_INTEGER                                  output.o
i2s_ASN1_OCTET_STRING                             output.o
i2t_ASN1_OBJECT                                   output.o
i2v_ASN1_BIT_STRING                               output.o
i2v_GENERAL_NAME                                  output.o
i2v_GENERAL_NAMES                                 output.o
idea_cbc_encrypt                                  output.o
idea_cfb64_encrypt                                output.o
idea_ecb_encrypt                                  output.o
idea_encrypt                                      output.o
idea_ofb64_encrypt                                output.o
idea_options                                      output.o
idea_set_decrypt_key                              output.o
idea_set_encrypt_key                              output.o
idman_reinit2                                     output.o
idman_reinit_session                              output.o
idman_user_init                                   output.o
ieee1394_init                                     output.o
init_hframelist                                   output.o
initfunc_init                                     output.o
int1a_TCG_CompactHashLogExtendEvent               output.o
int1a_TCG_HashAll                                 output.o
int1a_TCG_HashLogEvent                            output.o
int1a_TCG_HashLogExtendEvent                      output.o
int1a_TCG_PassThroughToTPM                        output.o
int1a_TCG_StatusCheck                             output.o
int1a_TCG_TSS                                     output.o
int_callfunc                                      output.o
int_exceptionHandler                              output.o
int_fatal                                         output.o
int_handler                                       output.o
int_init_ap                                       output.o
int_rsa_verify                                    output.o
iodom_init                                        output.o
iommu_detected                                    output.o
iommu_setup                                       output.o
ipchecksum                                        output.o
keyboard_flush                                    output.o
keyboard_reset                                    output.o
level_add_node                                    output.o
level_find_node                                   output.o
lh_delete                                         output.o
lh_doall                                          output.o
lh_doall_arg                                      output.o
lh_free                                           output.o
lh_insert                                         output.o
lh_new                                            output.o
lh_num_items                                      output.o
lh_retrieve                                       output.o
lh_strhash                                        output.o
lh_version                                        output.o
libInitFlag                                       output.o
load_bootsector                                   output.o
load_minios                                       output.o
load_new_vcpu                                     output.o
localapic_change_base_msr                         output.o
localapic_delayed_ap_start                        output.o
localapic_mmio_register                           output.o
localapic_wait_for_sipi                           output.o
log                                               output.o
mapmem                                            output.o
mapmem_gphys                                      output.o
mapmem_hphys                                      output.o
matched_drhd_u                                    output.o
md4_block_data_order                              output.o
md5_block_data_order                              output.o
memcmp                                            output.o
memcpy                                            output.o
memorysize                                        output.o
mempool_allocmem                                  output.o
mempool_free                                      output.o
mempool_freemem                                   output.o
mempool_new                                       output.o
memset                                            output.o
message_exitcode                                  output.o
message_exitreason                                output.o
mm_flush_wb_cache                                 output.o
mm_force_unlock                                   output.o
mm_process_alloc                                  output.o
mm_process_free                                   output.o
mm_process_map_alloc                              output.o
mm_process_map_shared                             output.o
mm_process_map_shared_physpage                    output.o
mm_process_map_stack                              output.o
mm_process_switch                                 output.o
mm_process_unmap                                  output.o
mm_process_unmap_stack                            output.o
mm_process_unmapall                               output.o
mmio_access_memory                                output.o
mmio_access_page                                  output.o
mmio_lock                                         output.o
mmio_register                                     output.o
mmio_register_unlocked                            output.o
mmio_unlock                                       output.o
mmio_unregister                                   output.o
move_vmm_area32                                   output.o
move_vmm_area64                                   output.o
mpudiv_128_32                                     output.o
mpumul_64_64                                      output.o
msg_findname                                      output.o
msg_register                                      output.o
msg_unregister                                    output.o
msg_unregister2                                   output.o
msg_unregisterall                                 output.o
msg_usb_bulk_read                                 output.o
msg_usb_bulk_write                                output.o
msg_usb_claim_interface                           output.o
msg_usb_close                                     output.o
msg_usb_control_msg                               output.o
msg_usb_find_busses                               output.o
msg_usb_find_devices                              output.o
msg_usb_get_busses                                output.o
msg_usb_get_string_simple                         output.o
msg_usb_init                                      output.o
msg_usb_open                                      output.o
msg_usb_release_interface                         output.o
msg_usb_reset                                     output.o
msg_vpn_FreeTimer                                 output.o
msg_vpn_GetCurrentCpuId                           output.o
msg_vpn_GetPhysicalNicInfo                        output.o
msg_vpn_GetTickCount                              output.o
msg_vpn_GetVirtualNicInfo                         output.o
msg_vpn_NewTimer                                  output.o
msg_vpn_SendPhysicalNic                           output.o
msg_vpn_SendVirtualNic                            output.o
msg_vpn_SetPhysicalNicRecvCallback                output.o
msg_vpn_SetTimer                                  output.o
msg_vpn_SetVirtualNicRecvCallback                 output.o
msg_vpn_ic_rsa_sign                               output.o
msgclose                                          output.o
msgopen                                           output.o
msgpremapbuf                                      output.o
msgregister                                       output.o
msgsendbuf                                        output.o
msgsenddesc                                       output.o
msgsendint                                        output.o
msgsetfunc                                        output.o
msgunregister                                     output.o
mszReaders                                        output.o
name_cmp                                          output.o
newprocess                                        output.o
num_dom                                           output.o
num_of_available_pages                            output.o
num_of_processors                                 output.o
o2i_ECPublicKey                                   output.o
obj_cleanup_defer                                 output.o
packet_handle_command                             output.o
packet_handle_config                              output.o
packet_handle_invalid                             output.o
packet_handle_nondata                             output.o
packet_handle_rw                                  output.o
packet_handle_through                             output.o
panic                                             output.o
panic_oom                                         output.o
panic_test                                        output.o
panic_wakeup_all                                  output.o
parse_dmar_bios_report                            output.o
pci_append_device                                 output.o
pci_conceal_config_data_handler                   output.o
pci_conceal_new_device                            output.o
pci_config_addr_handler                           output.o
pci_config_data_handler                           output.o
pci_config_mmio_data_head                         output.o
pci_config_mmio_handler                           output.o
pci_device_list_head                              output.o
pci_driver_list_head                              output.o
pci_handle_default_config_read                    output.o
pci_handle_default_config_write                   output.o
pci_possible_new_device                           output.o
pci_print_device                                  output.o
pci_read_config_data16                            output.o
pci_read_config_data32                            output.o
pci_read_config_data8                             output.o
pci_read_config_data_port                         output.o
pci_read_config_mmio                              output.o
pci_readwrite_config_mmio                         output.o
pci_register_driver                               output.o
pci_restore_config_addr                           output.o
pci_save_config_addr                              output.o
pci_write_config_data16                           output.o
pci_write_config_data32                           output.o
pci_write_config_data8                            output.o
pci_write_config_data_port                        output.o
pci_write_config_mmio                             output.o
pcpu_default                                      output.o
pcpu_init                                         output.o
pcpu_list_add                                     output.o
pcpu_list_foreach                                 output.o
pem_check_suffix                                  output.o
phys_in_vmm                                       output.o
phys_to_virt                                      output.o
pmap_autoalloc                                    output.o
pmap_clear                                        output.o
pmap_close                                        output.o
pmap_dump                                         output.o
pmap_getreadlevel                                 output.o
pmap_open_guest                                   output.o
pmap_open_vmm                                     output.o
pmap_pointer                                      output.o
pmap_read                                         output.o
pmap_seek                                         output.o
pmap_setlevel                                     output.o
pmap_write                                        output.o
policy_cache_find_data                            output.o
policy_cache_free                                 output.o
policy_cache_set                                  output.o
policy_cache_set_mapping                          output.o
policy_data_free                                  output.o
policy_data_new                                   output.o
policy_node_cmp_new                               output.o
policy_node_free                                  output.o
policy_node_match                                 output.o
prepare_for_sleep                                 output.o
printexitcode                                     output.o
printexitreason                                   output.o
printf                                            output.o
pro100_alloc_page                                 output.o
pro100_alloc_recv_buffer                          output.o
pro100_beep                                       output.o
pro100_config_read                                output.o
pro100_config_write                               output.o
pro100_exec_cu_op                                 output.o
pro100_flush                                      output.o
pro100_free_page                                  output.o
pro100_generate_int                               output.o
pro100_get_ctx                                    output.o
pro100_get_cu_command_string                      output.o
pro100_get_int_bit_string                         output.o
pro100_get_op_size                                output.o
pro100_get_ru_command_string                      output.o
pro100_get_stat_ack_string                        output.o
pro100_hook_read                                  output.o
pro100_hook_write                                 output.o
pro100_init                                       output.o
pro100_init_cu_base_addr                          output.o
pro100_init_recv_buffer                           output.o
pro100_init_ru_base_addr                          output.o
pro100_init_vpn_client                            output.o
pro100_io_handler                                 output.o
pro100_mem_read                                   output.o
pro100_mem_write                                  output.o
pro100_mm_handler                                 output.o
pro100_new                                        output.o
pro100_poll_ru                                    output.o
pro100_proc_guest_op                              output.o
pro100_read                                       output.o
pro100_read_send_packet                           output.o
pro100_send_packet_to_line                        output.o
pro100_sleep                                      output.o
pro100_wait_cu_ru_accepable                       output.o
pro100_write                                      output.o
pro100_write_recv_packet                          output.o
process                                           output.o
process_kill                                      output.o
process_syscall                                   output.o
processuser_no_sysenter                           output.o
processuser_syscall                               output.o
processuser_sysenter                              output.o
prohibit_iccard_init                              output.o
ps2_locked                                        output.o
putchar                                           output.o
putchar_set_func                                  output.o
rand_ssleay_meth                                  output.o
read_gphys_b                                      output.o
read_gphys_l                                      output.o
read_gphys_q                                      output.o
read_gphys_w                                      output.o
read_hphys_b                                      output.o
read_hphys_l                                      output.o
read_hphys_q                                      output.o
read_hphys_w                                      output.o
read_linearaddr_b                                 output.o
read_linearaddr_l                                 output.o
read_linearaddr_q                                 output.o
read_linearaddr_tss                               output.o
read_linearaddr_w                                 output.o
read_str_va                                       output.o
readerState                                       output.o
readerTracker                                     output.o
realloc                                           output.o
reboot_test                                       output.o
register_status_callback                          output.o
resume_vm                                         output.o
ret_to_user32                                     output.o
ret_to_user64                                     output.o
ripemd160_block_data_order                        output.o
rsa_asn1_meths                                    output.o
rsa_pkey_meth                                     output.o
rt                                                output.o
s2i_ASN1_INTEGER                                  output.o
s2i_ASN1_OCTET_STRING                             output.o
sReaderContext                                    output.o
savemsr_index                                     output.o
savemsr_load                                      output.o
savemsr_save                                      output.o
scan_gframelist                                   output.o
schedule                                          output.o
security_storage_check_lba                        output.o
segment_init_ap                                   output.o
segment_wakeup                                    output.o
serial_getDebugChar                               output.o
serial_init_iohook                                output.o
serial_putDebugChar                               output.o
serial_putchar                                    output.o
sessionTable                                      output.o
set_int_handler                                   output.o
set_iofunc                                        output.o
setkbdled                                         output.o
shadow_and_activate_urb                           output.o
sig_app                                           output.o
sigx_app                                          output.o
sk_delete                                         output.o
sk_delete_ptr                                     output.o
sk_dup                                            output.o
sk_find                                           output.o
sk_find_ex                                        output.o
sk_free                                           output.o
sk_insert                                         output.o
sk_is_sorted                                      output.o
sk_new                                            output.o
sk_new_null                                       output.o
sk_num                                            output.o
sk_pop                                            output.o
sk_pop_free                                       output.o
sk_push                                           output.o
sk_set                                            output.o
sk_set_cmp_func                                   output.o
sk_shift                                          output.o
sk_sort                                           output.o
sk_unshift                                        output.o
sk_value                                          output.o
sk_zero                                           output.o
sleep_set_timer_counter                           output.o
slotFlag                                          output.o
slotTable                                         output.o
snprintf                                          output.o
start_all_processors                              output.o
storage_free                                      output.o
storage_get_num_hc                                output.o
storage_handle_sectors                            output.o
storage_hc_close                                  output.o
storage_hc_dev_atacommand                         output.o
storage_hc_dev_close                              output.o
storage_hc_dev_open                               output.o
storage_hc_hook_register                          output.o
storage_hc_hook_unregister                        output.o
storage_hc_open                                   output.o
storage_hc_register                               output.o
storage_hc_scandev                                output.o
storage_hc_unregister                             output.o
storage_init                                      output.o
storage_io_aget_size                              output.o
storage_io_aread                                  output.o
storage_io_awrite                                 output.o
storage_io_deinit                                 output.o
storage_io_get_num_devices                        output.o
storage_io_init                                   output.o
storage_new                                       output.o
storage_premap_buf                                output.o
storage_premap_handle_sectors                     output.o
strcmp                                            output.o
string_to_hex                                     output.o
strlen                                            output.o
svm_available                                     output.o
svm_enable_resume                                 output.o
svm_extern_iopass                                 output.o
svm_init                                          output.o
svm_init_signal                                   output.o
svm_ioio                                          output.o
svm_msr_update_lma                                output.o
svm_np_clear_all                                  output.o
svm_np_extern_mapsearch                           output.o
svm_np_init                                       output.o
svm_np_map_1mb                                    output.o
svm_np_pagefault                                  output.o
svm_np_tlbflush                                   output.o
svm_np_updatecr3                                  output.o
svm_paging_apply_fixed_cr0                        output.o
svm_paging_apply_fixed_cr4                        output.o
svm_paging_clear_all                              output.o
svm_paging_extern_flush_tlb_entry                 output.o
svm_paging_flush_guest_tlb                        output.o
svm_paging_get_gpat                               output.o
svm_paging_init                                   output.o
svm_paging_invalidate                             output.o
svm_paging_map_1mb                                output.o
svm_paging_npf                                    output.o
svm_paging_pagefault                              output.o
svm_paging_pg_change                              output.o
svm_paging_set_gpat                               output.o
svm_paging_spt_setcr3                             output.o
svm_paging_start                                  output.o
svm_paging_tlbflush                               output.o
svm_paging_updatecr3                              output.o
svm_panic_dump                                    output.o
svm_read_control_reg                              output.o
svm_read_flags                                    output.o
svm_read_gdtr                                     output.o
svm_read_general_reg                              output.o
svm_read_idtr                                     output.o
svm_read_ip                                       output.o
svm_read_msr                                      output.o
svm_read_sreg_acr                                 output.o
svm_read_sreg_base                                output.o
svm_read_sreg_limit                               output.o
svm_read_sreg_sel                                 output.o
svm_reset                                         output.o
svm_resume                                        output.o
svm_start_vm                                      output.o
svm_vmexit                                        output.o
svm_vminit                                        output.o
svm_write_control_reg                             output.o
svm_write_flags                                   output.o
svm_write_gdtr                                    output.o
svm_write_general_reg                             output.o
svm_write_idtr                                    output.o
svm_write_ip                                      output.o
svm_write_msr                                     output.o
svm_write_realmode_seg                            output.o
svm_writing_sreg                                  output.o
sx_handler                                        output.o
sym_to_phys                                       output.o
sync_all_processors                               output.o
sys_exitprocess                                   output.o
sys_msgclose                                      output.o
sys_msgopen                                       output.o
sys_msgregister                                   output.o
sys_msgret                                        output.o
sys_msgsendbuf                                    output.o
sys_msgsenddesc                                   output.o
sys_msgsendint                                    output.o
sys_msgsetfunc                                    output.o
sys_msgunregister                                 output.o
sys_newprocess                                    output.o
syscall_entry_lret                                output.o
syscall_entry_sysexit                             output.o
syscall_entry_sysret64                            output.o
tcg_measure                                       output.o
thread_exit                                       output.o
thread_gettid                                     output.o
thread_new                                        output.o
thread_start0                                     output.o
thread_start1                                     output.o
thread_switch                                     output.o
thread_wakeup                                     output.o
thread_will_stop                                  output.o
timer_free                                        output.o
timer_new                                         output.o
timer_set                                         output.o
tree_find_sk                                      output.o
tty_init_iohook                                   output.o
tty_putchar                                       output.o
tty_udp_register                                  output.o
ttylog_stop                                       output.o
uefi_acpi_20_table                                output.o
uefi_acpi_table                                   output.o
uefi_allocate_pages                               output.o
uefi_booted                                       output.o
uefi_conin                                        output.o
uefi_conin_read_key_stroke                        output.o
uefi_conout                                       output.o
uefi_conout_output_string                         output.o
uefi_entry_call                                   output.o
uefi_entry_pcpy                                   output.o
uefi_entry_ret_addr                               output.o
uefi_entry_rsp                                    output.o
uefi_entry_start                                  output.o
uefi_entry_virttophys                             output.o
uefi_free_pages                                   output.o
uefi_get_memory_map                               output.o
uefi_init                                         output.o
uefi_init_get_vmmsize                             output.o
uefi_memory_map_data                              output.o
uefi_memory_map_descsize                          output.o
uefi_memory_map_size                              output.o
uefi_wait_for_event                               output.o
uhci_activate_urb                                 output.o
uhci_check_advance                                output.o
uhci_check_urb_advance                            output.o
uhci_create_urb                                   output.o
uhci_current_frame_number                         output.o
uhci_deactivate_urb                               output.o
uhci_destroy_unlinked_urbs                        output.o
uhci_destroy_urb                                  output.o
uhci_dump_all                                     output.o
uhci_error_status_string                          output.o
uhci_framelist_monitor                            output.o
uhci_init                                         output.o
uhci_monitor_boost_hc                             output.o
uhci_reactivate_urb                               output.o
uhci_shadow_buffer                                output.o
uhci_submit_bulk                                  output.o
uhci_submit_control                               output.o
uhci_submit_interrupt                             output.o
unmapmem                                          output.o
update_mtrr_and_pat                               output.o
usb_bulk_read                                     output.o
usb_bulk_write                                    output.o
usb_busses_head                                   output.o
usb_claim_interface                               output.o
usb_clear_halt                                    output.o
usb_close                                         output.o
usb_control_msg                                   output.o
usb_find_busses                                   output.o
usb_find_devices                                  output.o
usb_get_bus                                       output.o
usb_get_busses                                    output.o
usb_get_descriptor                                output.o
usb_get_descriptor_by_endpoint                    output.o
usb_get_descriptor_early                          output.o
usb_get_string                                    output.o
usb_get_string_simple                             output.o
usb_hc_list_head                                  output.o
usb_hook_process                                  output.o
usb_hook_register                                 output.o
usb_hook_unregister                               output.o
usb_init                                          output.o
usb_init_device_monitor                           output.o
usb_interrupt_read                                output.o
usb_interrupt_write                               output.o
usb_log_level                                     output.o
usb_new_dev_handle                                output.o
usb_open                                          output.o
usb_register_host                                 output.o
usb_release_interface                             output.o
usb_reset                                         output.o
usb_resetep                                       output.o
usb_sc_lock                                       output.o
usb_sc_unlock                                     output.o
usb_set_altinterface                              output.o
usb_set_configuration                             output.o
usb_set_debug                                     output.o
usb_unregister_devices                            output.o
usbccid_init_handle                               output.o
usbhid_init_handle                                output.o
usbhub_init_handle                                output.o
usbmsc_init_handle                                output.o
use_pae                                           output.o
usleep                                            output.o
v2i_ASN1_BIT_STRING                               output.o
v2i_GENERAL_NAME                                  output.o
v2i_GENERAL_NAMES                                 output.o
v2i_GENERAL_NAME_ex                               output.o
v3_akey_id                                        output.o
v3_alt                                            output.o
v3_bcons                                          output.o
v3_cpols                                          output.o
v3_crl_hold                                       output.o
v3_crl_invdate                                    output.o
v3_crl_num                                        output.o
v3_crl_reason                                     output.o
v3_crld                                           output.o
v3_delta_crl                                      output.o
v3_ext_ku                                         output.o
v3_freshest_crl                                   output.o
v3_idp                                            output.o
v3_info                                           output.o
v3_inhibit_anyp                                   output.o
v3_key_usage                                      output.o
v3_name_constraints                               output.o
v3_ns_ia5_list                                    output.o
v3_nscert                                         output.o
v3_ocsp_accresp                                   output.o
v3_ocsp_acutoff                                   output.o
v3_ocsp_crlid                                     output.o
v3_ocsp_nocheck                                   output.o
v3_ocsp_nonce                                     output.o
v3_ocsp_serviceloc                                output.o
v3_pci                                            output.o
v3_pkey_usage_period                              output.o
v3_policy_constraints                             output.o
v3_policy_mappings                                output.o
v3_sinfo                                          output.o
v3_skey_id                                        output.o
v3_sxnet                                          output.o
vcpu_list_foreach                                 output.o
vga_fill_rect                                     output.o
vga_get_screen_size                               output.o
vga_is_ready                                      output.o
vga_register                                      output.o
vga_transfer_image                                output.o
virt_memcpy                                       output.o
vmctl_svm_init                                    output.o
vmctl_vt_init                                     output.o
vmi_translate_ksym2v                              output.o
vmm_base_cr3                                      output.o
vmm_main                                          output.o
vmm_start_inf                                     output.o
vmm_start_phys                                    output.o
vmm_term_inf                                      output.o
vmmcall                                           output.o
vmmcall_boot_continue                             output.o
vmmcall_boot_enable                               output.o
vmmcall_init                                      output.o
vmmcall_register                                  output.o
vmmsize                                           output.o
vpn_FreeTimer                                     output.o
vpn_GetCurrentCpuId                               output.o
vpn_GetPhysicalNicInfo                            output.o
vpn_GetTickCount                                  output.o
vpn_GetVirtualNicInfo                             output.o
vpn_NewTimer                                      output.o
vpn_SendPhysicalNic                               output.o
vpn_SendVirtualNic                                output.o
vpn_SetPhysicalNicRecvCallback                    output.o
vpn_SetTimer                                      output.o
vpn_SetVirtualNicRecvCallback                     output.o
vpn_ic_rsa_sign                                   output.o
vpn_new_nic                                       output.o
vpn_premap_PhysicalNicRecv                        output.o
vpn_premap_VirtualNicRecv                         output.o
vpn_premap_recvbuf                                output.o
vpn_start                                         output.o
vpn_user_init                                     output.o
vprintf                                           output.o
vramwrite_clearscreen                             output.o
vramwrite_exit_global                             output.o
vramwrite_get_cursor_pos                          output.o
vramwrite_init_global                             output.o
vramwrite_mark1                                   output.o
vramwrite_mark2                                   output.o
vramwrite_mark3                                   output.o
vramwrite_putchar                                 output.o
vramwrite_restore_cursor                          output.o
vramwrite_save_and_move_cursor                    output.o
vsnprintf                                         output.o
vt__vmx_init                                      output.o
vt__vmxon                                         output.o
vt_add_guest_msr                                  output.o
vt_available                                      output.o
vt_enable_resume                                  output.o
vt_ept_clear_all                                  output.o
vt_ept_extern_mapsearch                           output.o
vt_ept_init                                       output.o
vt_ept_map_1mb                                    output.o
vt_ept_tlbflush                                   output.o
vt_ept_updatecr3                                  output.o
vt_ept_violation                                  output.o
vt_extern_iopass                                  output.o
vt_generate_external_int                          output.o
vt_generate_pagefault                             output.o
vt_get_current_regs_in_vmcs                       output.o
vt_get_vmcs_regs_in_vmcs                          output.o
vt_init                                           output.o
vt_init_signal                                    output.o
vt_io                                             output.o
vt_iopass                                         output.o
vt_iopass_init                                    output.o
vt_msr_init                                       output.o
vt_msr_update_lma                                 output.o
vt_paging_apply_fixed_cr0                         output.o
vt_paging_apply_fixed_cr4                         output.o
vt_paging_clear_all                               output.o
vt_paging_extern_flush_tlb_entry                  output.o
vt_paging_flush_guest_tlb                         output.o
vt_paging_get_gpat                                output.o
vt_paging_init                                    output.o
vt_paging_invalidate                              output.o
vt_paging_map_1mb                                 output.o
vt_paging_npf                                     output.o
vt_paging_pagefault                               output.o
vt_paging_pg_change                               output.o
vt_paging_set_gpat                                output.o
vt_paging_spt_setcr3                              output.o
vt_paging_start                                   output.o
vt_paging_tlbflush                                output.o
vt_paging_updatecr3                               output.o
vt_panic_dump                                     output.o
vt_read_control_reg                               output.o
vt_read_flags                                     output.o
vt_read_gdtr                                      output.o
vt_read_general_reg                               output.o
vt_read_guest_msr                                 output.o
vt_read_idtr                                      output.o
vt_read_ip                                        output.o
vt_read_msr                                       output.o
vt_read_sreg_acr                                  output.o
vt_read_sreg_base                                 output.o
vt_read_sreg_limit                                output.o
vt_read_sreg_sel                                  output.o
vt_reset                                          output.o
vt_resume                                         output.o
vt_start_vm                                       output.o
vt_update_exception_bmp                           output.o
vt_update_exint                                   output.o
vt_vmexit                                         output.o
vt_vminit                                         output.o
vt_vmptrld                                        output.o
vt_write_control_reg                              output.o
vt_write_flags                                    output.o
vt_write_gdtr                                     output.o
vt_write_general_reg                              output.o
vt_write_guest_msr                                output.o
vt_write_idtr                                     output.o
vt_write_ip                                       output.o
vt_write_msr                                      output.o
vt_write_realmode_seg                             output.o
vt_writing_sreg                                   output.o
waitcycles                                        output.o
wakeup_cont                                       output.o
wakeup_entry_addr                                 output.o
wakeup_entry_cr0                                  output.o
wakeup_entry_cr3                                  output.o
wakeup_entry_cr4                                  output.o
wakeup_entry_end                                  output.o
wakeup_entry_gdtr                                 output.o
wakeup_entry_start                                output.o
wakeup_init                                       output.o
wakeup_main                                       output.o
whirlpool_block                                   output.o
write_gphys_b                                     output.o
write_gphys_l                                     output.o
write_gphys_q                                     output.o
write_gphys_w                                     output.o
write_hphys_b                                     output.o
write_hphys_l                                     output.o
write_hphys_q                                     output.o
write_hphys_w                                     output.o
write_linearaddr_b                                output.o
write_linearaddr_l                                output.o
write_linearaddr_ok_b                             output.o
write_linearaddr_ok_l                             output.o
write_linearaddr_ok_w                             output.o
write_linearaddr_q                                output.o
write_linearaddr_tss                              output.o
write_linearaddr_w                                output.o
x509_name_ff                                      output.o
