
Allocating common symbols
Common symbol       size              file

clflush_size        0x4               output.o
sReaderContext      0x60              output.o
uefi_memory_map_data
                    0x4000            output.o
uefi_booted         0x4               output.o
sigx_app            0x8               output.o
log                 0x10000           output.o
num_dom             0x4               output.o
mszReaders          0x400             output.o
prohibit_iccard_init
                    0x4               output.o
pci_config_mmio_data_head
                    0x8               output.o
curthread           0x8               output.o
sig_app             0x8               output.o
readerState         0x64              output.o
dom_io              0x800             output.o
acpi_dsdt_system_state
                    0x1e              output.o
ehci_host           0x8               output.o
num_of_processors   0x4               output.o
e801_fake_bx        0x2               output.o
iommu_detected      0x1               output.o
process             0x6500            output.o
dwReaders           0x8               output.o
readerTracker       0x140             output.o
handler_descriptor_lock
                    0x1               output.o
e801_fake_ax        0x2               output.o

Discarded input sections

 .gomi          0x0000000000000000       0x10 output.o

Memory Configuration

Name             Origin             Length             Attributes
*default*        0x0000000000000000 0xffffffffffffffff

Linker script and memory map

                0x0000000040100000                virt = 0x40100000
                0x0000000000100000                phys = 0x100000
                0x0000000040100000                . = virt
                0x0000000040100000                head = .
                0x00000000401000b0                . = (virt + SIZEOF_HEADERS)

.entry          0x0000000040101000     0x65f0 load address 0x0000000000101000
                0x0000000040101000                code = .
 *(.entry)
 .entry         0x0000000040101000     0x6000 output.o
                0x000000004010100c                entry
                0x0000000040101338                uefi_entry_virttophys
                0x0000000040101343                uefi_entry_call
                0x000000004010137f                uefi_entry_pcpy
                0x00000000401013be                uefi_entry_start
                0x00000000401014d5                uefi_entry_rsp
                0x00000000401014dd                uefi_entry_ret_addr
                0x0000000040101580                cpuinit_start
                0x00000000401017b0                vmm_base_cr3
                0x00000000401017c8                apinit_procs
                0x00000000401017d0                apinit_lock
                0x00000000401017d8                cpuinit_end
                0x0000000040103000                entry_pdp
                0x0000000040104000                entry_pd0
                0x0000000040105000                entry_pd
 *(.entry.text)
 .entry.text    0x0000000040107000      0x51c output.o
                0x0000000040107000                uefi_init_get_vmmsize
                0x00000000401070a2                uefi_init
 *(.entry.data)
 *fill*         0x000000004010751c        0x4 
 .entry.data    0x0000000040107520       0xd0 output.o
                0x0000000040107578                uefi_acpi_table
                0x0000000040107580                uefi_acpi_20_table
                0x0000000040107588                uefi_wait_for_event
                0x0000000040107590                uefi_free_pages
                0x0000000040107598                uefi_get_memory_map
                0x00000000401075a0                uefi_allocate_pages
                0x00000000401075a8                uefi_conout_output_string
                0x00000000401075b0                uefi_conin_read_key_stroke
                0x00000000401075b8                uefi_conout
                0x00000000401075c0                uefi_conin

.text           0x0000000040108000   0x109209 load address 0x0000000000108000
                0x0000000040108000                text = .
 *(.text)
 .text          0x0000000040108000   0x109209 output.o
                0x0000000040108b27                acpi_smi_hook
                0x0000000040108b78                acpi_iohook
                0x0000000040108bcd                acpi_reset
                0x0000000040108cc4                acpi_poweroff
                0x0000000040108cf9                get_acpi_time_raw
                0x0000000040108d17                acpi_read_mcfg
                0x000000004010eb44                acpi_dsdt_parse
                0x000000004010ec01                acpi_ssdt_parse
                0x000000004010ecca                apinitproc0
                0x000000004010ecf6                apic_available
                0x000000004010ed1d                ap_start_addr
                0x000000004010f073                panic_wakeup_all
                0x000000004010f103                disable_apic
                0x000000004010f17d                sync_all_processors
                0x000000004010f209                start_all_processors
                0x000000004010f24b                assertion_failed
                0x000000004010f288                beep_set_freq
                0x000000004010f2b4                beep_on
                0x000000004010f2bf                beep_off
                0x000000004010f96e                update_mtrr_and_pat
                0x000000004010fd63                cache_get_gpat
                0x000000004010fdb5                cache_set_gpat
                0x000000004010fdff                cache_get_attr
                0x000000004010feb1                cache_get_gmtrr_type
                0x000000004010fecc                cache_get_gmtrr_attr
                0x000000004010fef0                cache_get_gmtrrcap
                0x000000004010ff1a                cache_get_gmtrr
                0x000000004011002a                cache_set_gmtrr
                0x0000000040110087                cache_get_gmsr_amd
                0x0000000040110115                cache_set_gmsr_amd
                0x0000000040110575                callrealmode_endofcodeaddr
                0x0000000040110581                callrealmode_usevcpu
                0x0000000040110589                callrealmode_printmsg
                0x00000000401105a5                callrealmode_getsysmemmap
                0x00000000401105f1                callrealmode_getshiftflags
                0x000000004011060e                callrealmode_setvideomode
                0x000000004011062b                callrealmode_reboot
                0x0000000040110643                callrealmode_tcgbios
                0x00000000401106e0                callrealmode_disk_readmbr
                0x0000000040110721                callrealmode_disk_readlba
                0x000000004011076c                callrealmode_bootcd_getstatus
                0x00000000401107c1                callrealmode_setcursorpos
                0x00000000401107e7                callrealmode_startkernel32
                0x0000000040110807                callrealmode_getfontinfo
                0x0000000040110874                call_uefi_get_memory_map
                0x00000000401108ed                call_uefi_allocate_pages
                0x000000004011094c                call_uefi_free_pages
                0x0000000040110971                call_uefi_getkey
                0x00000000401109e6                call_uefi_putchar
                0x0000000040110a31                fill_pagetable
                0x0000000040110b3a                copy_uefi_bootcode
                0x0000000040110c9c                get_cpu_id
                0x0000000040110cab                cpu_emul_cpuid
                0x0000000040110d67                cpu_emul_rdmsr
                0x0000000040110ea5                cpu_emul_wrmsr
                0x0000000040110fec                cpu_emul_hlt
                0x0000000040110fff                cpu_emul_cli
                0x000000004011103a                cpu_emul_sti
                0x0000000040111083                cpu_emul_realmode_int
                0x00000000401111f5                cpu_emul_xsetbv
                0x0000000040111287                call_cpuid
                0x0000000040113b69                cpu_interpreter
                0x0000000040115e50                cpu_mmu_get_pte
                0x00000000401164b7                get_pte
                0x0000000040116586                write_linearaddr_ok_b
                0x00000000401165a8                write_linearaddr_ok_w
                0x00000000401165b6                write_linearaddr_ok_l
                0x00000000401165c4                write_linearaddr_b
                0x000000004011662d                write_linearaddr_w
                0x00000000401166bf                write_linearaddr_l
                0x000000004011674f                write_linearaddr_q
                0x00000000401167dd                read_linearaddr_b
                0x0000000040116845                read_linearaddr_w
                0x00000000401168d1                read_linearaddr_l
                0x000000004011695d                read_linearaddr_q
                0x00000000401169e9                read_linearaddr_tss
                0x0000000040116a74                write_linearaddr_tss
                0x000000004011a7b5                cpu_mmu_spt_tlbflush
                0x000000004011a7f3                cpu_mmu_spt_updatecr3
                0x000000004011aa75                cpu_mmu_spt_invalidate
                0x000000004011aae9                cpu_mmu_spt_pagefault
                0x000000004011ace7                cpu_mmu_spt_extern_mapsearch
                0x000000004011ae18                cpu_mmu_spt_map_1mb
                0x000000004011afb8                cpu_mmu_spt_clear_all
                0x000000004011b10f                cpu_mmu_spt_init
                0x000000004011b704                cpu_seg_read_b
                0x000000004011b76b                cpu_seg_read_w
                0x000000004011b7d2                cpu_seg_read_l
                0x000000004011b839                cpu_seg_read_q
                0x000000004011b8a0                cpu_seg_write_b
                0x000000004011b908                cpu_seg_write_w
                0x000000004011b970                cpu_seg_write_l
                0x000000004011b9d5                cpu_seg_write_q
                0x000000004011ba3c                cpu_stack_get
                0x000000004011baa4                cpu_stack_set
                0x000000004011bb38                cpu_stack_push
                0x000000004011bbdd                cpu_stack_pop
                0x000000004011bf91                debug_addstr
                0x000000004011bf93                debug_gdb
                0x000000004011bf95                debug_iohook
                0x000000004011bf97                debug_msgregister
                0x000000004011bfca                debug_msgunregister
                0x000000004011c06d                do_exint_pass
                0x000000004011c10f                read_gphys_b
                0x000000004011c172                write_gphys_b
                0x000000004011c1f1                read_gphys_w
                0x000000004011c27e                write_gphys_w
                0x000000004011c32b                read_gphys_l
                0x000000004011c3b8                write_gphys_l
                0x000000004011c468                read_gphys_q
                0x000000004011c4f5                write_gphys_q
                0x000000004011c5a2                cmpxchg_gphys_l
                0x000000004011c65b                cmpxchg_gphys_q
                0x000000004011c714                gmm_pass_gp2hp
                0x000000004011cbd9                idman_reinit_session
                0x000000004011cc57                idman_reinit2
                0x000000004011cc7b                get_idman_session
                0x000000004011ccae                call_initfunc
                0x000000004011cd04                initfunc_init
                0x000000004011e857                int_fatal
                0x000000004011ebb2                callfunc_and_getint
                0x000000004011ebc9                do_externalint_enable
                0x000000004011ebe1                set_int_handler
                0x000000004011ebfc                int_exceptionHandler
                0x000000004011ec03                int_init_ap
                0x000000004011ec5e                do_io_nothing
                0x000000004011ec99                set_iofunc
                0x000000004011ed2a                call_io
                0x000000004011ee10                do_iopass_default
                0x000000004011f0aa                keyboard_reset
                0x000000004011f0f4                setkbdled
                0x000000004011f148                keyboard_flush
                0x000000004011f167                load_bootsector
                0x000000004011f525                copy_bootsector
                0x000000004011f892                localapic_wait_for_sipi
                0x000000004011f91f                localapic_change_base_msr
                0x000000004011f96b                localapic_mmio_register
                0x000000004011f9d4                localapic_delayed_ap_start
                0x00000000401203a0                resume_vm
                0x0000000040120452                vmm_main
                0x0000000040120902                getsysmemmap
                0x0000000040120986                getfakesysmemmap
                0x00000000401209f1                phys_to_virt
                0x0000000040120a02                vmm_start_inf
                0x0000000040120a09                vmm_term_inf
                0x0000000040120a15                num_of_available_pages
                0x0000000040120a83                alloc_pages
                0x0000000040120afa                alloc_page
                0x0000000040120b0d                alloc
                0x0000000040120da9                alloc2
                0x0000000040120de2                free
                0x0000000040120edd                realloc
                0x0000000040121014                free_page
                0x000000004012102a                free_page_phys
                0x0000000040121050                mempool_new
                0x00000000401210ad                mempool_free
                0x000000004012114e                mempool_allocmem
                0x0000000040121345                mempool_freemem
                0x00000000401215e7                sym_to_phys
                0x00000000401215f6                phys_in_vmm
                0x0000000040121619                mm_force_unlock
                0x000000004012163d                mm_process_alloc
                0x0000000040121681                mm_process_free
                0x000000004012168f                pmap_open_vmm
                0x00000000401216b5                pmap_open_guest
                0x00000000401216f2                pmap_close
                0x00000000401216f4                pmap_getreadlevel
                0x00000000401216fb                pmap_setlevel
                0x0000000040121702                pmap_seek
                0x000000004012176d                pmap_read
                0x00000000401219fc                pmap_write
                0x0000000040121b92                mm_process_unmap
                0x0000000040121c70                mm_process_unmap_stack
                0x0000000040121e3b                mm_process_unmapall
                0x0000000040121ed5                mm_process_switch
                0x0000000040122137                pmap_pointer
                0x0000000040122195                pmap_clear
                0x000000004012227e                pmap_autoalloc
                0x0000000040122415                mm_process_map_alloc
                0x000000004012254d                mm_process_map_shared_physpage
                0x00000000401225a6                mm_process_map_shared
                0x0000000040122806                mm_process_map_stack
                0x00000000401230bd                pmap_dump
                0x00000000401231c8                unmapmem
                0x000000004012329a                mapmem
                0x00000000401236f5                read_hphys_b
                0x000000004012374a                write_hphys_b
                0x000000004012376f                read_hphys_w
                0x0000000040123799                write_hphys_w
                0x00000000401237bf                read_hphys_l
                0x00000000401237e7                write_hphys_l
                0x000000004012380c                read_hphys_q
                0x0000000040123836                write_hphys_q
                0x000000004012385d                cmpxchg_hphys_l
                0x00000000401238a0                cmpxchg_hphys_q
                0x00000000401238e5                alloc_realmodemem
                0x0000000040123ad1                mapmem_hphys
                0x0000000040123aec                mapmem_gphys
                0x0000000040123b07                mm_flush_wb_cache
                0x0000000040124146                mmio_access_memory
                0x0000000040124405                mmio_access_page
                0x00000000401244de                mmio_register
                0x00000000401244f2                mmio_register_unlocked
                0x0000000040124506                mmio_unregister
                0x00000000401245b6                mmio_lock
                0x00000000401245ef                mmio_unlock
                0x0000000040124794                msg_findname
                0x00000000401247f4                msg_register
                0x00000000401248c2                msg_unregister
                0x0000000040124940                msg_unregisterall
                0x00000000401249c6                msg_unregister2
                0x0000000040124a7f                call_read_msr
                0x0000000040124a96                call_write_msr
                0x0000000040124d24                load_minios
                0x000000004012504b                backtrace
                0x0000000040125b20                panic
                0x00000000401260b5                auto_reboot
                0x00000000401260d2                panic_test
                0x00000000401260f5                pcpu_list_foreach
                0x0000000040126125                pcpu_list_add
                0x0000000040126174                pcpu_init
                0x0000000040126c60                vprintf
                0x0000000040126c9e                printf
                0x0000000040126ce6                vsnprintf
                0x0000000040126d24                snprintf
                0x0000000040126f3f                sys_msgsetfunc
                0x0000000040126fe1                sys_msgclose
                0x0000000040126ff9                sys_msgret
                0x00000000401270df                sys_msgregister
                0x0000000040127312                sys_msgsenddesc
                0x0000000040127abb                sys_msgsendint
                0x0000000040127def                sys_newprocess
                0x0000000040127e52                sys_msgunregister
                0x0000000040127edd                sys_exitprocess
                0x0000000040127f32                sys_msgsendbuf
                0x0000000040128083                sys_msgopen
                0x00000000401280e4                process_kill
                0x0000000040128148                msgsetfunc
                0x0000000040128159                msgregister
                0x0000000040128172                msgopen
                0x0000000040128188                msgclose
                0x0000000040128196                msgsendint
                0x00000000401281ad                msgsenddesc
                0x00000000401281c4                newprocess
                0x00000000401281da                msgsendbuf
                0x00000000401281f7                msgunregister
                0x000000004012822a                exitprocess
                0x000000004012823d                msgpremapbuf
                0x0000000040128358                process_syscall
                0x00000000401283f6                putchar
                0x0000000040128437                putchar_set_func
                0x000000004012870d                do_panic_reboot
                0x000000004012878a                handle_init_to_bsp
                0x00000000401287f4                reboot_test
                0x000000004012881e                savemsr_save
                0x0000000040128882                savemsr_load
                0x0000000040128be2                get_seg_base
                0x0000000040128c91                get_seg_access_rights
                0x0000000040128cad                segment_wakeup
                0x0000000040128ceb                segment_init_ap
                0x0000000040128f72                serial_putDebugChar
                0x0000000040128f80                serial_getDebugChar
                0x0000000040128f91                serial_putchar
                0x0000000040128fe9                serial_init_iohook
                0x0000000040129028                waitcycles
                0x0000000040129047                usleep
                0x000000004012915f                sleep_set_timer_counter
                0x00000000401292b7                vmctl_svm_init
                0x000000004012935b                message_exitcode
                0x00000000401296d3                printexitcode
                0x0000000040129700                svm_available
                0x00000000401297a4                svm_reset
                0x0000000040129a14                svm_vminit
                0x0000000040129dc1                svm_vmexit
                0x0000000040129dc3                svm_init
                0x0000000040129f07                svm_enable_resume
                0x000000004012a00d                svm_resume
                0x000000004012a162                svm_ioio
                0x000000004012a25f                svm_extern_iopass
                0x000000004012a3b8                svm_init_signal
                0x000000004012a3de                svm_start_vm
                0x000000004012aeb0                svm_msr_update_lma
                0x000000004012af20                svm_read_msr
                0x000000004012b1b8                svm_write_msr
                0x000000004012b714                svm_np_init
                0x000000004012b80a                svm_np_pagefault
                0x000000004012b841                svm_np_tlbflush
                0x000000004012b843                svm_np_updatecr3
                0x000000004012b851                svm_np_clear_all
                0x000000004012b8e7                svm_np_extern_mapsearch
                0x000000004012b96b                svm_np_map_1mb
                0x000000004012b9b0                svm_paging_extern_flush_tlb_entry
                0x000000004012b9da                svm_paging_map_1mb
                0x000000004012ba01                svm_paging_flush_guest_tlb
                0x000000004012ba3a                svm_paging_init
                0x000000004012bb4b                svm_paging_pagefault
                0x000000004012bb7a                svm_paging_tlbflush
                0x000000004012bba1                svm_paging_invalidate
                0x000000004012bbd2                svm_paging_npf
                0x000000004012bc01                svm_paging_updatecr3
                0x000000004012bc2a                svm_paging_spt_setcr3
                0x000000004012bc5e                svm_paging_clear_all
                0x000000004012bc8a                svm_paging_get_gpat
                0x000000004012bc98                svm_paging_set_gpat
                0x000000004012bcd8                svm_paging_apply_fixed_cr0
                0x000000004012bcf7                svm_paging_apply_fixed_cr4
                0x000000004012bd16                svm_paging_pg_change
                0x000000004012bd18                svm_paging_start
                0x000000004012bd1e                svm_panic_dump
                0x000000004012bdf0                svm_read_general_reg
                0x000000004012bf2c                svm_write_general_reg
                0x000000004012c038                svm_read_control_reg
                0x000000004012c0d6                svm_write_control_reg
                0x000000004012c1ae                svm_read_sreg_sel
                0x000000004012c26f                svm_read_sreg_acr
                0x000000004012c34a                svm_read_sreg_base
                0x000000004012c461                svm_read_sreg_limit
                0x000000004012c56d                svm_read_ip
                0x000000004012c587                svm_write_ip
                0x000000004012c5a8                svm_read_flags
                0x000000004012c5c2                svm_write_flags
                0x000000004012c5d9                svm_read_gdtr
                0x000000004012c60b                svm_write_gdtr
                0x000000004012c62f                svm_read_idtr
                0x000000004012c661                svm_write_idtr
                0x000000004012c685                svm_write_realmode_seg
                0x000000004012c7c4                svm_writing_sreg
                0x000000004012c8b4                int1a_TCG_StatusCheck
                0x000000004012c981                int1a_TCG_HashLogExtendEvent
                0x000000004012ca0d                int1a_TCG_PassThroughToTPM
                0x000000004012ca99                int1a_TCG_HashLogEvent
                0x000000004012cb1c                int1a_TCG_HashAll
                0x000000004012cbd5                int1a_TCG_TSS
                0x000000004012cc61                int1a_TCG_CompactHashLogExtendEvent
                0x000000004012ccc4                tcg_measure
                0x000000004012cfaa                thread_gettid
                0x000000004012cfba                schedule
                0x000000004012d1ec                thread_new
                0x000000004012d31b                thread_wakeup
                0x000000004012d3ea                thread_will_stop
                0x000000004012d462                thread_exit
                0x000000004012d508                thread_start1
                0x000000004012d708                get_cpu_time
                0x000000004012d7d2                get_acpi_time
                0x000000004012d885                get_time
                0x000000004012da64                timer_new
                0x000000004012dae1                timer_set
                0x000000004012dbff                timer_free
                0x000000004012de09                tty_putchar
                0x000000004012e0f7                ttylog_stop
                0x000000004012e102                tty_udp_register
                0x000000004012e147                tty_init_iohook
                0x000000004012e160                vcpu_list_foreach
                0x000000004012e190                load_new_vcpu
                0x000000004012e238                vga_register
                0x000000004012e2ad                vga_is_ready
                0x000000004012e300                vga_transfer_image
                0x000000004012e34f                vga_fill_rect
                0x000000004012e389                vga_get_screen_size
                0x000000004012e728                vmmcall_boot_continue
                0x000000004012e776                vmmcall_boot_enable
                0x000000004012e8c4                vmmcall
                0x000000004012e91c                vmmcall_register
                0x000000004012e959                vmmcall_init
                0x000000004012ed26                virt_to_phys
                0x000000004012f19c                register_status_callback
                0x000000004012f4a8                htoi
                0x000000004012f4ed                atoi
                0x000000004012f521                vmi_translate_ksym2v
                0x000000004012f54b                virt_pte
                0x000000004012f61c                virt_phys
                0x000000004012f708                virt_memcpy
                0x000000004012f838                virt_memcpy1
                0x000000004012f93f                read_str_va
                0x000000004012ffd6                vramwrite_clearscreen
                0x0000000040130033                vramwrite_putchar
                0x00000000401301f0                vramwrite_mark1
                0x0000000040130228                vramwrite_mark2
                0x0000000040130269                vramwrite_mark3
                0x00000000401302aa                vramwrite_save_and_move_cursor
                0x00000000401302d8                vramwrite_restore_cursor
                0x00000000401302e6                vramwrite_get_cursor_pos
                0x000000004013032c                vramwrite_init_global
                0x0000000040130334                vramwrite_exit_global
                0x00000000401303bf                vt_generate_pagefault
                0x0000000040130448                vt_generate_external_int
                0x000000004013049d                vmctl_vt_init
                0x0000000040130541                vt_update_exint
                0x00000000401305c1                vt_vmptrld
                0x0000000040130600                vt_ept_init
                0x00000000401306f4                vt_ept_map_page
                0x00000000401309dd                vt_ept_violation
                0x0000000040130a1b                vt_ept_tlbflush
                0x0000000040130a1d                vt_ept_updatecr3
                0x0000000040130ad9                vt_ept_clear_all
                0x0000000040130b6f                vt_ept_extern_mapsearch
                0x0000000040130bf3                vt_ept_map_1mb
                0x0000000040130c42                message_exitreason
                0x0000000040130d41                printexitreason
                0x00000000401316ad                vt_available
                0x0000000040131749                vt__vmx_init
                0x0000000040131791                vt__vmxon
                0x0000000040131839                vt_vminit
                0x0000000040131898                vt_vmexit
                0x00000000401318b5                vt_init
                0x00000000401318c8                vt_enable_resume
                0x0000000040131a04                vt_resume
                0x0000000040131b8f                vt_io
                0x0000000040131cb3                vt_iopass_init
                0x0000000040131e2b                vt_iopass
                0x0000000040131e6d                vt_extern_iopass
                0x0000000040132b3a                vt_update_exception_bmp
                0x0000000040133176                vt_init_signal
                0x0000000040133184                vt_start_vm
                0x0000000040133555                vt_add_guest_msr
                0x00000000401336a9                vt_read_guest_msr
                0x0000000040133706                vt_write_guest_msr
                0x0000000040133760                vt_msr_update_lma
                0x0000000040133815                vt_read_msr
                0x0000000040133aac                vt_write_msr
                0x0000000040133d4f                vt_msr_init
                0x0000000040133f1f                vt_paging_extern_flush_tlb_entry
                0x0000000040133f74                vt_paging_map_1mb
                0x0000000040133f9a                vt_paging_flush_guest_tlb
                0x0000000040133ffb                vt_paging_pagefault
                0x0000000040134031                vt_paging_tlbflush
                0x0000000040134051                vt_paging_invalidate
                0x0000000040134077                vt_paging_npf
                0x00000000401340af                vt_paging_updatecr3
                0x00000000401340e1                vt_paging_spt_setcr3
                0x0000000040134107                vt_paging_clear_all
                0x000000004013413d                vt_paging_get_gpat
                0x000000004013414b                vt_paging_set_gpat
                0x0000000040134193                vt_paging_apply_fixed_cr0
                0x00000000401341f6                vt_paging_apply_fixed_cr4
                0x0000000040134239                vt_paging_pg_change
                0x00000000401343ab                vt_paging_init
                0x00000000401343fa                vt_paging_start
                0x000000004013441b                vt_panic_dump
                0x00000000401345d0                vt_read_general_reg
                0x00000000401346f1                vt_write_general_reg
                0x00000000401347e5                vt_read_control_reg
                0x0000000040134856                vt_read_sreg_sel
                0x000000004013495f                vt_read_sreg_acr
                0x00000000401349b6                vt_read_sreg_base
                0x0000000040134a38                vt_read_sreg_limit
                0x0000000040134ab5                vt_read_ip
                0x0000000040134abe                vt_write_ip
                0x0000000040134ad9                vt_read_flags
                0x0000000040134afb                vt_write_flags
                0x0000000040134b21                vt_read_gdtr
                0x0000000040134b31                vt_write_gdtr
                0x0000000040134b41                vt_read_idtr
                0x0000000040134b7f                vt_write_idtr
                0x0000000040134baf                vt_write_control_reg
                0x00000000401350b6                vt_get_current_regs_in_vmcs
                0x0000000040135364                vt_get_vmcs_regs_in_vmcs
                0x00000000401354dc                vt_write_realmode_seg
                0x0000000040135628                vt_writing_sreg
                0x00000000401356b4                vt_reset
                0x000000004013599a                prepare_for_sleep
                0x0000000040135a5c                cancel_sleep
                0x0000000040135a81                wakeup_main
                0x0000000040135b0c                wakeup_cont
                0x0000000040135c4f                wakeup_init
                0x0000000040135c96                call_xsetbv
                0x0000000040135d20                mpumul_64_64
                0x0000000040135d40                mpudiv_128_32
                0x0000000040135d60                ipchecksum
                0x0000000040135df0                asm_vmlaunch_regs_32
                0x0000000040135e70                asm_vmresume_regs_32
                0x0000000040135ef0                asm_vmrun_regs_32
                0x0000000040135f50                asm_vmlaunch_regs_64
                0x0000000040136030                asm_vmresume_regs_64
                0x0000000040136110                asm_vmrun_regs_64
                0x00000000401361b4                callrealmode_start
                0x00000000401361ca                callrealmode_start2
                0x0000000040136656                move_vmm_area32
                0x0000000040136656                callrealmode_end
                0x000000004013667b                move_vmm_area64
                0x00000000401366a8                int_handler
                0x0000000040136720                int_callfunc
                0x0000000040137000                syscall_entry_sysexit
                0x000000004013702c                syscall_entry_lret
                0x000000004013705c                ret_to_user32
                0x0000000040137068                syscall_entry_sysret64
                0x00000000401370b0                ret_to_user64
                0x0000000040138000                processuser_sysenter
                0x0000000040139000                processuser_no_sysenter
                0x000000004013a000                processuser_syscall
                0x000000004013b140                memset
                0x000000004013b1c0                memcpy
                0x000000004013b200                strcmp
                0x000000004013b240                memcmp
                0x000000004013b280                strlen
                0x000000004013b298                sx_handler
                0x000000004013b2f0                thread_switch
                0x000000004013b310                thread_start0
                0x000000004013b350                core_init
                0x000000004013b35c                core_mm_read_guest_phys
                0x000000004013b3c6                core_mm_write_guest_phys
                0x000000004013b430                alloc_handler_descriptor
                0x000000004013b443                core_io_modify_handler
                0x000000004013b505                core_io_unregister_handler
                0x000000004013b57f                core_io_handle_default
                0x000000004013b813                panic_oom
                0x000000004013b826                core_io_register_handler
                0x000000004013b960                matched_drhd_u
                0x000000004013b9b9                parse_dmar_bios_report
                0x000000004013b9d9                ieee1394_init
                0x000000004013ba4e                iommu_setup
                0x000000004013ba50                iodom_init
                0x000000004013bc19                add_remap
                0x000000004013bc96                create_dom
                0x000000004013bfaf                pci_conceal_new_device
                0x000000004013c38a                pci_conceal_config_data_handler
                0x000000004013c3a7                pci_save_config_addr
                0x000000004013c3b4                pci_restore_config_addr
                0x000000004013c3c1                pci_append_device
                0x000000004013c3ee                pci_config_addr_handler
                0x000000004013c432                pci_register_driver
                0x000000004013c4c7                pci_read_config_data8
                0x000000004013c508                pci_read_config_data16
                0x000000004013c54a                pci_read_config_data32
                0x000000004013c58b                pci_write_config_data8
                0x000000004013c5cc                pci_write_config_data16
                0x000000004013c60e                pci_write_config_data32
                0x000000004013c64f                pci_read_config_data_port
                0x000000004013c67c                pci_write_config_data_port
                0x000000004013c6ad                pci_readwrite_config_mmio
                0x000000004013c773                pci_config_data_handler
                0x000000004013cab9                pci_read_config_mmio
                0x000000004013cae4                pci_write_config_mmio
                0x000000004013cb0f                pci_handle_default_config_write
                0x000000004013cc08                pci_handle_default_config_read
                0x000000004013cc88                pci_config_mmio_handler
                0x000000004013ce81                pci_print_device
                0x000000004013d343                pci_possible_new_device
                0x000000004013d36b                security_storage_check_lba
                0x000000004013fb26                ahci_new
                0x000000004013fd9f                ahci_config_read
                0x000000004013fe05                ahci_config_write
                0x0000000040140094                ata_bm_handle_command
                0x00000000401401ba                ata_bm_handle_status
                0x0000000040140258                ata_bm_handle_prd_table
                0x0000000040140344                ata_bm_handler
                0x000000004014043e                ata_get_cmd_type
                0x0000000040140767                ata_handle_queued_status
                0x00000000401410c2                ata_channel_lock
                0x000000004014112a                ata_channel_unlock
                0x000000004014114c                ata_cmdblk_handler
                0x0000000040141256                ata_ctlblk_handler
                0x0000000040141e4b                ata_ahci_mode
                0x0000000040142334                ata_init_io_handler
                0x00000000401423ca                ata_set_bm_handler
                0x000000004014241d                ata_set_cmdblk_handler
                0x0000000040142456                ata_set_ctlblk_handler
                0x0000000040142491                ata_config_read
                0x000000004014255f                ata_config_write
                0x00000000401426fd                ata_init_vendor
                0x0000000040142720                ata_bm_handle_device_specific
                0x0000000040142820                atapi_handle_config_data
                0x0000000040142a6b                atapi_handle_interrupt_reason
                0x0000000040142ab1                atapi_handle_pio_identify_packet
                0x0000000040142c37                atapi_handle_packet_data
                0x0000000040142c3d                atapi_handle_cmd_packet
                0x0000000040142caf                packet_handle_through
                0x0000000040142cdd                packet_handle_nondata
                0x0000000040142cf2                packet_handle_config
                0x0000000040142d37                packet_handle_rw
                0x0000000040142dc2                packet_handle_invalid
                0x0000000040142dd7                packet_handle_command
                0x0000000040142e10                uhci_init
                0x000000004014366e                uhci_current_frame_number
                0x0000000040143680                dump_td_byvirt
                0x0000000040143848                dump_td
                0x0000000040143915                dump_qh
                0x0000000040143aef                dump_frame
                0x0000000040143bf0                uhci_dump_all
                0x0000000040143da9                uhci_error_status_string
                0x0000000040144053                uhci_shadow_buffer
                0x00000000401442b5                uhci_framelist_monitor
                0x000000004014621a                scan_gframelist
                0x0000000040146ad9                uhci_create_urb
                0x0000000040146c30                uhci_destroy_urb
                0x0000000040146d59                uhci_destroy_unlinked_urbs
                0x0000000040146e2d                uhci_deactivate_urb
                0x000000004014718e                uhci_activate_urb
                0x0000000040147706                uhci_reactivate_urb
                0x00000000401477a8                uhci_submit_control
                0x0000000040147dcc                uhci_submit_interrupt
                0x0000000040147e35                uhci_submit_bulk
                0x0000000040147e9e                uhci_check_urb_advance
                0x0000000040147eca                uhci_check_advance
                0x00000000401480d0                init_hframelist
                0x00000000401483a1                ehci_conceal_portroute
                0x00000000401483dc                ehci_init
                0x000000004014a217                ehci_dump_qtd
                0x000000004014a277                ehci_dump_qtdm
                0x000000004014a2ab                ehci_dump_alist
                0x000000004014a368                ehci_dump_urblist
                0x000000004014a3f2                ehci_dump_urb
                0x000000004014a888                ehci_dump_async
                0x000000004014acef                ehci_dump_all
                0x000000004014c269                ehci_shadow_buffer
                0x000000004014c505                get_gurb_by_address
                0x000000004014c59c                shadow_and_activate_urb
                0x000000004014c886                ehci_deactivate_urb
                0x000000004014ca0d                deactivate_and_delete_urb
                0x000000004014cc85                ehci_check_urb_advance
                0x000000004014ce49                ehci_check_advance
                0x000000004014d082                ehci_shadow_async_list
                0x000000004014d18a                ehci_cleanup_urbs
                0x000000004014d2e4                ehci_end_monitor_async
                0x000000004014d34e                ehci_monitor_async_list
                0x000000004014d9d4                ehci_submit_control
                0x000000004014df71                ehci_submit_bulk
                0x000000004014df77                ehci_submit_interrupt
                0x000000004014faa2                usbmsc_init_handle
                0x000000004014fe6b                usbhub_init_handle
                0x000000004014fedf                hub_portdevice_register
                0x00000000401505a9                usbccid_init_handle
                0x00000000401506c0                usb_set_debug
                0x00000000401506c7                usb_init
                0x00000000401506c9                usb_find_busses
                0x00000000401507a6                usb_get_busses
                0x00000000401507ae                usb_get_bus
                0x00000000401507d9                usb_find_devices
                0x0000000040150824                usb_open
                0x0000000040150881                usb_close
                0x0000000040150894                usb_resetep
                0x000000004015089a                usb_clear_halt
                0x00000000401508a0                usb_reset
                0x00000000401508a6                usb_claim_interface
                0x00000000401508af                usb_release_interface
                0x00000000401508bc                usb_set_configuration
                0x0000000040150b65                usb_set_altinterface
                0x0000000040150e10                usb_control_msg
                0x0000000040151171                usb_get_string
                0x00000000401514ae                usb_get_string_simple
                0x000000004015169a                usb_get_descriptor
                0x00000000401519dc                usb_get_descriptor_early
                0x0000000040151d2a                usb_get_descriptor_by_endpoint
                0x0000000040152070                usb_bulk_write
                0x00000000401522a2                usb_interrupt_write
                0x00000000401524d4                usb_bulk_read
                0x0000000040152780                usb_interrupt_read
                0x0000000040152a2c                usb_register_host
                0x0000000040152b4d                usb_unregister_devices
                0x0000000040152b80                usb_sc_lock
                0x0000000040152be3                usb_sc_unlock
                0x00000000401532e3                free_config_descriptors
                0x0000000040153433                free_device
                0x0000000040153598                handle_connect_status
                0x0000000040153695                handle_port_reset
                0x0000000040153768                dprintf_port
                0x0000000040154664                usb_init_device_monitor
                0x00000000401546c9                usb_new_dev_handle
                0x000000004015476f                usbhid_init_handle
                0x0000000040154896                usb_hook_process
                0x0000000040154b9a                usb_hook_register
                0x0000000040154c70                usb_hook_unregister
                0x0000000040154ce3                _dprintf
                0x0000000040154d39                _dprintft
                0x0000000040154dee                pro100_io_handler
                0x0000000040154df4                pro100_config_read
                0x0000000040154e0e                pro100_config_write
                0x0000000040154f31                pro100_init
                0x0000000040154f4e                pro100_init_vpn_client
                0x0000000040154f80                pro100_sleep
                0x0000000040154fae                pro100_beep
                0x0000000040154fd7                pro100_get_ctx
                0x0000000040155060                pro100_alloc_page
                0x0000000040155095                pro100_free_page
                0x00000000401550ad                pro100_get_op_size
                0x00000000401550e6                pro100_mem_read
                0x000000004015514a                pro100_read_send_packet
                0x000000004015531b                pro100_mem_write
                0x000000004015537d                pro100_write
                0x00000000401553eb                pro100_read
                0x0000000040155466                pro100_wait_cu_ru_accepable
                0x00000000401554a2                pro100_init_cu_base_addr
                0x00000000401554f5                pro100_init_ru_base_addr
                0x0000000040155548                pro100_flush
                0x0000000040155566                pro100_exec_cu_op
                0x00000000401556af                pro100_send_packet_to_line
                0x00000000401557e6                pro100_generate_int
                0x0000000040155818                pro100_write_recv_packet
                0x000000004015596a                pro100_proc_guest_op
                0x0000000040155b78                pro100_get_int_bit_string
                0x0000000040155bee                pro100_get_stat_ack_string
                0x0000000040155c59                pro100_get_cu_command_string
                0x0000000040155cc7                pro100_get_ru_command_string
                0x0000000040155d05                pro100_init_recv_buffer
                0x0000000040155e38                pro100_poll_ru
                0x0000000040155f32                pro100_hook_write
                0x00000000401561ec                pro100_hook_read
                0x00000000401563aa                pro100_mm_handler
                0x00000000401564ef                pro100_alloc_recv_buffer
                0x0000000040156550                pro100_new
                0x0000000040158846                storage_premap_buf
                0x000000004015884c                storage_premap_handle_sectors
                0x0000000040158b72                storage_get_num_hc
                0x0000000040158b9f                storage_hc_open
                0x0000000040158c94                storage_hc_close
                0x0000000040158ce1                storage_hc_hook_register
                0x0000000040158d59                storage_hc_hook_unregister
                0x0000000040158df6                storage_hc_register
                0x0000000040158fbc                storage_hc_unregister
                0x00000000401590b1                storage_hc_scandev
                0x00000000401590f9                storage_hc_dev_open
                0x0000000040159226                storage_hc_dev_atacommand
                0x00000000401593f9                storage_hc_dev_close
                0x00000000401594ac                storage_io_init
                0x00000000401594bc                storage_io_deinit
                0x00000000401594ca                storage_io_get_num_devices
                0x000000004015958d                storage_io_aget_size
                0x00000000401596e0                storage_io_aread
                0x00000000401598fd                storage_io_awrite
                0x000000004015a063                storage_handle_sectors
                0x000000004015a285                storage_new
                0x000000004015a6f6                storage_free
                0x000000004015a704                storage_init
                0x000000004015a91b                aes_xts_init
                0x000000004015a960                crypto_find
                0x000000004015a9a6                crypto_register
                0x000000004015a9e9                crypto_init
                0x000000004015aa3b                crypto_none_init
                0x000000004015aa6d                vpn_GetCurrentCpuId
                0x000000004015aa7b                vpn_GetTickCount
                0x000000004015aaac                vpn_NewTimer
                0x000000004015aac9                vpn_SetTimer
                0x000000004015aae0                vpn_FreeTimer
                0x000000004015aaee                vpn_GetPhysicalNicInfo
                0x000000004015ab00                vpn_SendPhysicalNic
                0x000000004015ab12                vpn_SetPhysicalNicRecvCallback
                0x000000004015ab24                vpn_GetVirtualNicInfo
                0x000000004015ab37                vpn_SendVirtualNic
                0x000000004015ab4a                vpn_SetVirtualNicRecvCallback
                0x000000004015ab5d                vpn_premap_PhysicalNicRecv
                0x000000004015ab79                vpn_premap_VirtualNicRecv
                0x000000004015ab95                vpn_premap_recvbuf
                0x000000004015ab9b                vpn_ic_rsa_sign
                0x000000004015ac2f                vpn_new_nic
                0x000000004015b222                msg_vpn_GetCurrentCpuId
                0x000000004015b23d                msg_vpn_ic_rsa_sign
                0x000000004015b2f6                msg_vpn_GetTickCount
                0x000000004015b337                msg_vpn_GetPhysicalNicInfo
                0x000000004015b399                msg_vpn_SendPhysicalNic
                0x000000004015b44a                msg_vpn_SetPhysicalNicRecvCallback
                0x000000004015b49a                msg_vpn_GetVirtualNicInfo
                0x000000004015b4fc                msg_vpn_SendVirtualNic
                0x000000004015b5ad                msg_vpn_SetVirtualNicRecvCallback
                0x000000004015b5fd                msg_vpn_NewTimer
                0x000000004015b660                msg_vpn_SetTimer
                0x000000004015b72c                msg_vpn_FreeTimer
                0x000000004015b798                vpn_start
                0x000000004015bae9                vpn_user_init
                0x000000004015bb40                SeFreeConfigEntryList
                0x000000004015bb8e                SeGetConfigEntry
                0x000000004015bbfb                SeGetConfigStr
                0x000000004015bc29                SeGetConfigBin
                0x000000004015bc51                SeGetConfigInt64
                0x000000004015bc79                SeGetConfigInt
                0x000000004015bca1                SeGetConfigBool
                0x000000004015bd43                SeIsSplitChar
                0x000000004015bdae                SeGetKeyAndValue
                0x000000004015bf3f                SeLoadConfigEntryListFromBuf
                0x000000004015c0b0                SeLoadConfigEntryList
                0x000000004015c0f0                SePKeyPasswordCallbackFunction
                0x000000004015c122                SeDhFree
                0x000000004015c158                SeRsaVerifyWithPadding
                0x000000004015c21a                SeRsaSignWithPadding
                0x000000004015c2c5                SeRsaPublicDecrypt
                0x000000004015c34d                SeRsaPrivateEncrypt
                0x000000004015c3d5                SeRsaPrivateDecrypt
                0x000000004015c45a                SeRsaPublicEncrypt
                0x000000004015c4df                SeGetCertSha1
                0x000000004015c51c                SeGetCertMd5
                0x000000004015c559                SeBinToBigNum
                0x000000004015c58d                SeDhCompute
                0x000000004015c600                SeBufToBigNum
                0x000000004015c621                SeBigNumToBuf
                0x000000004015c69b                SeDhNew
                0x000000004015c755                SeDhNewGroup2
                0x000000004015c76d                SeRsaPublicToBuf
                0x000000004015c7b4                SeRsaPublicToBin
                0x000000004015c80c                SeRsaPublicSize
                0x000000004015c864                SeCheckSignature
                0x000000004015c892                SeGetKeyFromCert
                0x000000004015c8c4                SeCompareCert
                0x000000004015c8f2                SeCheckCertAndKey
                0x000000004015c920                SeIsBase64
                0x000000004015c99d                SeFreePKey
                0x000000004015c9b1                SeFreeKey
                0x000000004015c9cc                SeCheckCert
                0x000000004015ca19                SeIsCertSignedByCert
                0x000000004015ca79                SeBioToKey
                0x000000004015cb77                SeGetCertIssuerName
                0x000000004015cbfe                SeGetCertSubjectName
                0x000000004015cc8a                SeFreeX509
                0x000000004015cc9e                SeFreeCert
                0x000000004015ccbf                SeFreeBio
                0x000000004015ccd3                SeNewBio
                0x000000004015cce9                SeRsaGen
                0x000000004015ce3c                SeKeyToBio
                0x000000004015cf32                SeCertToBio
                0x000000004015cf7d                SeBioToBuf
                0x000000004015cffe                SeBigNumToStr
                0x000000004015d06c                SeKeyToBuf
                0x000000004015d0c0                SeX509ToCert
                0x000000004015d168                SeBioToCert
                0x000000004015d1b4                SeSaveKey
                0x000000004015d209                SeCertToBuf
                0x000000004015d25d                SeSaveCert
                0x000000004015d2af                SeBufToBio
                0x000000004015d30b                SeBufToCert
                0x000000004015d351                SeCloneCert
                0x000000004015d39d                SeLoadCert
                0x000000004015d3df                SeBufToKey
                0x000000004015d42f                SeCloneKey
                0x000000004015d48c                SeLoadKey
                0x000000004015d52e                SeSha1
                0x000000004015d552                SeMacSha1
                0x000000004015d6b9                SeMacSha196
                0x000000004015d6fd                SeHashForSignBySHA1
                0x000000004015d7a6                SeRsaVerifyWithSha1
                0x000000004015d84e                SeRsaSignWithSha1
                0x000000004015d8df                SeMd5
                0x000000004015d903                SeDes3Encrypt
                0x000000004015d984                SeDes3Decrypt
                0x000000004015da05                SeDesNewKeyValue
                0x000000004015da5b                SeDes3NewKey
                0x000000004015dac9                SeDesNewKey
                0x000000004015dadd                SeDesRandKeyValue
                0x000000004015dafa                SeDes3RandKey
                0x000000004015db36                SeDesRandKey
                0x000000004015db73                SeDesFreeKeyValue
                0x000000004015db8e                SeDes3FreeKey
                0x000000004015dbbb                SeDesFreeKey
                0x000000004015dbc9                SeRand
                0x000000004015dbe1                SeRand64
                0x000000004015dbfe                SeRand32
                0x000000004015dc1a                SeRand16
                0x000000004015dc37                SeRand8
                0x000000004015dc54                SeRand1
                0x000000004015dc6a                SeInitCrypto
                0x000000004015dca7                SeFreeCrypto
                0x000000004015dcc0                SeIkeStrToPassword
                0x000000004015dd1a                SeIkePhase1CryptIdToKeySize
                0x000000004015dd35                SeIkePhase2CryptIdToKeySize
                0x000000004015dd50                SeIkeStrToPhase1Mode
                0x000000004015dd80                SeIkeStrToPhase1CryptId
                0x000000004015ddd9                SeIkeStrToPhase1HashId
                0x000000004015de0b                SeIkeStrToPhase2CryptId
                0x000000004015de69                SeIkeStrToPhase2HashId
                0x000000004015de9b                SeIkeIsZeroIP
                0x000000004015ded1                SeIkeInitIPv6Address
                0x000000004015df0e                SeIkeInitIPv4Address
                0x000000004015df41                SeIkeGetIPv6Address
                0x000000004015df63                SeIkeGetIPv4Address
                0x000000004015df81                SeIkeIpAddressToStr
                0x000000004015dfbe                SeIkeBuildDataPayload
                0x000000004015dffb                SeIkeBuildTransformValue
                0x000000004015e0bb                SeIkeBuildTransformValueList
                0x000000004015e125                SeIkeBuildTransformPayload
                0x000000004015e1a0                SeIkeBuildIdPayload
                0x000000004015e216                SeIkeBuildCertPayload
                0x000000004015e276                SeIkeBuildCertRequestPayload
                0x000000004015e2d6                SeIkeBuildNoticePayload
                0x000000004015e363                SeIkeBuildDeletePayload
                0x000000004015e43c                SeIkeGetFirstPayloadType
                0x000000004015e45d                SeIkeBuildPayloadList
                0x000000004015e567                SeIkeBuildSaPayload
                0x000000004015e5ef                SeIkeBuildProposalPayload
                0x000000004015e69c                SeIkeBuildPayload
                0x000000004015e779                SeIkeGetPayload
                0x000000004015e7c2                SeIkeGetPayloadNum
                0x000000004015e7ff                SeIkeNewPayload
                0x000000004015e810                SeIkeNewDeletePayload
                0x000000004015e840                SeIkeNewNoticePayload
                0x000000004015e8c7                SeIkeNewCertRequestPayload
                0x000000004015e916                SeIkeNewCertPayload
                0x000000004015e965                SeIkeNewIdPayload
                0x000000004015e9cc                SeIkeNewTransformPayload
                0x000000004015e9ff                SeIkeNewProposalPayload
                0x000000004015ea70                SeIkeNewSaPayload
                0x000000004015ea90                SeIkeNewDataPayload
                0x000000004015eac9                SeIkeNewTransformValue
                0x000000004015eaea                SeIkeFreeTransformValueList
                0x000000004015eb25                SeIkeParseTransformValueList
                0x000000004015ec9b                SeIkeParseTransformPayload
                0x000000004015ecfd                SeIkeFreeTransformPayload
                0x000000004015ed1e                SeIkeParseIdPayload
                0x000000004015ed92                SeIkeFreeIdPayload
                0x000000004015edb3                SeIkeParseCertPayload
                0x000000004015ee11                SeIkeFreeCertPayload
                0x000000004015ee32                SeIkeParseCertRequestPayload
                0x000000004015ee90                SeIkeFreeCertRequestPayload
                0x000000004015eeb1                SeIkeParseNoticePayload
                0x000000004015ef6e                SeIkeFreeNoticePayload
                0x000000004015efa5                SeIkeFreeDeletePayload
                0x000000004015eff6                SeIkeParseDeletePayload
                0x000000004015f0ee                SeIkeParseDataPayload
                0x000000004015f11b                SeIkeFreeDataPayload
                0x000000004015f132                SeIkeFreePayloadList
                0x000000004015f16d                SeIkeFreeSaPayload
                0x000000004015f18c                SeIkeFreeProposalPayload
                0x000000004015f1c3                SeIkeFreePayload
                0x000000004015f25e                SeIkeParsePayloadListEx
                0x000000004015f3db                SeIkeParsePayloadList
                0x000000004015f3f1                SeIkeParseSaPayload
                0x000000004015f4a4                SeIkeParseProposalPayload
                0x000000004015f538                SeIkeParsePayload
                0x000000004015f620                SeIkeEncrypt
                0x000000004015f6b9                SeIkeEncryptWithPadding
                0x000000004015f74f                SeIkeBuild
                0x000000004015f8a3                SeIkeDecrypt
                0x000000004015f93c                SeIkeFree
                0x000000004015f96b                SeIkeParseEx
                0x000000004015fb23                SeIkeParseHeader
                0x000000004015fb36                SeIkeParse
                0x000000004015fb49                SeIkeNew
                0x000000004015fbb0                VPN_IPsec_Client_Start
                0x000000004015fbdb                VPN_IPsec_Client_Stop
                0x000000004015fbef                SeIntInit
                0x000000004015fc05                SeIntFree
                0x000000004015fc22                VPN_IPsec_Init
                0x000000004015fc6f                VPN_IPsec_Free
                0x000000004015fca5                SeSysMemoryAlloc
                0x000000004015fcc4                SeSysMemoryReAlloc
                0x000000004015fcf1                SeSysMemoryFree
                0x000000004015fd0d                SeSysGetCurrentCpuId
                0x000000004015fd28                SeSysNewLock
                0x000000004015fd43                SeSysLock
                0x000000004015fd5f                SeSysUnlock
                0x000000004015fd7b                SeSysFreeLock
                0x000000004015fd97                SeSysGetTickCount
                0x000000004015fdb2                SeSysNewTimer
                0x000000004015fdda                SeSysSetTimer
                0x000000004015fdf6                SeSysFreeTimer
                0x000000004015fe12                SeSysGetPhysicalNicInfo
                0x000000004015fe33                SeSysSendPhysicalNic
                0x000000004015fe5c                SeSysSetPhysicalNicRecvCallback
                0x000000004015fe82                SeSysGetVirtualNicInfo
                0x000000004015fea3                SeSysSendVirtualNic
                0x000000004015fecf                SeSysSetVirtualNicRecvCallback
                0x000000004015fef8                SeSysSaveData
                0x000000004015ff23                SeSysLoadData
                0x000000004015ff51                SeSysFreeData
                0x000000004015ff70                SeSysRsaSign
                0x000000004015ffab                SeSysLog
                0x000000004015ffdc                SeRsaSign
                0x0000000040160070                Se4ParseIpPacketUDPv4
                0x0000000040160149                Se4FreeIpHeaderInfo
                0x0000000040160170                Se4IpChecksum
                0x00000000401601e6                Se4AdjustTcpMss
                0x0000000040160371                Se4BuildIcmpEchoPacket
                0x0000000040160414                Se4ParseIpPacketICMPv4
                0x0000000040160537                Se4IpCheckChecksum
                0x000000004016056e                Se4Tick
                0x000000004016058a                Se4BroadcastMacAddress
                0x0000000040160590                Se4SendEthPacket
                0x0000000040160644                Se4SendIpFragmentNow
                0x0000000040160670                Se4InitArpEntryList
                0x0000000040160683                Se4FreeArpEntryList
                0x00000000401606be                Se4FlushArpEntryList
                0x0000000040160756                Se4SearchArpEntryList
                0x00000000401607d3                Se4AddArpEntryList
                0x000000004016089b                Se4SearchArpWaitList
                0x00000000401608d9                Se4InitArpWaitList
                0x00000000401608ec                Se4FreeArpWaitList
                0x0000000040160927                Se4InsertIpWait
                0x000000004016098f                Se4InitIpWaitList
                0x00000000401609a2                Se4FreeIpWait
                0x00000000401609be                Se4FlushIpWaitList
                0x0000000040160a6c                Se4FreeIpWaitList
                0x0000000040160aa7                Se4InitIpCombineList
                0x0000000040160aba                Se4SearchIpCombineList
                0x0000000040160b1a                Se4InitIpFragmentList
                0x0000000040160b2d                Se4InsertIpCombine
                0x0000000040160c11                Se4FreeIpFragmentList
                0x0000000040160c4c                Se4FreeIpCombine
                0x0000000040160c77                Se4FreeIpCombineList
                0x0000000040160cb4                Se4FlushIpCombineList
                0x0000000040160d90                Se4Free
                0x0000000040160dc7                Se4And
                0x0000000040160df6                Se4GetNetworkAddress
                0x0000000040160dfd                Se4Or
                0x0000000040160e2c                Se4Not
                0x0000000040160e55                Se4GetHostAddress
                0x0000000040160e6a                Se4GetBroadcastAddress
                0x0000000040160e94                Se4GenerateSubnetMask32
                0x0000000040160eb6                Se4IPToStr
                0x0000000040160ef7                Se4ZeroIP
                0x0000000040160f13                Se4StrToIP
                0x0000000040160fb1                Se4IPToUINT
                0x0000000040160fd6                Se4SendArpDoProcess
                0x00000000401610d1                Se4SendArpRequest
                0x000000004016112d                Se4ProcessArpWaitList
                0x00000000401611dd                Se4MainProc
                0x0000000040161201                Se4SendArpResponse
                0x00000000401612d6                Se4IsBroadcastAddress
                0x00000000401612ed                Se4Cmp
                0x0000000040161317                Se4CmpArpEntry
                0x0000000040161351                Se4CmpArpWaitEntry
                0x000000004016138b                Se4SendWaitingIpWait
                0x0000000040161468                Se4CmpIpCombineList
                0x00000000401614df                Se4IsInSameNetwork
                0x0000000040161513                Se4MacIpRelationKnown
                0x00000000401615a6                Se4ParseIpPacket
                0x00000000401616e9                Se4IsZeroIP
                0x00000000401616ff                Se4Init
                0x0000000040161801                Se4CheckUnicastAddress
                0x0000000040161843                Se4StrToIP32
                0x0000000040161858                Se4UINTToIP
                0x000000004016187d                Se4SendRawIp
                0x00000000401619c4                Se4SendIpFragment
                0x0000000040161aea                Se4SendIp
                0x0000000040161be5                Se4SendIcmpEchoRequest
                0x0000000040161c67                Se4SendIcmpEchoResponse
                0x0000000040161ce9                Se4RecvIpComplete
                0x0000000040161db2                Se4CombineIp
                0x0000000040161f9b                Se4SendIcmp
                0x0000000040162042                Se4SendUdp
                0x0000000040162169                Se4RecvIp
                0x00000000401623ea                Se4RecvArpRequest
                0x00000000401624f7                Se4RecvArpResponse
                0x000000004016252f                Se4RecvArp
                0x00000000401625d7                Se4RecvEthPacket
                0x0000000040162650                Se4GenerateSubnetMask
                0x0000000040162665                Se4IsSubnetMask
                0x00000000401626a5                Se4IPToStr32
                0x00000000401626c0                Se6CmpIpCombineList
                0x0000000040162786                Se6CmpNdpWaitEntry
                0x00000000401627ea                Se6CmpNeighborEntry
                0x000000004016284e                Se6IsGuestNode
                0x0000000040162932                Se6FreeIpHeaderInfo
                0x0000000040162959                Se6IpChecksum
                0x00000000401629cf                Se6CalcChecksum
                0x0000000040162a70                Se6BuildIcmpEchoPacket
                0x0000000040162b49                Se6ParseIpPacketUDPv6
                0x0000000040162c74                Se6ParseIpPacketICMPv6
                0x0000000040162e9f                Se6BroadcastMacAddress
                0x0000000040162ea5                Se6SendEthPacket
                0x0000000040162f59                Se6SendIpFragmentNow
                0x0000000040162f85                Se6InitNeighborEntryList
                0x0000000040162f98                Se6FreeNeighborEntryList
                0x0000000040162fd3                Se6FlushNeighborEntryList
                0x000000004016306b                Se6SearchNeighborEntryList
                0x00000000401630ba                Se6AddNeighborEntryList
                0x0000000040163186                Se6SearchNdpWaitList
                0x00000000401631cd                Se6InitNdpWaitList
                0x00000000401631e0                Se6FreeNdpWaitList
                0x000000004016321b                Se6InsertIpWait
                0x000000004016329a                Se6InitIpWaitList
                0x00000000401632ad                Se6FreeIpWait
                0x00000000401632c9                Se6SendWaitingIpWait
                0x00000000401633d7                Se6FreeIpWaitList
                0x0000000040163412                Se6InitIpCombineList
                0x0000000040163425                Se6SearchIpCombineList
                0x00000000401634a8                Se6InitIpFragmentList
                0x00000000401634bb                Se6FreeIpFragmentList
                0x00000000401634f6                Se6FreeIpCombine
                0x0000000040163524                Se6FreeIpCombineList
                0x0000000040163561                Se6Free
                0x00000000401635a4                Se6Tick
                0x00000000401635c0                Se6FlushIpWaitList
                0x0000000040163674                Se6FlushIpCombineList
                0x0000000040163753                Se6InsertIpCombine
                0x0000000040163870                Se6GenerateEui64Address
                0x00000000401638c4                Se6GenerateMulticastMacAddress
                0x00000000401638f7                Se6GetAllNodeMulticastAddr
                0x0000000040163924                Se6GetAllRouterMulticastAddr
                0x0000000040163951                Se6GetIPAddrType
                0x0000000040163a9c                Se6CheckUnicastAddress
                0x0000000040163ae0                Se6And
                0x0000000040163b21                Se6GetPrefixAddress
                0x0000000040163b2f                Se6IsInSameNetwork
                0x0000000040163bb4                Se6ParseIpPacket
                0x0000000040163d9a                Se6Or
                0x0000000040163ddb                Se6Not
                0x0000000040163e10                Se6GetHostAddress
                0x0000000040163e3f                Se6IsNetworkPrefixAddress
                0x0000000040163e6b                Se6GenerateSubnetMask
                0x0000000040163ec7                Se6LocalSubnet
                0x0000000040163eda                Se6MacIpRelationKnown
                0x0000000040163fcf                Se6AddGuestNode
                0x0000000040164084                Se6GetSoliciationMulticastAddr
                0x0000000040164116                Se6SendIcmpNeighborSoliciation
                0x000000004016424f                Se6SendNeighborSoliciationDoProcess
                0x00000000401642da                Se6ProcessNdpWaitList
                0x0000000040164390                Se6SendNeighborSoliciation
                0x0000000040164405                Se6SendRawIp
                0x000000004016458a                Se6SendIpFragment
                0x00000000401645a6                Se6SendIp
                0x00000000401646fe                Se6SendIcmpEchoRequest
                0x00000000401647c5                Se6SendIcmpEchoResponse
                0x000000004016488c                Se6SendIcmp
                0x0000000040164993                Se6SendIcmpNeighborAdvertisement
                0x0000000040164ad5                Se6SendUdp
                0x0000000040164bf0                Se6SubnetMaskToInt
                0x0000000040164c52                Se6SendIcmpRouterAdvertisement
                0x0000000040164e0c                Se6MainProc
                0x0000000040164e59                Se6RecvIpComplete
                0x0000000040165180                Se6CombineIp
                0x0000000040165385                Se6RecvIp
                0x0000000040165594                Se6RecvEthPacket
                0x00000000401655f7                Se6IsSubnetMask
                0x000000004016565c                Se6Cmp
                0x000000004016568a                Se6IsZeroIP
                0x00000000401656a9                Se6IPToStr
                0x00000000401657f9                Se6IPItemStrToChars
                0x00000000401658ec                Se6CheckIPItemStr
                0x000000004016594d                Se6ZeroIP
                0x000000004016596c                Se6GenerateEui64GlobalAddress
                0x0000000040165a19                Se6GenerateEui64LocalAddress
                0x0000000040165a77                Se6Init
                0x0000000040165bee                Se6StrToIP
                0x0000000040165d4d                Se6CheckSubnetLength
                0x0000000040165d60                SeTimerEntryCompare
                0x0000000040165d9a                SeEthGetInfo
                0x0000000040165dc2                SeEthSendAdd
                0x0000000040165de8                SeEthParseEthernetPacket
                0x0000000040165ed8                SeEthGenRandMacAddress
                0x0000000040165f28                SeLoad
                0x0000000040165f94                SeSave
                0x0000000040165fb4                SeTick
                0x0000000040165fc7                SeGetCurrentCpuId
                0x0000000040165fda                SeNewLock
                0x0000000040166008                SeTimerNew
                0x0000000040166067                SeEthNew
                0x000000004016615f                SeLock
                0x000000004016619a                SeUnlock
                0x00000000401661c5                SeEthGetNextRecvPacket
                0x0000000040166202                SeTick64Internal
                0x000000004016624a                SeInitKernel
                0x0000000040166277                SeTick64
                0x0000000040166299                SeTimerAdjust
                0x000000004016630e                SeTimerCallback
                0x000000004016640e                SeTimerSet
                0x000000004016648e                SeEthDeleteOldSenderMacList
                0x0000000040166551                SeEthAddSenderMacList
                0x000000004016662a                SeEthSend
                0x00000000401666b8                SeEthSendAll
                0x0000000040166780                SeEthIsSenderMacAddressExistsInList
                0x0000000040166818                SeEthNicCallback
                0x0000000040166913                SeDeleteLock
                0x000000004016692e                SeFreeKernel
                0x0000000040166947                SeTimerFree
                0x00000000401669a0                SeEthFree
                0x0000000040166a47                SeLogArgs
                0x0000000040166a78                SeDebug
                0x0000000040166ac8                SeDebugBin
                0x0000000040166b21                SeFatal
                0x0000000040166b71                SeInfo
                0x0000000040166bc1                SeError
                0x0000000040166c11                SeWarning
                0x0000000040166c61                SeLog
                0x0000000040166cb0                SeB64CodeToChar
                0x0000000040166cf0                SeB64CharToCode
                0x0000000040166d2e                SeIsZero
                0x0000000040166d77                SeReplaceListPointer
                0x0000000040166dcc                SeIsInListStr
                0x0000000040166e2b                SeIsInList
                0x0000000040166e6e                SeCompareStr
                0x0000000040166e94                SeSetSortFlag
                0x0000000040166e9e                SeSetCmp
                0x0000000040166ebb                SeFastSwap
                0x0000000040166ee9                SeQSort
                0x0000000040167225                SeSort
                0x0000000040167250                SeBSearch
                0x0000000040167327                SeSearch
                0x000000004016738c                SeFifoSize
                0x000000004016739b                SeDumpBuf
                0x00000000401673c7                SeSeekBuf
                0x00000000401673f7                SeClearBuf
                0x000000004016740c                SeEndian16
                0x0000000040167433                SeSwap16
                0x0000000040167450                SeSwap32
                0x000000004016747e                SeEndian32
                0x0000000040167490                SeSwap64
                0x00000000401674ef                SeEndian64
                0x0000000040167502                SeMalloc
                0x0000000040167537                SeNewFifo
                0x000000004016756c                SeNewBuf
                0x00000000401675a1                SeReAlloc
                0x0000000040167609                SePush
                0x0000000040167654                SePop
                0x00000000401676b2                SeDeleteAll
                0x00000000401676dc                SeDelete
                0x0000000040167793                SeAdd
                0x00000000401677e5                SeInsert
                0x000000004016790d                SeInsertStr
                0x0000000040167953                SeClearFifo
                0x0000000040167983                SeAdjustBufSize
                0x00000000401679ab                SeMemSize
                0x00000000401679e2                SeFree
                0x0000000040167a14                SeFreeStack
                0x0000000040167a30                SeFreeList
                0x0000000040167a4c                SeFreeFifo
                0x0000000040167a67                SeFreeQueue
                0x0000000040167a83                SeFreeBufWithoutBuffer
                0x0000000040167a97                SeFreeBuf
                0x0000000040167ab2                SeIsLittleEndian
                0x0000000040167ac0                SeIsBigEndian
                0x0000000040167ace                SeCmp
                0x0000000040167b35                SeCmpBuf
                0x0000000040167b71                SeCmpEx
                0x0000000040167ba1                SeCopy
                0x0000000040167bc5                SeCopyToArray
                0x0000000040167be9                SeToArray
                0x0000000040167c24                SeWriteFifo
                0x0000000040167ca6                SeInsertQueue
                0x0000000040167cd9                SeReadFifo
                0x0000000040167db5                SeGetNext
                0x0000000040167dfd                SeGetNextInt
                0x0000000040167e27                SePeekFifo
                0x0000000040167e68                SePeekNext
                0x0000000040167ea8                SeWriteBuf
                0x0000000040167f07                SeReadDump
                0x0000000040167f6d                SeAddBufStr
                0x0000000040167f9f                SeWriteBufInt64
                0x0000000040167fe0                SeWriteBufInt
                0x000000004016801e                SeWriteBufStr
                0x0000000040168072                SeWriteBufBuf
                0x0000000040168091                SeWriteBufLine
                0x00000000401680dc                SeMemToBuf
                0x0000000040168128                SeCloneBuf
                0x0000000040168149                SeRandBuf
                0x0000000040168182                SeSwap
                0x00000000401681da                SeClone
                0x000000004016820e                SeInsertQueueInt
                0x000000004016823f                SeZero
                0x000000004016825f                SeReadBuf
                0x00000000401682e4                SeReadBufInt64
                0x0000000040168321                SeReadBufInt
                0x000000004016835a                SeReadBufStr
                0x000000004016840e                SeReadBufFromBuf
                0x0000000040168487                SeReadRemainBuf
                0x00000000401684b4                SeZeroMalloc
                0x00000000401684dd                SeB64Encode
                0x0000000040168699                SeB64Decode
                0x0000000040168895                SeNewStack
                0x00000000401688c3                SeNewQueue
                0x00000000401688ea                SeNewList
                0x0000000040168930                SeCloneList
                0x0000000040168980                SeBuildICMPv6OptionValue
                0x00000000401689f7                SeBuildICMPv6Options
                0x0000000040168aa4                SeParseICMPv6Options
                0x0000000040168b79                SeFreePacketList
                0x0000000040168bb4                SeFreePacketListWithoutBuffer
                0x0000000040168bef                SeGetNextHeaderFromQueue
                0x0000000040168c0e                SeBuildAndAddIPv6PacketOptionHeader
                0x0000000040168c92                SeBuildIPv6Packet
                0x0000000040168e54                SeBuildIPv6PacketWithFragment
                0x0000000040168ffe                SeParseIPv6ExtHeader
                0x00000000401690e2                SeParseIPv6Packet
                0x000000004016913e                SeParsePacketL3IPv6
                0x0000000040169172                SeParsePacketL3IPv4
                0x0000000040169218                SeParsePacketL3ARPv4
                0x000000004016923d                SeParsePacketL2
                0x00000000401692c6                SeFreePacket
                0x00000000401692da                SeParsePacket
                0x0000000040169360                SeSecCmpIkeSa
                0x0000000040169431                SeSecCalcP2Iv
                0x00000000401694ce                SeSecCalcP1Iv
                0x000000004016956b                SeSecCalcKEYMATFull
                0x0000000040169674                SeSecCalcKEYMAT
                0x0000000040169725                SeSecCalcKa
                0x00000000401697f3                SeSecCalcP1KeySet
                0x0000000040169a17                SeSecForceReconnect
                0x0000000040169a4c                SeSecLifeSeconds64bit
                0x0000000040169a67                SeSecGetIPsecSa
                0x0000000040169aad                SeSecNewIkeSa
                0x0000000040169b44                SeSecFreeP1KeySet
                0x0000000040169b85                SeSecGenIkeSaMessageId
                0x0000000040169bf6                SeSecGenIkeSaInitCookie
                0x0000000040169c67                SeSecInitSaList
                0x0000000040169c94                SeSecSearchIPsecSaBySpi
                0x0000000040169d24                SeSecSearchIkeSaBySpi
                0x0000000040169de5                SeSecSearchIkeSa
                0x0000000040169ea1                SeSecNewSpi
                0x0000000040169ebb                SeSecGenIPsecSASpi
                0x0000000040169f2c                SeSecStrToAuthMethod
                0x0000000040169f8a                SeSecTick
                0x0000000040169fa8                SeSecCheckIkeSaExpires
                0x000000004016a048                SeSecCheckIPsecSaExpires
                0x000000004016a0f0                SeSecSetTimerCallback
                0x000000004016a114                SeSecAddTimer
                0x000000004016a138                SeSecRecvMain6
                0x000000004016a374                SeSecNewIPsecSa
                0x000000004016a4c9                SeSecDoInterval
                0x000000004016a521                SeSecSetRecvUdpCallback
                0x000000004016a545                SeSecSetRecvEspCallback
                0x000000004016a569                SeSecSetRecvVirtualIpCallback
                0x000000004016a58d                SeSecSendUdp
                0x000000004016a5d4                SeSecSendMain1
                0x000000004016a9b5                SeSecSendMain3
                0x000000004016aab7                SeSecRecvMain2
                0x000000004016ab5f                SeSecSendMain5
                0x000000004016ae04                SeSecRecvMain4
                0x000000004016afed                SeSecSendIkeSaMsgInfo
                0x000000004016b23b                SeSecSendIkeSaMsgInfoSimple
                0x000000004016b28e                SeSecSendIkeSaDeleteMsg
                0x000000004016b313                SeSecSendIPsecSaDeleteMsg
                0x000000004016b382                SeSecFreeIPsecSa
                0x000000004016b3f2                SeSecProcessIkeSaMsgInfo
                0x000000004016b6e4                SeSecDeleteExpiredIPsecSa
                0x000000004016b78b                SeSecFreeIkeSa
                0x000000004016b935                SeSecDeleteExpiredIkeSa
                0x000000004016ba8c                SeSecFreeSaList
                0x000000004016bb09                SeSecFreeMain
                0x000000004016bb1d                SeSecFree
                0x000000004016bb3f                SeSecSendIkeSaMsgPhase2FinalHash
                0x000000004016bcce                SeSecProcessIkeSaMsgPhase2
                0x000000004016c105                SeSecSendIkeSaMsgPhase2
                0x000000004016c5c3                SeSecRecvAggr
                0x000000004016cdf6                SeSecProcessIkeSaMsgPhase1
                0x000000004016ce4a                SeSecProcessIkeSaMsg
                0x000000004016ce9d                SeSecUdpRecvCallback
                0x000000004016d152                SeSecSendAggr
                0x000000004016d74d                SeSecStartVpnConnect
                0x000000004016d777                SeSecProcessMain
                0x000000004016d858                SeSecInitMain
                0x000000004016d871                SeSecInit
                0x000000004016d986                SeSecTimerCallback
                0x000000004016d99d                SeSecSendEsp
                0x000000004016d9d9                SeSecVirtualIpRecvCallback
                0x000000004016dbdd                SeSecSendVirtualIp
                0x000000004016dc08                SeSecEspRecvCallback
                0x000000004016ddb0                SeMakeCharArray
                0x000000004016dde4                SeFreeToken
                0x000000004016de30                SeNullTokenList
                0x000000004016de57                SeDefaultTokenSplitChars
                0x000000004016de5d                Se4BitToHex
                0x000000004016de6d                SeHexTo4Bit
                0x000000004016dea1                SeStrCmp
                0x000000004016df38                SeStrnCmp
                0x000000004016dfef                SeToUpper
                0x000000004016dffc                SeStrCmpi
                0x000000004016e09f                SeStrnCmpi
                0x000000004016e173                SeToLower
                0x000000004016e180                SeStrCheckLen
                0x000000004016e1c2                SeStrCheckSize
                0x000000004016e1db                SeStrLen
                0x000000004016e209                SeReadNextLine
                0x000000004016e2bb                SeIsAllLowerStr
                0x000000004016e328                SeIsAllUpperStr
                0x000000004016e395                SeIsCharInStr
                0x000000004016e3f3                SeNormalizeCrlf
                0x000000004016e494                SeEndWith
                0x000000004016e4e7                SeTrimCrlf
                0x000000004016e529                SeHexToInt64
                0x000000004016e5b1                SeHexToInt
                0x000000004016e634                SeToInt
                0x000000004016e68b                SeToInt64
                0x000000004016e6eb                SeStrLower
                0x000000004016e71f                SeStrUpper
                0x000000004016e753                SeStrCat
                0x000000004016e7d5                SeStrCpy
                0x000000004016e887                SeStrToBin
                0x000000004016e988                SeStrToBinEx
                0x000000004016e9ed                SeStrToMac
                0x000000004016ea03                SeSearchStrEx
                0x000000004016eb3f                SeSearchStr
                0x000000004016eb52                SeSearchStri
                0x000000004016eb65                SeCalcReplaceStrEx
                0x000000004016ec09                SeReplaceStrEx
                0x000000004016ed60                SeReplaceStri
                0x000000004016ed74                SeReplaceStr
                0x000000004016ed88                SeCopyStr
                0x000000004016edc5                SeUniqueToken
                0x000000004016ef1a                SeParseTokenWithNullStr
                0x000000004016f06e                SeParseToken
                0x000000004016f20a                SeStartWith
                0x000000004016f291                SeTrimRight
                0x000000004016f385                SeTrimLeft
                0x000000004016f415                SeTrim
                0x000000004016f42d                SeTrimCopy
                0x000000004016f451                SeIsEmptyStr
                0x000000004016f48f                SeToHex64
                0x000000004016f526                SeToHex
                0x000000004016f5ba                SeToStr
                0x000000004016f659                SeToStr64
                0x000000004016f704                SeToStr3
                0x000000004016f834                SeStrSize
                0x000000004016f848                SeFormatEx
                0x000000004016fd44                SeFormatArgs
                0x000000004016fd89                SeFormat
                0x000000004016fdc7                SeMacToStr
                0x000000004016fe17                SeBinToStrEx
                0x000000004016feaa                SeBinToStr
                0x000000004016ff50                SeVpnRecvIpV4PacketCallback
                0x000000004016ffa4                SeVpnRecvIpV6PacketCallback
                0x000000004016fff8                SeVpnInitIpStack
                0x00000000401702cf                SeVpnFreeIpStack
                0x0000000040170362                SeVpnMainInit
                0x0000000040170460                SeVpnMainFree
                0x0000000040170477                SeVpnRecvEtherPacket
                0x00000000401704f2                SeVpnSendEtherPacket
                0x000000004017051b                SeVpnMainProcRecvEtherPacket
                0x00000000401705b5                SeVpnStatusChanged
                0x00000000401705c3                SeVpnMainProcess
                0x00000000401706c0                SeVpnMainHandler
                0x0000000040170700                SeVpnTimerCallback
                0x000000004017071c                SeVpnEthRecvCallback
                0x0000000040170738                SeVpnTick
                0x0000000040170748                SeVpnAddTimer
                0x0000000040170760                SeVpnDoInterval
                0x00000000401707b3                SeVpnFreeConfig
                0x00000000401707c7                SeVpnFree
                0x000000004017080b                SeVpnLoadConfig
                0x0000000040171bd1                SeVpnInit
                0x0000000040171ce0                SeVpn4ClientSetTimerCallback
                0x0000000040171cef                SeVpn4ClientSetRecvUdpCallback
                0x0000000040171cfe                SeVpn4ClientSetRecvEspCallback
                0x0000000040171d0d                SeVpn4ClientSetRecvVirtualIpCallback
                0x0000000040171d1c                SeVpn4ClientSendUdp
                0x0000000040171d93                SeVpn4ClientSendEsp
                0x0000000040171dfb                SeVpn4ClientSendVirtualIp
                0x0000000040171e2e                SeVpn4IPsecSendPing
                0x0000000040171f61                SeVpn4IPsecInputFromPhysical
                0x000000004017201e                SeVpn4IPsecInputFromVirtual
                0x0000000040172079                SeVpn4FreeIPsec
                0x0000000040172091                SeVpn4InitSecConfig
                0x000000004017223f                SeVpn4InitIPsec
                0x00000000401722ea                SeVpn4DoInterval
                0x0000000040172306                SeVpn4Tick
                0x0000000040172322                SeVpn4IPsecMainProc
                0x0000000040172394                SeVpn4MainProc
                0x00000000401723b3                SeVpn4ClientGetTick
                0x00000000401723cc                SeVpn4SetTimer
                0x00000000401723e3                SeVpn4ClientAddTimer
                0x00000000401723ff                SeVpn4DhcpSendResponse
                0x0000000040172506                SeVpn4DhcpOptionsToBuf
                0x00000000401725c1                SeVpn4NewDhcpOption
                0x0000000040172610                SeVpn4DhcpBuildDhcpOptionList
                0x00000000401727f9                SeVpn4DhcpSearchOption
                0x0000000040172830                SeVpn4DhcpFreeOptionList
                0x0000000040172875                SeVpn4DhcpParseOptionListMain
                0x0000000040172960                SeVpn4DhcpParseOptionList
                0x0000000040172a46                SeVpn4DhcpServer
                0x0000000040172cf5                SeVpn4RecvPacketPhysical
                0x0000000040172da4                SeVpn4RecvPacketVirtual
                0x0000000040172efe                SeVpn4Init
                0x0000000040172f65                SeVpn4Free
                0x0000000040172f90                SeVpn6ClientSetTimerCallback
                0x0000000040172f9f                SeVpn6ClientSetRecvUdpCallback
                0x0000000040172fae                SeVpn6ClientSetRecvEspCallback
                0x0000000040172fbd                SeVpn6ClientSetRecvVirtualIpCallback
                0x0000000040172fcc                SeVpn6ClientSendUdp
                0x0000000040173051                SeVpn6ClientSendEsp
                0x00000000401730c9                SeVpn6ClientSendVirtualIp
                0x00000000401730fc                SeVpn6IPsecSendPing
                0x00000000401732dd                SeVpn6UpdateGuestOsIpAddress
                0x000000004017338e                SeVpn6IPsecInputFromPhysical
                0x000000004017344b                SeVpn6IPsecInputFromVirtual
                0x0000000040173482                SeVpn6InitSecConfig
                0x000000004017364b                SeVpn6InitIPsec
                0x0000000040173700                SeVpn6FreeIPsec
                0x0000000040173718                SeVpn6DoInterval
                0x0000000040173734                SeVpn6Tick
                0x0000000040173750                SeVpn6IPsecMainProc
                0x00000000401737c7                SeVpn6MainProc
                0x00000000401737e6                SeVpn6ClientGetTick
                0x00000000401737ff                SeVpn6SetTimer
                0x0000000040173816                SeVpn6ClientAddTimer
                0x0000000040173832                SeVpn6RecvPacketPhysical
                0x00000000401738b4                SeVpn6RecvPacketVirtual
                0x00000000401739cc                SeVpn6Init
                0x0000000040173a44                SeVpn6Free
                0x0000000040173a67                crypt_sys_rsa_sign
                0x0000000040173dc3                msg_usb_bulk_read
                0x0000000040173e2d                msg_usb_bulk_write
                0x0000000040173e97                msg_usb_claim_interface
                0x0000000040173ee5                msg_usb_close
                0x0000000040173f40                msg_usb_control_msg
                0x0000000040173fc4                msg_usb_find_busses
                0x0000000040174005                msg_usb_find_devices
                0x0000000040174046                msg_usb_get_busses
                0x00000000401740bb                msg_usb_get_string_simple
                0x0000000040174120                msg_usb_init
                0x0000000040174138                msg_usb_open
                0x00000000401741b9                msg_usb_release_interface
                0x0000000040174207                msg_usb_reset
                0x000000004017424e                IDMan_StReadSetData
                0x0000000040174933                idman_user_init
                0x0000000040174980                IDMan_IPIdPassListMalloc
                0x0000000040174a56                IDMan_IPRetJudgment
                0x0000000040174ace                IDMan_IPInitializeReader
                0x0000000040174b02                IDMan_IPInitialize
                0x0000000040174bf8                IDMan_IPFinalize
                0x0000000040174c41                IDMan_IPFinalizeReader
                0x0000000040174c66                IDMan_getMemoryFree
                0x0000000040174caf                IDMan_PaddingParamChk
                0x0000000040174db2                IDMan_CmPadding
                0x0000000040174f28                IDMan_CmPadding2
                0x000000004017506b                IDMan_IPgetCertPKCS
                0x0000000040175719                IDMan_IPgetCertIdxPKCS
                0x0000000040175c4f                IDMan_IPCheckPKC
                0x0000000040175e6b                IDMan_CheckCardStatus
                0x0000000040175ea0                IDMan_IPgSParamChk
                0x0000000040175fd7                IDMan_IPgIdxSParamChk
                0x0000000040176018                IDMan_IPgetPrivateKey
                0x000000004017622a                IDMan_IPgetHash
                0x000000004017630a                IDMan_IPCrSignature
                0x0000000040176468                IDMan_generateSignature
                0x00000000401765a8                IDMan_generateSignatureByIndex
                0x00000000401766ce                IDMan_EncryptByIndex
                0x0000000040176810                IDMan_IPgCParamChk
                0x0000000040176907                IDMan_getCertificate
                0x0000000040176c44                IDMan_IPgCIndexParamChk
                0x0000000040176c76                IDMan_getCertificateByIndex
                0x0000000040177010                IDMan_getStaticPassword
                0x0000000040177360                IDMan_IPuAPKCS11ParamChk
                0x000000004017746c                IDMan_IPuAPKCS11IdxParamChk
                0x0000000040177495                IDMan_IPgetCertPkeyPKCSx
                0x000000004017797e                IDMan_IPgetCertPkeyIdxPKCSx
                0x0000000040177db7                IDMan_IPgetCertPkeyPKCSy
                0x0000000040177ef9                IDMan_IPCheckCrlPkcX
                0x0000000040178029                IDMan_IPgetMakeRandData
                0x0000000040178095                IDMan_IPMkRandHash
                0x000000004017813b                IDMan_IPgetPrivateKeyPKCSx
                0x0000000040178347                IDMan_IPSignatureVerify
                0x00000000401784c0                IDMan_userAuthPKCS11
                0x00000000401789ad                IDMan_userAuthPKCS11ByIndex
                0x0000000040178ea0                IDMan_IPvSParamChk
                0x000000004017903f                IDMan_IPvSIdxParamChk
                0x00000000401790c1                IDMan_IPMkPublicKeyObj
                0x000000004017920d                IDMan_IPCheckSignature
                0x00000000401793ca                IDMan_verifySignature
                0x00000000401795ca                IDMan_verifySignatureByIndex
                0x00000000401797b0                CardEstablishContext
                0x00000000401797cb                CardReleaseContext
                0x00000000401797ef                CardListReaders
                0x000000004017980a                CardConnect
                0x000000004017984b                CardDisconnect
                0x000000004017986b                CardStatus
                0x00000000401798c3                CardTransmit
                0x0000000040179902                SelectFileDF
                0x00000000401799cc                SelectFileEF
                0x0000000040179a91                Verify
                0x0000000040179b6f                InternalAuth
                0x0000000040179c7b                ReadBinary
                0x000000004017a1c0                UpdateBinary
                0x000000004017a2ba                GetICCardData
                0x000000004017a610                GetUlByTxt
                0x000000004017a64a                GetVerByTex
                0x000000004017a727                GetUlByByte
                0x000000004017a772                TransHex2Tex
                0x000000004017a7fc                TransTex2Hex
                0x000000004017a8ba                GetLength
                0x000000004017a91b                SetLength
                0x000000004017a97a                GetTlvByBuf
                0x000000004017ace5                GetDirDataByTlv
                0x000000004017ae18                GetOdfDataByTlv
                0x000000004017af8b                GetTokenDataByTlv
                0x000000004017b3c7                AddObjTblByTlv
                0x000000004017b9f5                AddCertDataByBuf
                0x000000004017baec                AddIdPassDataByBuf
                0x000000004017bec5                GetValueData
                0x000000004017c260                AddElem
                0x000000004017c2e9                SetElem
                0x000000004017c39d                GetElem
                0x000000004017c3d4                GetAttrValType
                0x000000004017c541                DestroyAttribute
                0x000000004017c57e                DestroyTlvData
                0x000000004017c59c                DestroyElem
                0x000000004017c615                DestroyList
                0x000000004017c653                DestroyTokenData
                0x000000004017c6a6                DestroySlotData
                0x000000004017c6d5                DestroySessionData
                0x000000004017c706                DelElem
                0x000000004017c770                C_GetFunctionList
                0x000000004017c77d                C_Initialize
                0x000000004017c8ee                C_Finalize
                0x000000004017c98d                C_GetInfo
                0x000000004017ca0f                C_GetSlotList
                0x000000004017d267                C_GetSlotInfo
                0x000000004017d34d                C_GetTokenInfo
                0x000000004017dbee                C_GetMechanismList
                0x000000004017dcb5                C_GetMechanismInfo
                0x000000004017dd68                C_OpenSession
                0x000000004017df22                C_CloseSession
                0x000000004017dfef                C_CloseAllSessions
                0x000000004017e100                C_GetSessionInfo
                0x000000004017e17a                C_Login
                0x000000004017e5f9                C_Logout
                0x000000004017e709                C_FindObjectsInit
                0x000000004017e96a                C_FindObjects
                0x000000004017eeb6                C_FindObjectsFinal
                0x000000004017ef2f                C_GetAttributeValue
                0x000000004017f274                C_SignInit
                0x000000004017f340                C_Sign
                0x000000004017f6ce                C_DigestInit
                0x000000004017f747                C_DigestUpdate
                0x000000004017f7c6                C_DigestFinal
                0x000000004017f90c                C_VerifyInit
                0x000000004017f9d8                C_Verify
                0x000000004017fb42                C_CreateObject
                0x000000004017fe01                C_DestroyObject
                0x000000004017febe                C_SetAttributeValue
                0x0000000040180adb                C_GetCardStatus
                0x0000000040180b70                IDMan_StFree
                0x0000000040180b84                IDMan_StMemcpy
                0x0000000040180ba8                IDMan_StMemset
                0x0000000040180bc4                IDMan_StMalloc
                0x0000000040180bfe                IDMan_StMemcmp
                0x0000000040180c4a                IDMan_StStrlen
                0x0000000040180c66                IDMan_StStrcat
                0x0000000040180ca0                IDMan_StStrchr
                0x0000000040180cd3                IDMan_StStrcpy
                0x0000000040180cfa                IDMan_StStrcmp
                0x0000000040180d39                StIsspace
                0x0000000040180d9a                StIsdigit
                0x0000000040180da7                IDMan_StAtoi
                0x0000000040180dfb                IDMan_StAtol
                0x0000000040180e59                IDMan_CmMkHash
                0x000000004018100e                IDMan_CmChgRSA
                0x00000000401811ad                IDMan_CmGetDN
                0x0000000040181430                IDMan_CmGetCertificateSign
                0x0000000040181632                IDMan_CmGetPublicKey
                0x00000000401817e3                IDMan_CmMakeRand
                0x000000004018187e                IDMan_CmCheckCRL
                0x0000000040181be0                IDMan_SCardEstablishContext
                0x0000000040181c00                IDMan_SCardReleaseContext
                0x0000000040181c0e                IDMan_SCardListReaders
                0x0000000040181c3c                IDMan_SCardConnect
                0x0000000040181c6a                IDMan_SCardDisconnect
                0x0000000040181c78                IDMan_SCardStatus
                0x0000000040181cf4                IDMan_SCardSizeLongToChar
                0x0000000040181d35                IDMan_SCardSetBinay
                0x0000000040182080                IDMan_SCardTransmit
                0x00000000401820f0                EHDestroyEventHandler
                0x0000000040182150                EHInitEventHandler
                0x0000000040182210                EHStatusHandler
                0x000000004018239f                HPSearchHotPluggables
                0x00000000401826e0                PHGetProtocol
                0x0000000040182b07                PHSetProtocol
                0x0000000040182b5e                RFAddReader
                0x0000000040182c75                RFRemoveReader
                0x0000000040182d33                RFReaderInfoById
                0x0000000040182d5f                RFCheckReaderEventState
                0x0000000040182d90                SCardEstablishContext
                0x0000000040182e78                SCardListReaders
                0x0000000040182f05                SCardConnect
                0x0000000040183194                SCardDisconnect
                0x000000004018334b                SCardBeginTransaction
                0x00000000401833a0                SCardEndTransaction
                0x000000004018357c                SCardStatus
                0x000000004018379b                SCardReleaseContext
                0x0000000040183862                SCardTransmit
                0x0000000040183aa0                SetATR
                0x0000000040183cda                GetIFSCData
                0x0000000040183d32                GetBWICWIData
                0x0000000040183dcc                IFDHCloseChannel
                0x0000000040183e48                IFDHGetCapabilities
                0x0000000040183e88                IFDHSetProtocolParameters
                0x00000000401845ba                IFDHPowerICC
                0x000000004018479a                IFDHTransmitToICC
                0x0000000040184a69                IFDHControl
                0x0000000040184b71                IFDHICCPresence
                0x0000000040184c11                IFDHCreateChannel
                0x0000000040184cc0                FindBaudRateTable
                0x0000000040184d02                ExchangePPSData
                0x00000000401853b1                InitLeaderCardProtocol
                0x00000000401854af                T1XfrBlockTPDU
                0x0000000040185ad9                T1NegociateIFSD
                0x0000000040185c12                CardStateConfirm
                0x0000000040185c43                GetCardStatus
                0x0000000040185d4f                PowerOn
                0x0000000040185eba                PowerOff
                0x000000004018600e                CardMechanical
                0x0000000040186120                TransmitPPS
                0x0000000040186261                TransmitCommand
                0x000000004018630b                ReceiveReply
                0x000000004018649c                ReadDataT0
                0x0000000040186548                BlockSendCardT1
                0x0000000040186760                T0XfrBlockCHAR
                0x0000000040186c76                T0XfrBlockTPDU
                0x0000000040186cf2                T1XfrBlockExtendedAPDU
                0x0000000040187035                OpenUSB
                0x00000000401873dc                WriteUSB
                0x00000000401873fe                ReadUSB
                0x000000004018744b                CloseUSB
                0x00000000401874b0                AES_set_encrypt_key
                0x00000000401878b3                AES_set_decrypt_key
                0x0000000040187ade                AES_encrypt
                0x0000000040187f81                AES_decrypt
                0x0000000040188410                BIO_set
                0x00000000401884ca                BIO_new
                0x000000004018853e                BIO_free
                0x00000000401885e9                BIO_vfree
                0x00000000401885f7                BIO_clear_flags
                0x00000000401885fd                BIO_test_flags
                0x0000000040188603                BIO_set_flags
                0x0000000040188607                BIO_get_callback
                0x000000004018860c                BIO_set_callback
                0x0000000040188611                BIO_set_callback_arg
                0x0000000040188616                BIO_get_callback_arg
                0x000000004018861b                BIO_method_name
                0x0000000040188623                BIO_method_type
                0x0000000040188629                BIO_read
                0x0000000040188712                BIO_write
                0x0000000040188806                BIO_puts
                0x00000000401888e2                BIO_gets
                0x00000000401889c5                BIO_indent
                0x0000000040188a0b                BIO_ctrl
                0x0000000040188ac1                BIO_int_ctrl
                0x0000000040188ad8                BIO_ptr_ctrl
                0x0000000040188b05                BIO_callback_ctrl
                0x0000000040188bc5                BIO_ctrl_pending
                0x0000000040188be2                BIO_ctrl_wpending
                0x0000000040188bff                BIO_push
                0x0000000040188c42                BIO_pop
                0x0000000040188ca9                BIO_get_retry_BIO
                0x0000000040188cd2                BIO_get_retry_reason
                0x0000000040188cd6                BIO_find_type
                0x0000000040188d1b                BIO_next
                0x0000000040188d2b                BIO_free_all
                0x0000000040188d5a                BIO_dup_chain
                0x0000000040188e46                BIO_copy_next_retry
                0x0000000040188e5a                BIO_get_ex_new_index
                0x0000000040188e7c                BIO_set_ex_data
                0x0000000040188e8e                BIO_get_ex_data
                0x0000000040188ea0                BIO_number_read
                0x0000000040188eb0                BIO_number_written
                0x0000000040188ffc                BN_set_params
                0x0000000040189088                BN_get_params
                0x00000000401890bb                BN_value_one
                0x00000000401890c1                BN_options
                0x000000004018910c                BN_num_bits_word
                0x0000000040189162                BN_num_bits
                0x0000000040189183                BN_clear_free
                0x00000000401891da                BN_free
                0x0000000040189216                BN_init
                0x000000004018922e                BN_new
                0x0000000040189299                bn_expand2
                0x00000000401892d9                BN_copy
                0x00000000401893b0                BN_dup
                0x0000000040189403                bn_dup_expand
                0x000000004018946e                BN_swap
                0x00000000401894cc                BN_clear
                0x00000000401894fc                BN_get_word
                0x000000004018951a                BN_set_word
                0x000000004018956d                BN_bin2bn
                0x000000004018969c                BN_bn2bin
                0x0000000040189704                BN_ucmp
                0x000000004018975b                BN_cmp
                0x000000004018980d                BN_set_bit
                0x00000000401898ba                BN_clear_bit
                0x000000004018993d                BN_is_bit_set
                0x000000004018997c                BN_mask_bits
                0x0000000040189a0b                BN_set_negative
                0x0000000040189a25                bn_cmp_words
                0x0000000040189a83                bn_cmp_part_words
                0x0000000040189b10                BN_bn2hex
                0x0000000040189bf4                BN_bn2dec
                0x0000000040189df2                BN_hex2bn
                0x0000000040189fcf                BN_dec2bn
                0x000000004018a173                BN_asc2bn
                0x000000004018a1da                BN_print
                0x000000004018a49a                BN_rand
                0x000000004018a4b7                BN_pseudo_rand
                0x000000004018a6a6                BN_bntest_rand
                0x000000004018a6c3                BN_rand_range
                0x000000004018a6dc                BN_pseudo_rand_range
                0x000000004018a700                BN_mod_word
                0x000000004018a755                BN_div_word
                0x000000004018a826                BN_sub_word
                0x000000004018a921                BN_add_word
                0x000000004018aa18                BN_mul_word
                0x000000004018ae93                BIO_s_mem
                0x000000004018ae99                BIO_new_mem_buf
                0x000000004018af10                BUF_MEM_new
                0x000000004018af6f                BUF_MEM_free
                0x000000004018afa1                BUF_MEM_grow
                0x000000004018b0b4                BUF_MEM_grow_clean
                0x000000004018b1e0                BUF_memdup
                0x000000004018b248                BUF_strlcpy
                0x000000004018b2ab                BUF_strndup
                0x000000004018b319                BUF_strdup
                0x000000004018b33a                BUF_strlcat
                0x000000004018b375                BUF_reverse
                0x000000004018b3c6                OpenSSL_add_all_ciphers
                0x000000004018b866                OpenSSL_add_all_digests
                0x000000004018b9d0                CRYPTO_get_new_lockid
                0x000000004018ba72                CRYPTO_num_locks
                0x000000004018ba78                CRYPTO_get_dynlock_create_callback
                0x000000004018ba80                CRYPTO_get_dynlock_lock_callback
                0x000000004018ba88                CRYPTO_get_dynlock_destroy_callback
                0x000000004018ba90                CRYPTO_set_dynlock_create_callback
                0x000000004018ba98                CRYPTO_set_dynlock_lock_callback
                0x000000004018baa0                CRYPTO_set_dynlock_destroy_callback
                0x000000004018baa8                CRYPTO_get_locking_callback
                0x000000004018bab0                CRYPTO_get_add_lock_callback
                0x000000004018bab8                CRYPTO_set_locking_callback
                0x000000004018bac0                CRYPTO_set_add_lock_callback
                0x000000004018bac8                CRYPTO_THREADID_set_numeric
                0x000000004018baee                CRYPTO_THREADID_set_pointer
                0x000000004018bb17                CRYPTO_THREADID_set_callback
                0x000000004018bb31                CRYPTO_THREADID_get_callback
                0x000000004018bb39                CRYPTO_THREADID_current
                0x000000004018bb74                CRYPTO_THREADID_cmp
                0x000000004018bb87                CRYPTO_THREADID_cpy
                0x000000004018bb9a                CRYPTO_THREADID_hash
                0x000000004018bb9f                CRYPTO_get_id_callback
                0x000000004018bba7                CRYPTO_set_id_callback
                0x000000004018bbaf                CRYPTO_thread_id
                0x000000004018bbcc                CRYPTO_get_lock_name
                0x000000004018bc14                OPENSSL_ia32cap_loc
                0x000000004018bc1a                OPENSSL_cpuid_setup
                0x000000004018bc1c                OPENSSL_showfatal
                0x000000004018bc71                OPENSSL_isservice
                0x000000004018bc77                OpenSSLDie
                0x000000004018bc9c                CRYPTO_lock
                0x000000004018bd10                CRYPTO_get_new_dynlockid
                0x000000004018bf28                CRYPTO_destroy_dynlockid
                0x000000004018c01f                CRYPTO_get_dynlock_value
                0x000000004018c0b1                CRYPTO_add_lock
                0x000000004018c10e                OPENSSL_stderr
                0x000000004018c114                CRYPTO_memcmp
                0x000000004018c143                DES_encrypt1
                0x000000004018c553                DES_encrypt2
                0x000000004018c866                DES_encrypt3
                0x000000004018c9b9                DES_decrypt3
                0x000000004018cb0f                DES_ncbc_encrypt
                0x000000004018d147                DES_ede3_cbc_encrypt
                0x000000004018db90                DH_generate_key
                0x000000004018dba3                DH_compute_key
                0x000000004018dbb6                DH_OpenSSL
                0x000000004018dbc0                DH_set_default_method
                0x000000004018dbc8                DH_get_default_method
                0x000000004018dbf6                DH_set_method
                0x000000004018dc35                DH_new_method
                0x000000004018dd57                DH_new
                0x000000004018dd6a                DH_free
                0x000000004018de3d                DH_up_ref
                0x000000004018de6d                DH_get_ex_new_index
                0x000000004018de8f                DH_set_ex_data
                0x000000004018dea1                DH_get_ex_data
                0x000000004018deb3                DH_size
                0x000000004018ebe6                EVP_aes_128_cbc
                0x000000004018ebec                EVP_aes_128_cfb128
                0x000000004018ebf2                EVP_aes_128_ofb
                0x000000004018ebf8                EVP_aes_128_ecb
                0x000000004018ebfe                EVP_aes_192_cbc
                0x000000004018ec04                EVP_aes_192_cfb128
                0x000000004018ec0a                EVP_aes_192_ofb
                0x000000004018ec10                EVP_aes_192_ecb
                0x000000004018ec16                EVP_aes_256_cbc
                0x000000004018ec1c                EVP_aes_256_cfb128
                0x000000004018ec22                EVP_aes_256_ofb
                0x000000004018ec28                EVP_aes_256_ecb
                0x000000004018ec2e                EVP_aes_128_cfb1
                0x000000004018ec34                EVP_aes_192_cfb1
                0x000000004018ec3a                EVP_aes_256_cfb1
                0x000000004018ec40                EVP_aes_128_cfb8
                0x000000004018ec46                EVP_aes_192_cfb8
                0x000000004018ec4c                EVP_aes_256_cfb8
                0x000000004018ef62                EVP_bf_cbc
                0x000000004018ef68                EVP_bf_cfb64
                0x000000004018ef6e                EVP_bf_ofb
                0x000000004018ef74                EVP_bf_ecb
                0x000000004018f28a                EVP_cast5_cbc
                0x000000004018f290                EVP_cast5_cfb64
                0x000000004018f296                EVP_cast5_ofb
                0x000000004018f29c                EVP_cast5_ecb
                0x000000004018f881                EVP_des_cbc
                0x000000004018f887                EVP_des_cfb64
                0x000000004018f88d                EVP_des_ofb
                0x000000004018f893                EVP_des_ecb
                0x000000004018f899                EVP_des_cfb1
                0x000000004018f89f                EVP_des_cfb8
                0x000000004018ff84                EVP_des_ede_cbc
                0x000000004018ff8a                EVP_des_ede_cfb64
                0x000000004018ff90                EVP_des_ede_ofb
                0x000000004018ff96                EVP_des_ede_ecb
                0x000000004018ff9c                EVP_des_ede3_cbc
                0x000000004018ffa2                EVP_des_ede3_cfb64
                0x000000004018ffa8                EVP_des_ede3_ofb
                0x000000004018ffae                EVP_des_ede3_ecb
                0x000000004018ffb4                EVP_des_ede3_cfb1
                0x000000004018ffba                EVP_des_ede3_cfb8
                0x000000004018ffc0                EVP_des_ede
                0x000000004018ffc6                EVP_des_ede3
                0x000000004019032a                EVP_idea_cbc
                0x0000000040190330                EVP_idea_cfb64
                0x0000000040190336                EVP_idea_ofb
                0x000000004019033c                EVP_idea_ecb
                0x0000000040190865                EVP_rc2_cbc
                0x000000004019086b                EVP_rc2_cfb64
                0x0000000040190871                EVP_rc2_ofb
                0x0000000040190877                EVP_rc2_ecb
                0x000000004019087d                EVP_rc2_64_cbc
                0x0000000040190883                EVP_rc2_40_cbc
                0x00000000401908d4                EVP_rc4
                0x00000000401908da                EVP_rc4_40
                0x0000000040190a50                EVP_desx_cbc
                0x0000000040190a56                DES_ecb3_encrypt
                0x0000000040190b21                DES_options
                0x0000000040190b7a                DES_ecb_encrypt
                0x00000000401912c2                ERR_get_implementation
                0x00000000401912d7                ERR_set_implementation
                0x0000000040191333                ERR_load_ERR_strings
                0x0000000040191463                ERR_load_strings
                0x0000000040191484                ERR_unload_strings
                0x00000000401914c5                ERR_free_strings
                0x00000000401914dd                ERR_get_string_table
                0x00000000401914f9                ERR_get_err_state_table
                0x0000000040191516                ERR_release_err_state_table
                0x000000004019152e                ERR_lib_error_string
                0x0000000040191568                ERR_func_error_string
                0x00000000401915a2                ERR_reason_error_string
                0x0000000040191601                ERR_error_string_n
                0x0000000040191754                ERR_error_string
                0x0000000040191776                ERR_remove_thread_state
                0x00000000401917b1                ERR_remove_state
                0x00000000401917c4                ERR_get_state
                0x00000000401918be                ERR_put_error
                0x00000000401919ad                ERR_clear_error
                0x0000000040191c50                ERR_get_error
                0x0000000040191c7e                ERR_get_error_line
                0x0000000040191ca8                ERR_get_error_line_data
                0x0000000040191ccc                ERR_peek_error
                0x0000000040191cfa                ERR_peek_error_line
                0x0000000040191d24                ERR_peek_error_line_data
                0x0000000040191d48                ERR_peek_last_error
                0x0000000040191d76                ERR_peek_last_error_line
                0x0000000040191da0                ERR_peek_last_error_line_data
                0x0000000040191dc4                ERR_get_next_error_library
                0x0000000040191ddc                ERR_set_error_data
                0x0000000040191e42                ERR_add_error_data
                0x0000000040191f6f                ERR_set_mark
                0x0000000040191f9f                ERR_pop_to_mark
                0x0000000040192060                ERR_load_crypto_strings
                0x0000000040192100                ASN1_TYPE_set_octetstring
                0x000000004019215c                ASN1_TYPE_get_octetstring
                0x00000000401921ab                ASN1_TYPE_set_int_octetstring
                0x00000000401922d5                ASN1_TYPE_get_int_octetstring
                0x00000000401924a0                EVP_CIPHER_CTX_init
                0x00000000401924b8                EVP_CIPHER_CTX_new
                0x00000000401924e2                EVP_EncryptUpdate
                0x0000000040192658                EVP_EncryptFinal_ex
                0x0000000040192721                EVP_EncryptFinal
                0x000000004019272f                EVP_DecryptUpdate
                0x000000004019283a                EVP_CipherUpdate
                0x000000004019285a                EVP_DecryptFinal_ex
                0x00000000401929dd                EVP_CipherFinal_ex
                0x00000000401929fa                EVP_DecryptFinal
                0x0000000040192a08                EVP_CipherFinal
                0x0000000040192a2a                EVP_CIPHER_CTX_cleanup
                0x0000000040192a81                EVP_CIPHER_CTX_free
                0x0000000040192a99                EVP_CIPHER_CTX_set_padding
                0x0000000040192ab5                EVP_CIPHER_CTX_ctrl
                0x0000000040192b48                EVP_CipherInit_ex
                0x0000000040192d6e                EVP_CipherInit
                0x0000000040192db1                EVP_EncryptInit
                0x0000000040192dc5                EVP_DecryptInit
                0x0000000040192dd9                EVP_EncryptInit_ex
                0x0000000040192ded                EVP_DecryptInit_ex
                0x0000000040192e01                EVP_CIPHER_CTX_set_key_length
                0x0000000040192e70                EVP_CIPHER_CTX_rand_key
                0x0000000040192ea9                EVP_CIPHER_CTX_copy
                0x0000000040192f89                ERR_load_EVP_strings
                0x0000000040192fd0                EVP_CIPHER_param_to_asn1
                0x0000000040192ff1                EVP_CIPHER_asn1_to_param
                0x0000000040193011                EVP_CIPHER_get_asn1_iv
                0x000000004019308b                EVP_CIPHER_set_asn1_iv
                0x00000000401930d6                EVP_CIPHER_type
                0x0000000040193219                EVP_CIPHER_block_size
                0x000000004019321d                EVP_CIPHER_CTX_block_size
                0x0000000040193224                EVP_Cipher
                0x0000000040193235                EVP_CIPHER_CTX_cipher
                0x0000000040193239                EVP_CIPHER_flags
                0x000000004019323e                EVP_CIPHER_CTX_flags
                0x0000000040193246                EVP_CIPHER_CTX_get_app_data
                0x000000004019324b                EVP_CIPHER_CTX_set_app_data
                0x0000000040193250                EVP_CIPHER_iv_length
                0x0000000040193254                EVP_CIPHER_CTX_iv_length
                0x000000004019325b                EVP_CIPHER_key_length
                0x000000004019325f                EVP_CIPHER_CTX_key_length
                0x0000000040193263                EVP_CIPHER_nid
                0x0000000040193266                EVP_CIPHER_CTX_nid
                0x000000004019326c                EVP_MD_block_size
                0x0000000040193270                EVP_MD_type
                0x0000000040193273                EVP_MD_pkey_type
                0x0000000040193277                EVP_MD_size
                0x00000000401932ad                EVP_MD_flags
                0x00000000401932b2                EVP_MD_CTX_md
                0x00000000401932c1                EVP_MD_CTX_set_flags
                0x00000000401932c9                EVP_MD_CTX_clear_flags
                0x00000000401932d3                EVP_MD_CTX_test_flags
                0x00000000401932d9                EVP_CIPHER_CTX_set_flags
                0x00000000401932e1                EVP_CIPHER_CTX_clear_flags
                0x00000000401932eb                EVP_CIPHER_CTX_test_flags
                0x00000000401936c2                CRYPTO_get_ex_data_implementation
                0x00000000401936e9                CRYPTO_set_ex_data_implementation
                0x0000000040193745                CRYPTO_ex_data_new_class
                0x0000000040193766                CRYPTO_cleanup_all_ex_data
                0x0000000040193788                CRYPTO_get_ex_new_index
                0x00000000401937e0                CRYPTO_new_ex_data
                0x0000000040193812                CRYPTO_dup_ex_data
                0x0000000040193844                CRYPTO_free_ex_data
                0x0000000040193876                CRYPTO_set_ex_data
                0x000000004019392d                CRYPTO_get_ex_data
                0x0000000040193e47                idea_encrypt
                0x0000000040194730                idea_cbc_encrypt
                0x0000000040194d60                idea_cfb64_encrypt
                0x0000000040194f82                idea_options
                0x0000000040194f88                idea_ecb_encrypt
                0x000000004019503d                idea_ofb64_encrypt
                0x0000000040195278                idea_set_encrypt_key
                0x00000000401953fe                idea_set_decrypt_key
                0x0000000040195553                lh_strhash
                0x00000000401955c5                lh_new
                0x000000004019571f                lh_free
                0x0000000040195778                lh_insert
                0x0000000040195900                lh_delete
                0x0000000040195a3d                lh_retrieve
                0x0000000040195a7c                lh_doall
                0x0000000040195acf                lh_doall_arg
                0x0000000040195b23                lh_num_items
                0x0000000040195b6f                EVP_dss
                0x0000000040195bb1                EVP_dss1
                0x0000000040195bf3                EVP_ecdsa
                0x0000000040195c35                EVP_md4
                0x0000000040195c77                EVP_md5
                0x0000000040195cb9                EVP_ripemd160
                0x0000000040195cfb                EVP_sha
                0x0000000040195dd9                EVP_sha1
                0x0000000040195ddf                EVP_sha224
                0x0000000040195de5                EVP_sha256
                0x0000000040195deb                EVP_sha384
                0x0000000040195df1                EVP_sha512
                0x0000000040195df7                MD4_Init
                0x0000000040195e2c                md4_block_data_order
                0x00000000401963dc                MD4_Update
                0x00000000401964e8                MD4_Transform
                0x00000000401964f4                MD4_Final
                0x00000000401965a9                MD5_Init
                0x00000000401965de                md5_block_data_order
                0x0000000040196ddd                MD5_Update
                0x0000000040196ee9                MD5_Transform
                0x0000000040196ef5                MD5_Final
                0x0000000040196faa                MD5
                0x000000004019704d                CRYPTO_set_mem_functions
                0x00000000401970be                CRYPTO_set_mem_ex_functions
                0x000000004019712f                CRYPTO_set_locked_mem_functions
                0x000000004019716a                CRYPTO_set_locked_mem_ex_functions
                0x00000000401971a5                CRYPTO_set_mem_debug_functions
                0x00000000401971da                CRYPTO_get_mem_functions
                0x000000004019722b                CRYPTO_get_mem_ex_functions
                0x0000000040197278                CRYPTO_get_locked_mem_functions
                0x00000000401972a9                CRYPTO_get_locked_mem_ex_functions
                0x00000000401972d8                CRYPTO_get_mem_debug_functions
                0x0000000040197325                CRYPTO_malloc_locked
                0x00000000401973d5                CRYPTO_free_locked
                0x000000004019740f                CRYPTO_malloc
                0x00000000401974bf                CRYPTO_strdup
                0x00000000401974f5                CRYPTO_realloc
                0x000000004019758b                CRYPTO_realloc_clean
                0x0000000040197666                CRYPTO_free
                0x00000000401976a0                CRYPTO_remalloc
                0x00000000401976c0                CRYPTO_set_mem_debug_options
                0x00000000401976d8                CRYPTO_get_mem_debug_options
                0x00000000401976f5                OPENSSL_cleanse
                0x0000000040197b21                CRYPTO_mem_ctrl
                0x0000000040197ca3                CRYPTO_is_mem_check_on
                0x0000000040197d18                CRYPTO_dbg_set_options
                0x0000000040197d20                CRYPTO_dbg_get_options
                0x0000000040197d28                CRYPTO_push_info_
                0x0000000040197df2                CRYPTO_pop_info
                0x0000000040197e27                CRYPTO_remove_all_info
                0x0000000040197e5d                CRYPTO_dbg_malloc
                0x0000000040197fe2                CRYPTO_dbg_free
                0x0000000040198055                CRYPTO_dbg_realloc
                0x00000000401980f1                CRYPTO_mem_leaks
                0x0000000040198211                CRYPTO_mem_leaks_cb
                0x00000000401982e5                EVP_add_cipher
                0x000000004019832d                EVP_add_digest
                0x00000000401983d6                EVP_get_cipherbyname
                0x00000000401983e9                EVP_get_digestbyname
                0x00000000401983fc                EVP_cleanup
                0x0000000040198445                EVP_CIPHER_do_all
                0x0000000040198469                EVP_CIPHER_do_all_sorted
                0x000000004019848d                EVP_MD_do_all
                0x00000000401984b1                EVP_MD_do_all_sorted
                0x00000000401985d6                OBJ_NAME_init
                0x0000000040198627                OBJ_NAME_new_index
                0x0000000040198786                OBJ_NAME_get
                0x0000000040198826                OBJ_NAME_add
                0x00000000401988fd                OBJ_NAME_remove
                0x00000000401989ac                OBJ_NAME_do_all
                0x00000000401989d9                OBJ_NAME_do_all_sorted
                0x0000000040198a7b                OBJ_NAME_cleanup
                0x0000000040198d2b                check_defer
                0x0000000040198d48                OBJ_cleanup
                0x0000000040198dbd                OBJ_new_nid
                0x0000000040198dcc                OBJ_add_object
                0x0000000040198f8b                OBJ_nid2obj
                0x000000004019904d                OBJ_nid2sn
                0x0000000040199112                OBJ_nid2ln
                0x00000000401991d8                OBJ_bsearch_ex_
                0x00000000401992f2                OBJ_bsearch_
                0x0000000040199306                OBJ_obj2nid
                0x0000000040199390                OBJ_obj2txt
                0x0000000040199717                OBJ_ln2nid
                0x0000000040199795                OBJ_sn2nid
                0x0000000040199813                OBJ_txt2obj
                0x0000000040199903                OBJ_txt2nid
                0x0000000040199931                OBJ_create
                0x0000000040199a16                OBJ_create_objects
                0x0000000040199b46                ERR_load_OBJ_strings
                0x0000000040199b80                OBJ_dup
                0x0000000040199d51                OBJ_cmp
                0x0000000040199d76                ERR_load_OCSP_strings
                0x0000000040199dae                DES_ede3_ofb64_encrypt
                0x0000000040199f9e                DES_ofb64_encrypt
                0x000000004019a297                EVP_PKEY_bits
                0x000000004019a2cd                EVP_PKEY_size
                0x000000004019a303                EVP_PKEY_save_parameters
                0x000000004019a330                EVP_PKEY_missing_parameters
                0x000000004019a35b                EVP_PKEY_copy_parameters
                0x000000004019a3e9                EVP_PKEY_cmp_parameters
                0x000000004019a423                EVP_PKEY_cmp
                0x000000004019a47f                EVP_PKEY_new
                0x000000004019a502                EVP_PKEY_set_type
                0x000000004019a51a                EVP_PKEY_set_type_str
                0x000000004019a532                EVP_PKEY_assign
                0x000000004019a55b                EVP_PKEY_get0
                0x000000004019a560                EVP_PKEY_set1_RSA
                0x000000004019a58d                EVP_PKEY_get1_RSA
                0x000000004019a5cb                EVP_PKEY_set1_DSA
                0x000000004019a5f8                EVP_PKEY_get1_DSA
                0x000000004019a636                EVP_PKEY_set1_EC_KEY
                0x000000004019a663                EVP_PKEY_get1_EC_KEY
                0x000000004019a6a4                EVP_PKEY_set1_DH
                0x000000004019a6d1                EVP_PKEY_get1_DH
                0x000000004019a70f                EVP_PKEY_type
                0x000000004019a732                EVP_PKEY_id
                0x000000004019a735                EVP_PKEY_base_id
                0x000000004019a745                EVP_PKEY_free
                0x000000004019a795                EVP_PKEY_print_public
                0x000000004019a7c1                EVP_PKEY_print_private
                0x000000004019a7ea                EVP_PKEY_print_params
                0x000000004019a81a                EVP_PKEY_get_default_digest_nid
                0x000000004019a856                PEM_read_bio_X509_REQ
                0x000000004019a87a                PEM_write_bio_X509_REQ
                0x000000004019a8bd                PEM_write_bio_X509_REQ_NEW
                0x000000004019a900                PEM_read_bio_X509_CRL
                0x000000004019a924                PEM_write_bio_X509_CRL
                0x000000004019a967                PEM_read_bio_PKCS7
                0x000000004019a98b                PEM_write_bio_PKCS7
                0x000000004019a9ce                PEM_read_bio_NETSCAPE_CERT_SEQUENCE
                0x000000004019a9f2                PEM_write_bio_NETSCAPE_CERT_SEQUENCE
                0x000000004019aa35                PEM_read_bio_RSAPrivateKey
                0x000000004019aa91                PEM_write_bio_RSAPrivateKey
                0x000000004019aac8                PEM_read_bio_RSAPublicKey
                0x000000004019aaec                PEM_write_bio_RSAPublicKey
                0x000000004019ab2f                PEM_read_bio_RSA_PUBKEY
                0x000000004019ab53                PEM_write_bio_RSA_PUBKEY
                0x000000004019ab96                PEM_read_bio_DSAPrivateKey
                0x000000004019abf2                PEM_write_bio_DSAPrivateKey
                0x000000004019ac29                PEM_read_bio_DSA_PUBKEY
                0x000000004019ac4d                PEM_write_bio_DSA_PUBKEY
                0x000000004019ac90                PEM_read_bio_DSAparams
                0x000000004019acb4                PEM_write_bio_DSAparams
                0x000000004019acf7                PEM_read_bio_ECPrivateKey
                0x000000004019ad53                PEM_read_bio_ECPKParameters
                0x000000004019ad77                PEM_write_bio_ECPKParameters
                0x000000004019adba                PEM_write_bio_ECPrivateKey
                0x000000004019adf1                PEM_read_bio_EC_PUBKEY
                0x000000004019ae15                PEM_write_bio_EC_PUBKEY
                0x000000004019ae58                PEM_read_bio_DHparams
                0x000000004019ae7c                PEM_write_bio_DHparams
                0x000000004019aebf                PEM_read_bio_PUBKEY
                0x000000004019aee3                PEM_write_bio_PUBKEY
                0x000000004019af26                ERR_load_PEM_strings
                0x000000004019af60                PEM_def_callback
                0x000000004019af8d                PEM_proc_type
                0x000000004019affa                PEM_dek_info
                0x000000004019b0bf                PEM_do_header
                0x000000004019b297                PEM_get_EVP_CIPHER_INFO
                0x000000004019b52b                PEM_write_bio
                0x000000004019b7a5                PEM_ASN1_write_bio
                0x000000004019bba4                PEM_read_bio
                0x000000004019c239                pem_check_suffix
                0x000000004019c299                PEM_bytes_read_bio
                0x000000004019c603                PEM_ASN1_read_bio
                0x000000004019c6a2                PEM_read_bio_PrivateKey
                0x000000004019c948                PEM_write_bio_PrivateKey
                0x000000004019c9fa                PEM_read_bio_Parameters
                0x000000004019cb25                PEM_write_bio_Parameters
                0x000000004019cba9                PEM_read_bio_X509
                0x000000004019cbcd                PEM_write_bio_X509
                0x000000004019cc10                ERR_load_PKCS12_strings
                0x000000004019cd21                d2i_PKCS7
                0x000000004019cd34                i2d_PKCS7
                0x000000004019cd47                PKCS7_new
                0x000000004019cd5a                PKCS7_free
                0x000000004019cd6d                i2d_PKCS7_NDEF
                0x000000004019cd80                PKCS7_dup
                0x000000004019cd96                d2i_PKCS7_SIGNED
                0x000000004019cda9                i2d_PKCS7_SIGNED
                0x000000004019cdbc                PKCS7_SIGNED_new
                0x000000004019cdcf                PKCS7_SIGNED_free
                0x000000004019cde2                d2i_PKCS7_SIGNER_INFO
                0x000000004019cdf5                i2d_PKCS7_SIGNER_INFO
                0x000000004019ce08                PKCS7_SIGNER_INFO_new
                0x000000004019ce1b                PKCS7_SIGNER_INFO_free
                0x000000004019ce2e                d2i_PKCS7_ISSUER_AND_SERIAL
                0x000000004019ce41                i2d_PKCS7_ISSUER_AND_SERIAL
                0x000000004019ce54                PKCS7_ISSUER_AND_SERIAL_new
                0x000000004019ce67                PKCS7_ISSUER_AND_SERIAL_free
                0x000000004019ce7a                d2i_PKCS7_ENVELOPE
                0x000000004019ce8d                i2d_PKCS7_ENVELOPE
                0x000000004019cea0                PKCS7_ENVELOPE_new
                0x000000004019ceb3                PKCS7_ENVELOPE_free
                0x000000004019cec6                d2i_PKCS7_RECIP_INFO
                0x000000004019ced9                i2d_PKCS7_RECIP_INFO
                0x000000004019ceec                PKCS7_RECIP_INFO_new
                0x000000004019ceff                PKCS7_RECIP_INFO_free
                0x000000004019cf12                d2i_PKCS7_ENC_CONTENT
                0x000000004019cf25                i2d_PKCS7_ENC_CONTENT
                0x000000004019cf38                PKCS7_ENC_CONTENT_new
                0x000000004019cf4b                PKCS7_ENC_CONTENT_free
                0x000000004019cf5e                d2i_PKCS7_SIGN_ENVELOPE
                0x000000004019cf71                i2d_PKCS7_SIGN_ENVELOPE
                0x000000004019cf84                PKCS7_SIGN_ENVELOPE_new
                0x000000004019cf97                PKCS7_SIGN_ENVELOPE_free
                0x000000004019cfaa                d2i_PKCS7_ENCRYPT
                0x000000004019cfbd                i2d_PKCS7_ENCRYPT
                0x000000004019cfd0                PKCS7_ENCRYPT_new
                0x000000004019cfe3                PKCS7_ENCRYPT_free
                0x000000004019cff6                d2i_PKCS7_DIGEST
                0x000000004019d009                i2d_PKCS7_DIGEST
                0x000000004019d01c                PKCS7_DIGEST_new
                0x000000004019d02f                PKCS7_DIGEST_free
                0x000000004019d042                PKCS7_print_ctx
                0x000000004019d5aa                PKCS7_dataInit
                0x000000004019dc18                PKCS7_dataDecode
                0x000000004019e42c                PKCS7_SIGNER_INFO_sign
                0x000000004019e603                PKCS7_get_issuer_and_serial
                0x000000004019e677                PKCS7_get_signed_attribute
                0x000000004019e689                PKCS7_dataFinal
                0x000000004019ebab                PKCS7_get_attribute
                0x000000004019ebbd                PKCS7_digest_from_attributes
                0x000000004019ebe0                PKCS7_signatureVerify
                0x000000004019eee4                PKCS7_dataVerify
                0x000000004019f053                PKCS7_set_signed_attributes
                0x000000004019f0d6                PKCS7_set_attributes
                0x000000004019f159                PKCS7_add_signed_attribute
                0x000000004019f16b                PKCS7_add_attribute
                0x000000004019f180                PKCS7_ctrl
                0x000000004019f2a5                PKCS7_set_content
                0x000000004019f333                PKCS7_set_type
                0x000000004019f521                PKCS7_content_new
                0x000000004019f572                PKCS7_set0_type_other
                0x000000004019f599                PKCS7_add_signer
                0x000000004019f6f8                PKCS7_add_certificate
                0x000000004019f7d3                PKCS7_add_crl
                0x000000004019f8ae                PKCS7_SIGNER_INFO_set
                0x000000004019f9fc                PKCS7_add_signature
                0x000000004019fabf                PKCS7_set_digest
                0x000000004019fb70                PKCS7_get_signer_info
                0x000000004019fbac                PKCS7_SIGNER_INFO_get0_algs
                0x000000004019fbd2                PKCS7_RECIP_INFO_get0_alg
                0x000000004019fbe0                PKCS7_add_recipient_info
                0x000000004019fc50                PKCS7_RECIP_INFO_set
                0x000000004019fdda                PKCS7_add_recipient
                0x000000004019fe2b                PKCS7_cert_from_signer_info
                0x000000004019fe6f                PKCS7_set_cipher
                0x000000004019ff0a                PKCS7_stream
                0x000000004019ffd2                ERR_load_PKCS7_strings
                0x00000000401a000a                ERR_load_RAND_strings
                0x00000000401a0050                DES_random_key
                0x00000000401a00a0                RAND_set_rand_method
                0x00000000401a00ad                RAND_get_rand_method
                0x00000000401a00db                RAND_cleanup
                0x00000000401a0104                RAND_seed
                0x00000000401a012f                RAND_add
                0x00000000401a015d                RAND_bytes
                0x00000000401a0197                RAND_pseudo_bytes
                0x00000000401a01d1                RAND_status
                0x00000000401a01fb                RC2_encrypt
                0x00000000401a033c                RC2_decrypt
                0x00000000401a0491                RC2_cbc_encrypt
                0x00000000401a0aae                RC2_ecb_encrypt
                0x00000000401a0b70                RC2_set_key
                0x00000000401a0c90                RC2_cfb64_encrypt
                0x00000000401a0ea6                RC2_ofb64_encrypt
                0x00000000401a1070                RC4
                0x00000000401a14b3                RC4_options
                0x00000000401a14b9                RC4_set_key
                0x00000000401a15b7                RIPEMD160_Init
                0x00000000401a15f3                ripemd160_block_data_order
                0x00000000401a2c3f                RIPEMD160_Update
                0x00000000401a2d4b                RIPEMD160_Transform
                0x00000000401a2d57                RIPEMD160_Final
                0x00000000401a2e4f                d2i_RSAPrivateKey
                0x00000000401a2e62                i2d_RSAPrivateKey
                0x00000000401a2e75                d2i_RSAPublicKey
                0x00000000401a2e88                i2d_RSAPublicKey
                0x00000000401a2e9b                RSAPublicKey_dup
                0x00000000401a2eb1                RSAPrivateKey_dup
                0x00000000401a2ec7                RSA_generate_key
                0x00000000401a2f87                ERR_load_RSA_strings
                0x00000000401a2fc0                RSA_generate_key_ex
                0x00000000401a3530                RSA_set_default_method
                0x00000000401a3538                RSA_get_default_method
                0x00000000401a3566                RSA_get_method
                0x00000000401a356b                RSA_set_method
                0x00000000401a35a4                RSA_new_method
                0x00000000401a36fc                RSA_new
                0x00000000401a370f                RSA_free
                0x00000000401a3812                RSA_up_ref
                0x00000000401a3842                RSA_get_ex_new_index
                0x00000000401a3864                RSA_set_ex_data
                0x00000000401a3876                RSA_get_ex_data
                0x00000000401a3888                RSA_size
                0x00000000401a38a6                RSA_public_encrypt
                0x00000000401a38b6                RSA_private_encrypt
                0x00000000401a38c6                RSA_private_decrypt
                0x00000000401a38d6                RSA_public_decrypt
                0x00000000401a38e6                RSA_flags
                0x00000000401a38f9                RSA_blinding_off
                0x00000000401a3926                RSA_setup_blinding
                0x00000000401a3bc6                RSA_blinding_on
                0x00000000401a3c16                RSA_memory_lock
                0x00000000401a3d60                RSA_sign
                0x00000000401a3fa7                int_rsa_verify
                0x00000000401a4330                RSA_verify
                0x00000000401a4370                DES_set_odd_parity
                0x00000000401a438f                DES_check_key_parity
                0x00000000401a43d0                DES_is_weak_key
                0x00000000401a4413                DES_set_key_unchecked
                0x00000000401a46af                DES_set_key_checked
                0x00000000401a46ee                DES_set_key
                0x00000000401a4711                DES_key_sched
                0x00000000401a471f                SHA1
                0x00000000401a5950                SHA1_Update
                0x00000000401a5a5c                SHA1_Transform
                0x00000000401a5a68                SHA1_Final
                0x00000000401a5b31                SHA1_Init
                0x00000000401a7233                SHA224_Init
                0x00000000401a728b                SHA256_Init
                0x00000000401a72e3                SHA256_Update
                0x00000000401a73ef                SHA224_Update
                0x00000000401a73fd                SHA256_Transform
                0x00000000401a7409                SHA256_Final
                0x00000000401a7535                SHA224
                0x00000000401a758c                SHA256
                0x00000000401a75e3                SHA224_Final
                0x00000000401a8c96                SHA384_Init
                0x00000000401a8d2f                SHA512_Init
                0x00000000401a8dc8                SHA512_Final
                0x00000000401a8ffd                SHA384_Final
                0x00000000401a900b                SHA512_Update
                0x00000000401a90f2                SHA384_Update
                0x00000000401a9100                SHA512_Transform
                0x00000000401a910c                SHA384
                0x00000000401a9171                SHA512
                0x00000000401aa26b                SHA_Update
                0x00000000401aa377                SHA_Transform
                0x00000000401aa383                SHA_Final
                0x00000000401aa44c                SHA_Init
                0x00000000401aa490                sk_set_cmp_func
                0x00000000401aa4a5                sk_new
                0x00000000401aa538                sk_new_null
                0x00000000401aa54b                sk_insert
                0x00000000401aa5ed                sk_delete
                0x00000000401aa645                sk_delete_ptr
                0x00000000401aa68c                sk_push
                0x00000000401aa69c                sk_unshift
                0x00000000401aa6af                sk_shift
                0x00000000401aa6d1                sk_pop
                0x00000000401aa6f2                sk_zero
                0x00000000401aa71a                sk_free
                0x00000000401aa73b                sk_dup
                0x00000000401aa7c8                sk_pop_free
                0x00000000401aa809                sk_num
                0x00000000401aa817                sk_value
                0x00000000401aa841                sk_set
                0x00000000401aa86e                sk_sort
                0x00000000401aa946                sk_find
                0x00000000401aa959                sk_find_ex
                0x00000000401aa96c                sk_is_sorted
                0x00000000401aae6b                ASN1_tag2bit
                0x00000000401aae82                asn1_ex_c2i
                0x00000000401ab6d8                ASN1_item_ex_d2i
                0x00000000401ac0e7                ASN1_item_d2i
                0x00000000401ac692                ASN1_template_d2i
                0x00000000401ac6e4                asn1_ex_i2c
                0x00000000401ac9de                ASN1_item_ex_i2d
                0x00000000401ace31                ASN1_item_ndef_i2d
                0x00000000401ace44                ASN1_item_i2d
                0x00000000401ad322                ASN1_template_i2d
                0x00000000401ad340                ASN1_primitive_free
                0x00000000401ad64c                ASN1_item_free
                0x00000000401ad669                ASN1_item_ex_free
                0x00000000401ad67c                ASN1_template_free
                0x00000000401ad7c3                ASN1_primitive_new
                0x00000000401adbdf                ASN1_item_ex_new
                0x00000000401adbf2                ASN1_item_new
                0x00000000401adc21                ASN1_template_new
                0x00000000401adcb8                d2i_ASN1_INTEGER
                0x00000000401adccb                i2d_ASN1_INTEGER
                0x00000000401adcde                ASN1_INTEGER_new
                0x00000000401adcf1                ASN1_INTEGER_free
                0x00000000401add04                d2i_ASN1_ENUMERATED
                0x00000000401add17                i2d_ASN1_ENUMERATED
                0x00000000401add2a                ASN1_ENUMERATED_new
                0x00000000401add3d                ASN1_ENUMERATED_free
                0x00000000401add50                d2i_ASN1_BIT_STRING
                0x00000000401add63                i2d_ASN1_BIT_STRING
                0x00000000401add76                ASN1_BIT_STRING_new
                0x00000000401add89                ASN1_BIT_STRING_free
                0x00000000401add9c                d2i_ASN1_OCTET_STRING
                0x00000000401addaf                i2d_ASN1_OCTET_STRING
                0x00000000401addc2                ASN1_OCTET_STRING_new
                0x00000000401addd5                ASN1_OCTET_STRING_free
                0x00000000401adde8                d2i_ASN1_NULL
                0x00000000401addfb                i2d_ASN1_NULL
                0x00000000401ade0e                ASN1_NULL_new
                0x00000000401ade21                ASN1_NULL_free
                0x00000000401ade34                d2i_ASN1_UTF8STRING
                0x00000000401ade47                i2d_ASN1_UTF8STRING
                0x00000000401ade5a                ASN1_UTF8STRING_new
                0x00000000401ade6d                ASN1_UTF8STRING_free
                0x00000000401ade80                d2i_ASN1_PRINTABLESTRING
                0x00000000401ade93                i2d_ASN1_PRINTABLESTRING
                0x00000000401adea6                ASN1_PRINTABLESTRING_new
                0x00000000401adeb9                ASN1_PRINTABLESTRING_free
                0x00000000401adecc                d2i_ASN1_T61STRING
                0x00000000401adedf                i2d_ASN1_T61STRING
                0x00000000401adef2                ASN1_T61STRING_new
                0x00000000401adf05                ASN1_T61STRING_free
                0x00000000401adf18                d2i_ASN1_IA5STRING
                0x00000000401adf2b                i2d_ASN1_IA5STRING
                0x00000000401adf3e                ASN1_IA5STRING_new
                0x00000000401adf51                ASN1_IA5STRING_free
                0x00000000401adf64                d2i_ASN1_GENERALSTRING
                0x00000000401adf77                i2d_ASN1_GENERALSTRING
                0x00000000401adf8a                ASN1_GENERALSTRING_new
                0x00000000401adf9d                ASN1_GENERALSTRING_free
                0x00000000401adfb0                d2i_ASN1_UTCTIME
                0x00000000401adfc3                i2d_ASN1_UTCTIME
                0x00000000401adfd6                ASN1_UTCTIME_new
                0x00000000401adfe9                ASN1_UTCTIME_free
                0x00000000401adffc                d2i_ASN1_GENERALIZEDTIME
                0x00000000401ae00f                i2d_ASN1_GENERALIZEDTIME
                0x00000000401ae022                ASN1_GENERALIZEDTIME_new
                0x00000000401ae035                ASN1_GENERALIZEDTIME_free
                0x00000000401ae048                d2i_ASN1_VISIBLESTRING
                0x00000000401ae05b                i2d_ASN1_VISIBLESTRING
                0x00000000401ae06e                ASN1_VISIBLESTRING_new
                0x00000000401ae081                ASN1_VISIBLESTRING_free
                0x00000000401ae094                d2i_ASN1_UNIVERSALSTRING
                0x00000000401ae0a7                i2d_ASN1_UNIVERSALSTRING
                0x00000000401ae0ba                ASN1_UNIVERSALSTRING_new
                0x00000000401ae0cd                ASN1_UNIVERSALSTRING_free
                0x00000000401ae0e0                d2i_ASN1_BMPSTRING
                0x00000000401ae0f3                i2d_ASN1_BMPSTRING
                0x00000000401ae106                ASN1_BMPSTRING_new
                0x00000000401ae119                ASN1_BMPSTRING_free
                0x00000000401ae12c                d2i_ASN1_TYPE
                0x00000000401ae13f                i2d_ASN1_TYPE
                0x00000000401ae152                ASN1_TYPE_new
                0x00000000401ae165                ASN1_TYPE_free
                0x00000000401ae178                d2i_ASN1_PRINTABLE
                0x00000000401ae18b                i2d_ASN1_PRINTABLE
                0x00000000401ae19e                ASN1_PRINTABLE_new
                0x00000000401ae1b1                ASN1_PRINTABLE_free
                0x00000000401ae1c4                d2i_DISPLAYTEXT
                0x00000000401ae1d7                i2d_DISPLAYTEXT
                0x00000000401ae1ea                DISPLAYTEXT_new
                0x00000000401ae1fd                DISPLAYTEXT_free
                0x00000000401ae210                d2i_DIRECTORYSTRING
                0x00000000401ae223                i2d_DIRECTORYSTRING
                0x00000000401ae236                DIRECTORYSTRING_new
                0x00000000401ae249                DIRECTORYSTRING_free
                0x00000000401ae25c                d2i_ASN1_SEQUENCE_ANY
                0x00000000401ae26f                i2d_ASN1_SEQUENCE_ANY
                0x00000000401ae282                d2i_ASN1_SET_ANY
                0x00000000401ae295                i2d_ASN1_SET_ANY
                0x00000000401ae2ec                asn1_get_choice_selector
                0x00000000401ae2f7                asn1_set_choice_selector
                0x00000000401ae306                asn1_do_lock
                0x00000000401ae368                asn1_enc_init
                0x00000000401ae38a                asn1_enc_free
                0x00000000401ae3bd                asn1_enc_save
                0x00000000401ae42d                asn1_enc_restore
                0x00000000401ae496                asn1_get_field_ptr
                0x00000000401ae4ab                asn1_do_adb
                0x00000000401ae567                ERR_load_UI_strings
                0x00000000401ae59f                ERR_load_X509V3_strings
                0x00000000401ae5e0                X509_issuer_and_serial_hash
                0x00000000401ae6b2                X509_CRL_match
                0x00000000401ae6cd                X509_get_issuer_name
                0x00000000401ae6d5                X509_get_subject_name
                0x00000000401ae6dd                X509_get_serialNumber
                0x00000000401ae6e5                X509_cmp
                0x00000000401ae731                X509_NAME_cmp
                0x00000000401ae7a9                X509_issuer_and_serial_cmp
                0x00000000401ae7dc                X509_issuer_name_cmp
                0x00000000401ae7f8                X509_subject_name_cmp
                0x00000000401ae814                X509_CRL_cmp
                0x00000000401ae830                X509_NAME_hash
                0x00000000401ae896                X509_issuer_name_hash
                0x00000000401ae8ab                X509_subject_name_hash
                0x00000000401ae8c0                X509_NAME_hash_old
                0x00000000401ae926                X509_issuer_name_hash_old
                0x00000000401ae93b                X509_subject_name_hash_old
                0x00000000401ae950                X509_find_by_issuer_and_serial
                0x00000000401ae9ce                X509_find_by_subject
                0x00000000401aea29                X509_get_pubkey
                0x00000000401aea56                X509_get0_pubkey_bitstr
                0x00000000401aea6d                X509_check_private_key
                0x00000000401aeb24                ERR_load_X509_strings
                0x00000000401aeb5c                X509_NAME_oneline
                0x00000000401af2ba                X509_time_adj_ex
                0x00000000401af30e                X509_time_adj
                0x00000000401af327                X509_cmp_time
                0x00000000401af7da                X509_cmp_current_time
                0x00000000401b03a0                X509_gmtime_adj
                0x00000000401b03b3                X509_get_pubkey_parameters
                0x00000000401b04d3                X509_verify_cert
                0x00000000401b0e5b                X509_STORE_CTX_get_ex_new_index
                0x00000000401b0e7d                X509_STORE_CTX_set_ex_data
                0x00000000401b0e92                X509_STORE_CTX_get_ex_data
                0x00000000401b0ea7                X509_STORE_CTX_get_error
                0x00000000401b0eae                X509_STORE_CTX_set_error
                0x00000000401b0eb5                X509_STORE_CTX_get_error_depth
                0x00000000401b0ebc                X509_STORE_CTX_get_current_cert
                0x00000000401b0ec4                X509_STORE_CTX_get_chain
                0x00000000401b0ecc                X509_STORE_CTX_get1_chain
                0x00000000401b0f3e                X509_STORE_CTX_get0_current_issuer
                0x00000000401b0f46                X509_STORE_CTX_get0_current_crl
                0x00000000401b0f4e                X509_STORE_CTX_get0_parent_ctx
                0x00000000401b0f56                X509_STORE_CTX_set_cert
                0x00000000401b0f5b                X509_STORE_CTX_set_chain
                0x00000000401b0f60                X509_STORE_CTX_set0_crls
                0x00000000401b0f65                X509_STORE_CTX_purpose_inherit
                0x00000000401b1076                X509_STORE_CTX_set_purpose
                0x00000000401b1090                X509_STORE_CTX_set_trust
                0x00000000401b10aa                X509_STORE_CTX_new
                0x00000000401b1104                X509_STORE_CTX_init
                0x00000000401b1455                X509_STORE_CTX_trusted_stack
                0x00000000401b1462                X509_STORE_CTX_cleanup
                0x00000000401b1506                X509_STORE_CTX_free
                0x00000000401b1519                X509_STORE_CTX_set_depth
                0x00000000401b152b                X509_STORE_CTX_set_flags
                0x00000000401b153d                X509_STORE_CTX_set_time
                0x00000000401b1551                X509_STORE_CTX_set_verify_cb
                0x00000000401b1556                X509_STORE_CTX_get0_policy_tree
                0x00000000401b155e                X509_STORE_CTX_get_explicit_policy
                0x00000000401b1565                X509_STORE_CTX_set_default
                0x00000000401b1589                X509_STORE_CTX_get0_param
                0x00000000401b158e                X509_STORE_CTX_set0_param
                0x00000000401b18a0                X509_VERIFY_PARAM_free
                0x00000000401b1928                X509_VERIFY_PARAM_new
                0x00000000401b19a3                X509_VERIFY_PARAM_set1_name
                0x00000000401b19d7                X509_VERIFY_PARAM_set_flags
                0x00000000401b19f8                X509_VERIFY_PARAM_clear_flags
                0x00000000401b1a05                X509_VERIFY_PARAM_get_flags
                0x00000000401b1a0a                X509_VERIFY_PARAM_set_purpose
                0x00000000401b1a1c                X509_VERIFY_PARAM_set_trust
                0x00000000401b1a2e                X509_VERIFY_PARAM_set_depth
                0x00000000401b1a32                X509_VERIFY_PARAM_set_time
                0x00000000401b1a3b                X509_VERIFY_PARAM_add0_policy
                0x00000000401b1a7e                X509_VERIFY_PARAM_set1_policies
                0x00000000401b1b4d                X509_VERIFY_PARAM_inherit
                0x00000000401b1c9e                X509_VERIFY_PARAM_set1
                0x00000000401b1cc6                X509_VERIFY_PARAM_get_depth
                0x00000000401b1cca                X509_VERIFY_PARAM_add0_table
                0x00000000401b1d4f                X509_VERIFY_PARAM_lookup
                0x00000000401b1da7                X509_VERIFY_PARAM_table_cleanup
                0x00000000401b1ddd                d2i_X509_ALGOR
                0x00000000401b1df0                i2d_X509_ALGOR
                0x00000000401b1e03                X509_ALGOR_new
                0x00000000401b1e16                X509_ALGOR_free
                0x00000000401b1e29                d2i_X509_ALGORS
                0x00000000401b1e3c                i2d_X509_ALGORS
                0x00000000401b1e4f                X509_ALGOR_dup
                0x00000000401b1e65                X509_ALGOR_set0
                0x00000000401b1f06                X509_ALGOR_get0
                0x00000000401b1f3c                X509_verify
                0x00000000401b1f5d                X509_REQ_verify
                0x00000000401b1f7e                NETSCAPE_SPKI_verify
                0x00000000401b1f9f                X509_sign
                0x00000000401b1fd5                X509_REQ_sign
                0x00000000401b1fff                X509_CRL_sign
                0x00000000401b2035                NETSCAPE_SPKI_sign
                0x00000000401b205f                d2i_X509_bio
                0x00000000401b2078                i2d_X509_bio
                0x00000000401b2091                d2i_X509_CRL_bio
                0x00000000401b20aa                i2d_X509_CRL_bio
                0x00000000401b20c3                d2i_PKCS7_bio
                0x00000000401b20dc                i2d_PKCS7_bio
                0x00000000401b20f5                d2i_X509_REQ_bio
                0x00000000401b210e                i2d_X509_REQ_bio
                0x00000000401b2127                d2i_RSAPrivateKey_bio
                0x00000000401b2140                i2d_RSAPrivateKey_bio
                0x00000000401b2159                d2i_RSAPublicKey_bio
                0x00000000401b2172                d2i_RSA_PUBKEY_bio
                0x00000000401b2190                i2d_RSAPublicKey_bio
                0x00000000401b21a9                i2d_RSA_PUBKEY_bio
                0x00000000401b21c2                d2i_DSAPrivateKey_bio
                0x00000000401b21e0                i2d_DSAPrivateKey_bio
                0x00000000401b21f9                d2i_DSA_PUBKEY_bio
                0x00000000401b2217                i2d_DSA_PUBKEY_bio
                0x00000000401b2230                d2i_EC_PUBKEY_bio
                0x00000000401b224e                i2d_EC_PUBKEY_bio
                0x00000000401b2267                d2i_ECPrivateKey_bio
                0x00000000401b2285                i2d_ECPrivateKey_bio
                0x00000000401b229e                X509_pubkey_digest
                0x00000000401b22dd                X509_digest
                0x00000000401b22f9                X509_CRL_digest
                0x00000000401b2315                X509_REQ_digest
                0x00000000401b2331                X509_NAME_digest
                0x00000000401b234d                PKCS7_ISSUER_AND_SERIAL_digest
                0x00000000401b2369                d2i_PKCS8_bio
                0x00000000401b2387                i2d_PKCS8_bio
                0x00000000401b23a0                d2i_PKCS8_PRIV_KEY_INFO_bio
                0x00000000401b23be                i2d_PKCS8_PRIV_KEY_INFO_bio
                0x00000000401b23d7                i2d_PKCS8PrivateKeyInfo_bio
                0x00000000401b2413                i2d_PrivateKey_bio
                0x00000000401b242c                d2i_PrivateKey_bio
                0x00000000401b244a                i2d_PUBKEY_bio
                0x00000000401b2463                d2i_PUBKEY_bio
                0x00000000401b2481                d2i_X509_ATTRIBUTE
                0x00000000401b2494                i2d_X509_ATTRIBUTE
                0x00000000401b24a7                X509_ATTRIBUTE_new
                0x00000000401b24ba                X509_ATTRIBUTE_free
                0x00000000401b24cd                X509_ATTRIBUTE_dup
                0x00000000401b24e3                X509_ATTRIBUTE_create
                0x00000000401b2c61                d2i_X509_REVOKED
                0x00000000401b2c74                i2d_X509_REVOKED
                0x00000000401b2c87                X509_REVOKED_new
                0x00000000401b2c9a                X509_REVOKED_free
                0x00000000401b2cad                d2i_X509_CRL_INFO
                0x00000000401b2cc0                i2d_X509_CRL_INFO
                0x00000000401b2cd3                X509_CRL_INFO_new
                0x00000000401b2ce6                X509_CRL_INFO_free
                0x00000000401b2cf9                d2i_X509_CRL
                0x00000000401b2d0c                i2d_X509_CRL
                0x00000000401b2d1f                X509_CRL_new
                0x00000000401b2d32                X509_CRL_free
                0x00000000401b2d45                X509_CRL_dup
                0x00000000401b2d5b                X509_CRL_add0_revoked
                0x00000000401b2dcb                X509_CRL_verify
                0x00000000401b2de9                X509_CRL_get0_by_serial
                0x00000000401b2e0d                X509_CRL_get0_by_cert
                0x00000000401b2e5a                X509_CRL_set_default_method
                0x00000000401b2e6e                X509_CRL_METHOD_new
                0x00000000401b2ebe                X509_CRL_METHOD_free
                0x00000000401b2ed2                X509_CRL_set_meth_data
                0x00000000401b2ed7                X509_CRL_get_meth_data
                0x00000000401b2edc                d2i_X509_EXTENSION
                0x00000000401b2eef                i2d_X509_EXTENSION
                0x00000000401b2f02                X509_EXTENSION_new
                0x00000000401b2f15                X509_EXTENSION_free
                0x00000000401b2f28                d2i_X509_EXTENSIONS
                0x00000000401b2f3b                i2d_X509_EXTENSIONS
                0x00000000401b2f4e                X509_EXTENSION_dup
                0x00000000401b3120                X509_NAME_ENTRY_free
                0x00000000401b32f8                d2i_X509_NAME_ENTRY
                0x00000000401b330b                i2d_X509_NAME_ENTRY
                0x00000000401b331e                X509_NAME_ENTRY_new
                0x00000000401b3804                X509_NAME_ENTRY_dup
                0x00000000401b381a                d2i_X509_NAME
                0x00000000401b382d                i2d_X509_NAME
                0x00000000401b3840                X509_NAME_new
                0x00000000401b3853                X509_NAME_free
                0x00000000401b3a04                X509_NAME_dup
                0x00000000401b3a1a                X509_NAME_set
                0x00000000401b3a95                d2i_X509_PUBKEY
                0x00000000401b3aa8                i2d_X509_PUBKEY
                0x00000000401b3abb                X509_PUBKEY_new
                0x00000000401b3ace                X509_PUBKEY_free
                0x00000000401b3ae1                X509_PUBKEY_set
                0x00000000401b3bbe                X509_PUBKEY_get
                0x00000000401b3d79                d2i_PUBKEY
                0x00000000401b3dd5                i2d_PUBKEY
                0x00000000401b3e22                d2i_RSA_PUBKEY
                0x00000000401b3ea3                i2d_RSA_PUBKEY
                0x00000000401b3f11                d2i_DSA_PUBKEY
                0x00000000401b3f92                i2d_DSA_PUBKEY
                0x00000000401b4000                d2i_EC_PUBKEY
                0x00000000401b4081                i2d_EC_PUBKEY
                0x00000000401b40ef                X509_PUBKEY_set0_param
                0x00000000401b4151                X509_PUBKEY_get0_param
                0x00000000401b41aa                d2i_X509_REQ_INFO
                0x00000000401b41bd                i2d_X509_REQ_INFO
                0x00000000401b41d0                X509_REQ_INFO_new
                0x00000000401b41e3                X509_REQ_INFO_free
                0x00000000401b41f6                d2i_X509_REQ
                0x00000000401b4209                i2d_X509_REQ
                0x00000000401b421c                X509_REQ_new
                0x00000000401b422f                X509_REQ_free
                0x00000000401b4242                X509_REQ_dup
                0x00000000401b4258                d2i_X509_SIG
                0x00000000401b426b                i2d_X509_SIG
                0x00000000401b427e                X509_SIG_new
                0x00000000401b4291                X509_SIG_free
                0x00000000401b42a4                d2i_NETSCAPE_SPKAC
                0x00000000401b42b7                i2d_NETSCAPE_SPKAC
                0x00000000401b42ca                NETSCAPE_SPKAC_new
                0x00000000401b42dd                NETSCAPE_SPKAC_free
                0x00000000401b42f0                d2i_NETSCAPE_SPKI
                0x00000000401b4303                i2d_NETSCAPE_SPKI
                0x00000000401b4316                NETSCAPE_SPKI_new
                0x00000000401b4329                NETSCAPE_SPKI_free
                0x00000000401b444b                d2i_X509_CINF
                0x00000000401b445e                i2d_X509_CINF
                0x00000000401b4471                X509_CINF_new
                0x00000000401b4484                X509_CINF_free
                0x00000000401b4497                d2i_X509
                0x00000000401b44aa                i2d_X509
                0x00000000401b44bd                X509_new
                0x00000000401b44d0                X509_free
                0x00000000401b44e3                X509_dup
                0x00000000401b44f9                X509_get_ex_new_index
                0x00000000401b451b                X509_set_ex_data
                0x00000000401b452d                X509_get_ex_data
                0x00000000401b453f                d2i_X509_AUX
                0x00000000401b45a3                i2d_X509_AUX
                0x00000000401b45d1                d2i_X509_CERT_AUX
                0x00000000401b45e4                i2d_X509_CERT_AUX
                0x00000000401b45f7                X509_CERT_AUX_new
                0x00000000401b463e                X509_CERT_AUX_free
                0x00000000401b4651                X509_alias_set1
                0x00000000401b46ef                X509_keyid_set1
                0x00000000401b478d                X509_alias_get0
                0x00000000401b47c7                X509_keyid_get0
                0x00000000401b4801                X509_add1_trust_object
                0x00000000401b4862                X509_add1_reject_object
                0x00000000401b48c6                X509_trust_clear
                0x00000000401b48f8                X509_reject_clear
                0x00000000401b492c                d2i_X509_CERT_PAIR
                0x00000000401b493f                i2d_X509_CERT_PAIR
                0x00000000401b4952                X509_CERT_PAIR_new
                0x00000000401b4965                X509_CERT_PAIR_free
                0x00000000401b4978                DES_xcbc_encrypt
                0x00000000401b50d7                ERR_load_TS_strings
                0x00000000401b510f                ERR_load_CMS_strings
                0x00000000401b518f                OBJ_find_sigid_algs
                0x00000000401b520e                OBJ_find_sigid_by_algs
                0x00000000401b5299                OBJ_add_sigid
                0x00000000401b5388                OBJ_sigid_free
                0x00000000401b540a                EVP_whirlpool
                0x00000000401b5426                EVP_PKEY_meth_find
                0x00000000401b5499                EVP_PKEY_meth_new
                0x00000000401b55b5                EVP_PKEY_meth_free
                0x00000000401b55cf                EVP_PKEY_meth_add0
                0x00000000401b5620                EVP_PKEY_CTX_free
                0x00000000401b579a                EVP_PKEY_CTX_new
                0x00000000401b57ad                EVP_PKEY_CTX_new_id
                0x00000000401b57c2                EVP_PKEY_CTX_dup
                0x00000000401b58bb                EVP_PKEY_CTX_ctrl
                0x00000000401b59ae                EVP_PKEY_CTX_ctrl_str
                0x00000000401b5a89                EVP_PKEY_CTX_get_operation
                0x00000000401b5a8d                EVP_PKEY_CTX_set0_keygen_info
                0x00000000401b5a95                EVP_PKEY_CTX_set_data
                0x00000000401b5a9a                EVP_PKEY_CTX_get_data
                0x00000000401b5a9f                EVP_PKEY_CTX_get0_pkey
                0x00000000401b5aa4                EVP_PKEY_CTX_get0_peerkey
                0x00000000401b5aa9                EVP_PKEY_CTX_set_app_data
                0x00000000401b5aae                EVP_PKEY_CTX_get_app_data
                0x00000000401b5ab3                EVP_PKEY_meth_set_init
                0x00000000401b5ab8                EVP_PKEY_meth_set_copy
                0x00000000401b5abd                EVP_PKEY_meth_set_cleanup
                0x00000000401b5ac2                EVP_PKEY_meth_set_paramgen
                0x00000000401b5acb                EVP_PKEY_meth_set_keygen
                0x00000000401b5ad4                EVP_PKEY_meth_set_sign
                0x00000000401b5add                EVP_PKEY_meth_set_verify
                0x00000000401b5ae6                EVP_PKEY_meth_set_verify_recover
                0x00000000401b5aef                EVP_PKEY_meth_set_signctx
                0x00000000401b5af8                EVP_PKEY_meth_set_verifyctx
                0x00000000401b5b07                EVP_PKEY_meth_set_encrypt
                0x00000000401b5b16                EVP_PKEY_meth_set_decrypt
                0x00000000401b5b25                EVP_PKEY_meth_set_derive
                0x00000000401b5b34                EVP_PKEY_meth_set_ctrl
                0x00000000401b5b66                EVP_PKEY_asn1_get_count
                0x00000000401b5b89                EVP_PKEY_asn1_get0
                0x00000000401b5bc1                EVP_PKEY_asn1_find
                0x00000000401b5c57                EVP_PKEY_asn1_find_str
                0x00000000401b5cdf                EVP_PKEY_asn1_add0
                0x00000000401b5d30                EVP_PKEY_asn1_get0_info
                0x00000000401b5d7f                EVP_PKEY_get0_asn1
                0x00000000401b5d84                EVP_PKEY_asn1_copy
                0x00000000401b5e47                EVP_PKEY_asn1_free
                0x00000000401b5e7c                EVP_PKEY_asn1_new
                0x00000000401b5fd4                EVP_PKEY_asn1_add_alias
                0x00000000401b6004                EVP_PKEY_asn1_set_public
                0x00000000401b6022                EVP_PKEY_asn1_set_private
                0x00000000401b602f                EVP_PKEY_asn1_set_param
                0x00000000401b6056                EVP_PKEY_asn1_set_free
                0x00000000401b605e                EVP_PKEY_asn1_set_ctrl
                0x00000000401b6070                EVP_PKEY_sign_init
                0x00000000401b60d6                EVP_PKEY_sign
                0x00000000401b61c1                EVP_PKEY_verify_init
                0x00000000401b6227                EVP_PKEY_verify
                0x00000000401b629a                EVP_PKEY_verify_recover_init
                0x00000000401b6300                EVP_PKEY_verify_recover
                0x00000000401b63eb                EVP_PKEY_encrypt_init
                0x00000000401b6457                EVP_PKEY_encrypt
                0x00000000401b654b                EVP_PKEY_decrypt_init
                0x00000000401b65b7                EVP_PKEY_decrypt
                0x00000000401b66ab                EVP_PKEY_derive_init
                0x00000000401b6717                EVP_PKEY_derive_set_peer
                0x00000000401b68f6                EVP_PKEY_derive
                0x00000000401b6b1f                ASN1_PCTX_new
                0x00000000401b6b8e                ASN1_PCTX_free
                0x00000000401b6b9c                ASN1_PCTX_get_flags
                0x00000000401b6ba0                ASN1_PCTX_set_flags
                0x00000000401b6ba4                ASN1_PCTX_get_nm_flags
                0x00000000401b6ba9                ASN1_PCTX_set_nm_flags
                0x00000000401b6bae                ASN1_PCTX_get_cert_flags
                0x00000000401b6bb3                ASN1_PCTX_set_cert_flags
                0x00000000401b6bb8                ASN1_PCTX_get_oid_flags
                0x00000000401b6bbd                ASN1_PCTX_set_oid_flags
                0x00000000401b6bc2                ASN1_PCTX_get_str_flags
                0x00000000401b6bc7                ASN1_PCTX_set_str_flags
                0x00000000401b6bcc                asn1_template_print_ctx
                0x00000000401b749d                ASN1_item_print
                0x00000000401b7677                EVP_DigestSignInit
                0x00000000401b768b                EVP_DigestVerifyInit
                0x00000000401b769f                EVP_DigestSignFinal
                0x00000000401b77c9                EVP_DigestVerifyFinal
                0x00000000401b7890                WHIRLPOOL_Init
                0x00000000401b78ad                WHIRLPOOL_BitUpdate
                0x00000000401b7ba7                WHIRLPOOL_Update
                0x00000000401b7c6f                WHIRLPOOL_Final
                0x00000000401b7d7b                WHIRLPOOL
                0x00000000401bae0c                DHparams_print
                0x00000000401bcc26                whirlpool_block
                0x00000000401bd8c7                EVP_PKEY_paramgen_init
                0x00000000401bd92d                EVP_PKEY_paramgen
                0x00000000401bd9e7                EVP_PKEY_keygen_init
                0x00000000401bda4d                EVP_PKEY_keygen
                0x00000000401bdb07                EVP_PKEY_CTX_set_cb
                0x00000000401bdb0c                EVP_PKEY_CTX_get_cb
                0x00000000401bdb11                evp_pkey_set_cb_translate
                0x00000000401bdb24                EVP_PKEY_CTX_get_keygen_info
                0x00000000401bdb4d                EVP_PKEY_new_mac_key
                0x00000000401bdcad                CMS_SignedData_init
                0x00000000401bdcc4                cms_set1_SignerIdentifier
                0x00000000401bddc5                cms_SignerIdentifier_get0_signer_id
                0x00000000401bde0f                cms_SignerIdentifier_cert_cmp
                0x00000000401bde8e                CMS_get0_SignerInfos
                0x00000000401bdeac                CMS_get0_signers
                0x00000000401bdf34                CMS_SignerInfo_set1_signer_cert
                0x00000000401bdf96                CMS_SignerInfo_get0_signer_id
                0x00000000401bdfa1                CMS_SignerInfo_cert_cmp
                0x00000000401bdfb3                CMS_set1_signers_certs
                0x00000000401be0dd                CMS_SignerInfo_get0_algs
                0x00000000401be10f                CMS_SignerInfo_sign
                0x00000000401be37d                cms_SignedData_final
                0x00000000401be57e                CMS_SignerInfo_verify
                0x00000000401be6a4                cms_SignedData_init_bio
                0x00000000401be84a                CMS_SignerInfo_verify_content
                0x00000000401bea11                CMS_add_smimecap
                0x00000000401bea67                CMS_add_simple_smimecap
                0x00000000401beb8a                CMS_add_standard_smimecap
                0x00000000401bec94                CMS_add1_signer
                0x00000000401bf1dd                CMS_get0_RecipientInfos
                0x00000000401bf1fb                CMS_RecipientInfo_type
                0x00000000401bf1fe                CMS_EnvelopedData_create
                0x00000000401bf2ed                CMS_add1_recipient_cert
                0x00000000401bf4df                CMS_RecipientInfo_ktri_get0_algs
                0x00000000401bf547                CMS_RecipientInfo_ktri_get0_signer_id
                0x00000000401bf588                CMS_RecipientInfo_ktri_cert_cmp
                0x00000000401bf5c9                CMS_RecipientInfo_set0_pkey
                0x00000000401bf60b                CMS_RecipientInfo_kekri_id_cmp
                0x00000000401bf66e                CMS_add0_recipient_key
                0x00000000401bf8e5                CMS_RecipientInfo_kekri_get0_id
                0x00000000401bf98f                CMS_RecipientInfo_set0_key
                0x00000000401bf9d5                CMS_RecipientInfo_decrypt
                0x00000000401bfda6                cms_EnvelopedData_init_bio
                0x00000000401c01c0                EC_KEY_print
                0x00000000401c021e                ECParameters_print
                0x00000000401c026f                ECPKParameters_print
                0x00000000401c0c8f                CMS_signed_get_attr_count
                0x00000000401c0ca1                CMS_signed_get_attr_by_NID
                0x00000000401c0cb3                CMS_signed_get_attr_by_OBJ
                0x00000000401c0cc5                CMS_signed_get_attr
                0x00000000401c0cd7                CMS_signed_delete_attr
                0x00000000401c0ce9                CMS_signed_add1_attr
                0x00000000401c0d04                CMS_signed_add1_attr_by_OBJ
                0x00000000401c0d1f                CMS_signed_add1_attr_by_NID
                0x00000000401c0d3a                CMS_signed_add1_attr_by_txt
                0x00000000401c0d55                CMS_signed_get0_data_by_OBJ
                0x00000000401c0d67                CMS_unsigned_get_attr_count
                0x00000000401c0d79                CMS_unsigned_get_attr_by_NID
                0x00000000401c0d8b                CMS_unsigned_get_attr_by_OBJ
                0x00000000401c0d9d                CMS_unsigned_get_attr
                0x00000000401c0daf                CMS_unsigned_delete_attr
                0x00000000401c0dc1                CMS_unsigned_add1_attr
                0x00000000401c0ddc                CMS_unsigned_add1_attr_by_OBJ
                0x00000000401c0df7                CMS_unsigned_add1_attr_by_NID
                0x00000000401c0e12                CMS_unsigned_add1_attr_by_txt
                0x00000000401c0e2d                CMS_unsigned_get0_data_by_OBJ
                0x00000000401c0f83                d2i_CMS_ContentInfo
                0x00000000401c0f96                i2d_CMS_ContentInfo
                0x00000000401c0fa9                CMS_ContentInfo_new
                0x00000000401c0fbc                CMS_ContentInfo_free
                0x00000000401c0fcf                CMS_ContentInfo_print_ctx
                0x00000000401c0fe5                CMS_get0_type
                0x00000000401c0fe9                CMS_get0_content
                0x00000000401c10b7                cms_content_bio
                0x00000000401c1109                CMS_dataInit
                0x00000000401c11ef                CMS_dataFinal
                0x00000000401c1350                CMS_get0_eContentType
                0x00000000401c136d                CMS_set1_eContentType
                0x00000000401c13c0                CMS_is_detached
                0x00000000401c13e4                CMS_set_detached
                0x00000000401c1470                cms_Data_create
                0x00000000401c149d                cms_DigestAlgorithm_set
                0x00000000401c14e1                cms_DigestAlgorithm_init_bio
                0x00000000401c15d5                cms_DigestAlgorithm_find_ctx
                0x00000000401c16ac                CMS_add0_CertificateChoices
                0x00000000401c1725                CMS_add0_cert
                0x00000000401c17d4                CMS_add1_cert
                0x00000000401c180f                CMS_add0_RevocationInfoChoice
                0x00000000401c1888                CMS_add0_crl
                0x00000000401c18ae                CMS_add1_crl
                0x00000000401c18e9                CMS_get1_certs
                0x00000000401c19a8                CMS_get1_crls
                0x00000000401c1b8b                cms_EncryptedContent_init_bio
                0x00000000401c204a                cms_EncryptedContent_init
                0x00000000401c20c0                CMS_EncryptedData_set1_key
                0x00000000401c21b5                cms_EncryptedData_init_bio
                0x00000000401c21e0                AES_wrap_key
                0x00000000401c230f                AES_unwrap_key
                0x00000000401c2471                cms_DigestedData_create
                0x00000000401c24f8                cms_DigestedData_init_bio
                0x00000000401c250e                cms_DigestedData_do_final
                0x00000000401c2609                CMS_stream
                0x00000000401c2688                d2i_CMS_bio
                0x00000000401c26a1                i2d_CMS_bio
                0x00000000401c26ba                PEM_read_bio_CMS
                0x00000000401c26de                PEM_write_bio_CMS
                0x00000000401c2721                BIO_new_CMS
                0x00000000401c2734                i2d_CMS_bio_stream
                0x00000000401c2748                PEM_write_bio_CMS_stream
                0x00000000401c2762                SMIME_write_CMS
                0x00000000401c27d7                SMIME_read_CMS
                0x00000000401c3072                SMIME_read_ASN1
                0x00000000401c3498                SMIME_crlf_copy
                0x00000000401c35d4                i2d_ASN1_bio_stream
                0x00000000401c373d                PEM_write_bio_ASN1_stream
                0x00000000401c37ad                SMIME_write_ASN1
                0x00000000401c3e30                SMIME_text
                0x00000000401c412f                BIO_new_NDEF
                0x00000000401c4885                BIO_f_asn1
                0x00000000401c488b                BIO_asn1_set_prefix
                0x00000000401c48af                BIO_asn1_get_prefix
                0x00000000401c48e8                BIO_asn1_set_suffix
                0x00000000401c490c                BIO_asn1_get_suffix
                0x00000000401c4950                chelp_snprintf
                0x00000000401c4995                chelp_sprintf
                0x00000000401c49e5                chelp_print
                0x00000000401c4a00                chelp_printf
                0x00000000401c4a90                chelp_mod_64_32_32
                0x00000000401c4aa0                chelp_div_64_32_32
                0x00000000401c4aae                chelp_div_64_32_64
                0x00000000401c4abc                chelp_mul_64_64_64
                0x00000000401c4ac4                BIO_printf
                0x00000000401c4b0a                BIO_snprintf
                0x00000000401c4b48                chelp_abort
                0x00000000401c4b5b                RAND_poll
                0x00000000401c4b7d                InitCryptoLibrary
                0x00000000401c4bf0                chelp_malloc
                0x00000000401c4c0a                chelp_realloc
                0x00000000401c4c31                chelp_free
                0x00000000401c4c45                chelp_swap
                0x00000000401c4c73                chelp_qsort
                0x00000000401c4fad                chelp_bsearch
                0x00000000401c5084                chelp_memchr
                0x00000000401c50c1                chelp_memmove
                0x00000000401c513c                chelp_memcmp
                0x00000000401c51a3                chelp_memcpy
                0x00000000401c51cc                chelp_memset
                0x00000000401c5200                chelp_isupper
                0x00000000401c520e                chelp_islower
                0x00000000401c521c                chelp_toupper
                0x00000000401c5223                chelp_tolower
                0x00000000401c522a                chelp_isspace
                0x00000000401c5242                chelp_isdigit
                0x00000000401c5250                chelp_isxdigit
                0x00000000401c526f                chelp_isalpha
                0x00000000401c5280                chelp_isalnum
                0x00000000401c529c                chelp_strtoul_ex
                0x00000000401c5486                chelp_strtol
                0x00000000401c5492                chelp_strtoul
                0x00000000401c549e                chelp_strcpy
                0x00000000401c54c8                chelp_strncpy
                0x00000000401c5534                chelp_strcat
                0x00000000401c5573                chelp_strcmp
                0x00000000401c55d0                chelp_strncmp
                0x00000000401c5715                chelp_stricmp
                0x00000000401c5750                chelp_strchr
                0x00000000401c5786                chelp_strrchr
                0x00000000401c57b2                chelp_strlen
                0x00000000401c57e1                chelp_strncasecmp
                0x00000000401c5832                decryptcfg
                0x00000000401c58b0                ASN1_BIT_STRING_set
                0x00000000401c58be                i2c_ASN1_BIT_STRING
                0x00000000401c59a5                c2i_ASN1_BIT_STRING
                0x00000000401c5b11                ASN1_BIT_STRING_set_bit
                0x00000000401c5c71                ASN1_BIT_STRING_get_bit
                0x00000000401c5cc1                ASN1_BIT_STRING_check
                0x00000000401c5d20                d2i_ASN1_type_bytes
                0x00000000401c5ecc                i2d_ASN1_bytes
                0x00000000401c5f6e                d2i_ASN1_bytes
                0x00000000401c666c                ASN1_d2i_bio
                0x00000000401c66cd                ASN1_item_d2i_bio
                0x00000000401c6734                ASN1_digest
                0x00000000401c67e7                ASN1_item_digest
                0x00000000401c6857                ASN1_dup
                0x00000000401c6900                ASN1_item_dup
                0x00000000401c698a                ASN1_ENUMERATED_set
                0x00000000401c6aa0                ASN1_ENUMERATED_get
                0x00000000401c6b22                BN_to_ASN1_ENUMERATED
                0x00000000401c6c11                ASN1_ENUMERATED_to_BN
                0x00000000401c6c80                ASN1_GENERALIZEDTIME_check
                0x00000000401c6ee9                ASN1_GENERALIZEDTIME_set_string
                0x00000000401c6f52                ASN1_GENERALIZEDTIME_adj
                0x00000000401c7097                ASN1_GENERALIZEDTIME_set
                0x00000000401c70b0                ASN1_i2d_bio
                0x00000000401c7166                ASN1_item_i2d_bio
                0x00000000401c7210                ASN1_INTEGER_dup
                0x00000000401c721e                ASN1_INTEGER_cmp
                0x00000000401c7251                i2c_ASN1_INTEGER
                0x00000000401c73d3                c2i_ASN1_INTEGER
                0x00000000401c75ab                d2i_ASN1_UINTEGER
                0x00000000401c7727                ASN1_INTEGER_set
                0x00000000401c783d                ASN1_INTEGER_get
                0x00000000401c78c2                BN_to_ASN1_INTEGER
                0x00000000401c79c7                ASN1_INTEGER_to_BN
                0x00000000401c7a30                i2d_ASN1_OBJECT
                0x00000000401c7ac0                a2d_ASN1_OBJECT
                0x00000000401c7fb7                i2t_ASN1_OBJECT
                0x00000000401c7fca                i2a_ASN1_OBJECT
                0x00000000401c808f                ASN1_OBJECT_new
                0x00000000401c8103                ASN1_OBJECT_free
                0x00000000401c816f                c2i_ASN1_OBJECT
                0x00000000401c830f                d2i_ASN1_OBJECT
                0x00000000401c839d                ASN1_OBJECT_create
                0x00000000401c83cf                ASN1_OCTET_STRING_dup
                0x00000000401c83dd                ASN1_OCTET_STRING_cmp
                0x00000000401c83eb                ASN1_OCTET_STRING_set
                0x00000000401c8400                ASN1_sign
                0x00000000401c869c                ASN1_item_sign
                0x00000000401c90a1                X509_NAME_print_ex
                0x00000000401c94dd                ASN1_STRING_print_ex
                0x00000000401c94f6                ASN1_STRING_to_UTF8
                0x00000000401c9580                d2i_ASN1_TIME
                0x00000000401c9593                i2d_ASN1_TIME
                0x00000000401c95a6                ASN1_TIME_new
                0x00000000401c95b9                ASN1_TIME_free
                0x00000000401c95cc                ASN1_TIME_adj
                0x00000000401c967a                ASN1_TIME_set
                0x00000000401c9692                ASN1_TIME_check
                0x00000000401c96b9                ASN1_TIME_to_generalizedtime
                0x00000000401c97c3                ASN1_TIME_set_string
                0x00000000401c9840                ASN1_TYPE_get
                0x00000000401c9855                ASN1_TYPE_set
                0x00000000401c98ac                ASN1_TYPE_set1
                0x00000000401c992b                ASN1_TYPE_cmp
                0x00000000401c9980                ASN1_UTCTIME_check
                0x00000000401c9b92                ASN1_UTCTIME_set_string
                0x00000000401c9bfb                ASN1_UTCTIME_adj
                0x00000000401c9d6b                ASN1_UTCTIME_set
                0x00000000401c9d83                ASN1_UTCTIME_cmp_time_t
                0x00000000401c9f10                UTF8_getc
                0x00000000401ca261                UTF8_putc
                0x00000000401ca4b0                ASN1_verify
                0x00000000401ca60f                ASN1_item_verify
                0x00000000401ca826                AES_cbc_encrypt
                0x00000000401ca84c                AES_cfb128_encrypt
                0x00000000401ca86a                AES_cfb1_encrypt
                0x00000000401ca888                AES_cfb8_encrypt
                0x00000000401ca8b0                AES_ecb_encrypt
                0x00000000401ca8ca                AES_ofb128_encrypt
                0x00000000401ca8e0                ERR_load_ASN1_strings
                0x00000000401ca9a9                ASN1_check_infinite_end
                0x00000000401ca9b0                ASN1_const_check_infinite_end
                0x00000000401ca9b7                ASN1_get_object
                0x00000000401cab59                ASN1_put_object
                0x00000000401cac7f                ASN1_put_eoc
                0x00000000401cac96                ASN1_object_size
                0x00000000401cacc5                asn1_Finish
                0x00000000401caccc                asn1_const_Finish
                0x00000000401cacd3                asn1_GetSequence
                0x00000000401cad61                ASN1_STRING_set
                0x00000000401cae44                ASN1_STRING_copy
                0x00000000401cae83                ASN1_STRING_set0
                0x00000000401caea8                ASN1_STRING_type_new
                0x00000000401caf05                ASN1_STRING_new
                0x00000000401caf18                ASN1_STRING_free
                0x00000000401caf3f                ASN1_STRING_dup
                0x00000000401caf91                ASN1_STRING_cmp
                0x00000000401cafc9                asn1_add_error
                0x00000000401cb030                ASN1_STRING_length
                0x00000000401cb033                ASN1_STRING_length_set
                0x00000000401cb036                ASN1_STRING_type
                0x00000000401cb03a                ASN1_STRING_data
                0x00000000401cb040                ASN1_tag2str
                0x00000000401cbc62                ASN1_parse
                0x00000000401cbc8f                ASN1_parse_dump
                0x00000000401cbcd2                BIO_dump_indent_cb
                0x00000000401cc06b                BIO_dump_cb
                0x00000000401cc07f                BIO_dump
                0x00000000401cc09a                BIO_dump_indent
                0x00000000401cca43                BIO_f_buffer
                0x00000000401cca50                BF_cfb64_encrypt
                0x00000000401ccc3a                BF_options
                0x00000000401ccc40                BF_ecb_encrypt
                0x00000000401cccf0                BF_encrypt
                0x00000000401cd0e9                BF_decrypt
                0x00000000401cd4e2                BF_cbc_encrypt
                0x00000000401cda8e                BF_ofb64_encrypt
                0x00000000401cdc31                BF_set_key
                0x00000000401ce9b7                BIO_f_base64
                0x00000000401cf04e                BIO_f_cipher
                0x00000000401cf054                BIO_set_cipher
                0x00000000401cf0e8                ERR_load_BIO_strings
                0x00000000401cf45c                BIO_f_md
                0x00000000401cf470                BN_uadd
                0x00000000401cf5a6                BN_usub
                0x00000000401cf79d                BN_add
                0x00000000401cf82e                BN_sub
                0x00000000401cf920                bn_mul_add_words
                0x00000000401cfb5e                bn_mul_words
                0x00000000401cfd5d                bn_sqr_words
                0x00000000401cfe9b                bn_div_words
                0x00000000401cffb5                bn_add_words
                0x00000000401d00a2                bn_sub_words
                0x00000000401d01ae                bn_mul_comba8
                0x00000000401d1b01                bn_mul_comba4
                0x00000000401d2140                bn_sqr_comba8
                0x00000000401d322a                bn_sqr_comba4
                0x00000000401d3650                BN_BLINDING_free
                0x00000000401d369a                BN_BLINDING_new
                0x00000000401d3775                BN_BLINDING_invert_ex
                0x00000000401d37d5                BN_BLINDING_invert
                0x00000000401d37ee                BN_BLINDING_get_thread_id
                0x00000000401d37f3                BN_BLINDING_set_thread_id
                0x00000000401d37f8                BN_BLINDING_thread_id
                0x00000000401d37fd                BN_BLINDING_get_flags
                0x00000000401d3802                BN_BLINDING_set_flags
                0x00000000401d3807                BN_BLINDING_create_param
                0x00000000401d3991                BN_BLINDING_update
                0x00000000401d3a84                BN_BLINDING_convert_ex
                0x00000000401d3b2f                BN_BLINDING_convert
                0x00000000401d3b48                BN_CTX_init
                0x00000000401d3bc7                BN_CTX_new
                0x00000000401d3c5f                BN_CTX_free
                0x00000000401d3cd4                BN_CTX_start
                0x00000000401d3da3                BN_CTX_end
                0x00000000401d3e0c                BN_CTX_get
                0x00000000401d3f51                BN_div
                0x00000000401d4967                ERR_load_BN_strings
                0x00000000401d4a6f                BN_exp
                0x00000000401d4bfe                BN_mod_exp_recp
                0x00000000401d501e                BN_mod_exp_mont_consttime
                0x00000000401d55fc                BN_mod_exp_mont
                0x00000000401d5af2                BN_mod_exp_mont_word
                0x00000000401d5f93                BN_mod_exp
                0x00000000401d5fe1                BN_mod_exp_simple
                0x00000000401d63d0                BN_gcd
                0x00000000401d65dc                BN_mod_inverse
                0x00000000401d6fc0                BN_nnmod
                0x00000000401d7015                BN_mod_add
                0x00000000401d7041                BN_mod_add_quick
                0x00000000401d7081                BN_mod_sub
                0x00000000401d70ad                BN_mod_sub_quick
                0x00000000401d70e2                BN_mod_mul
                0x00000000401d718e                BN_mod_sqr
                0x00000000401d71c2                BN_mod_lshift1
                0x00000000401d71ee                BN_mod_lshift1_quick
                0x00000000401d722e                BN_mod_lshift_quick
                0x00000000401d731a                BN_mod_lshift
                0x00000000401d7704                BN_mod_mul_montgomery
                0x00000000401d77ad                BN_from_montgomery
                0x00000000401d781d                BN_MONT_CTX_init
                0x00000000401d7859                BN_MONT_CTX_new
                0x00000000401d788a                BN_MONT_CTX_free
                0x00000000401d78be                BN_MONT_CTX_set
                0x00000000401d7a9a                BN_MONT_CTX_copy
                0x00000000401d7b14                BN_MONT_CTX_set_locked
                0x00000000401d7bf0                bn_sub_part_words
                0x00000000401d7e38                bn_add_part_words
                0x00000000401d816d                bn_mul_normal
                0x00000000401d82b9                bn_mul_recursive
                0x00000000401d87e5                bn_mul_high
                0x00000000401d8c92                bn_mul_part_recursive
                0x00000000401d91b6                BN_mul
                0x00000000401d9513                bn_mul_low_normal
                0x00000000401d95ef                bn_mul_low_recursive
                0x00000000401d97e9                BN_GENCB_call
                0x00000000401d983c                BN_is_prime_fasttest_ex
                0x00000000401d9d78                BN_generate_prime_ex
                0x00000000401da34f                BN_is_prime_ex
                0x00000000401da365                BN_RECP_CTX_init
                0x00000000401da387                BN_RECP_CTX_new
                0x00000000401da3b8                BN_RECP_CTX_free
                0x00000000401da3df                BN_RECP_CTX_set
                0x00000000401da428                BN_reciprocal
                0x00000000401da4a2                BN_div_recp
                0x00000000401da727                BN_mod_mul_reciprocal
                0x00000000401da7db                BN_lshift1
                0x00000000401da8a3                BN_rshift1
                0x00000000401da975                BN_lshift
                0x00000000401daac9                BN_rshift
                0x00000000401dac40                bn_sqr_normal
                0x00000000401dad1d                bn_sqr_recursive
                0x00000000401daecc                BN_sqr
                0x00000000401db129                BIO_s_null
                0x00000000401db12f                ERR_load_BUF_strings
                0x00000000401db170                CAST_cfb64_encrypt
                0x00000000401db35a                CAST_ecb_encrypt
                0x00000000401db40a                CAST_encrypt
                0x00000000401db86d                CAST_decrypt
                0x00000000401dbcb7                CAST_cbc_encrypt
                0x00000000401dc263                CAST_ofb64_encrypt
                0x00000000401dc406                CAST_set_key
                0x00000000401dce10                DES_ede3_cfb64_encrypt
                0x00000000401dd051                DES_ede3_cfb_encrypt
                0x00000000401dd8a0                DES_cfb64_encrypt
                0x00000000401ddac6                DES_cfb_encrypt
                0x00000000401de106                ERR_load_COMP_strings
                0x00000000401de13e                ERR_load_CONF_strings
                0x00000000401de176                ERR_load_CRYPTO_strings
                0x00000000401de1ae                d2i_PrivateKey
                0x00000000401de2ff                d2i_AutoPrivateKey
                0x00000000401de44a                d2i_DHparams
                0x00000000401de45d                i2d_DHparams
                0x00000000401de470                DHparams_dup
                0x00000000401de490                DH_check
                0x00000000401de5a7                DH_check_pub_key
                0x00000000401de636                ERR_load_DH_strings
                0x00000000401de670                DH_generate_parameters_ex
                0x00000000401de870                EVP_MD_CTX_init
                0x00000000401de888                EVP_MD_CTX_create
                0x00000000401de8b2                EVP_DigestInit_ex
                0x00000000401de98d                EVP_DigestInit
                0x00000000401de9b5                EVP_DigestUpdate
                0x00000000401de9c4                EVP_DigestFinal_ex
                0x00000000401dea45                EVP_MD_CTX_cleanup
                0x00000000401dead5                EVP_DigestFinal
                0x00000000401deaf6                EVP_MD_CTX_copy_ex
                0x00000000401dec20                EVP_MD_CTX_copy
                0x00000000401dec43                EVP_Digest
                0x00000000401decd0                EVP_MD_CTX_destroy
                0x00000000401ded89                d2i_DSA_SIG
                0x00000000401ded9c                i2d_DSA_SIG
                0x00000000401dedaf                DSA_SIG_new
                0x00000000401dedc2                DSA_SIG_free
                0x00000000401dedd5                d2i_DSAPrivateKey
                0x00000000401dede8                i2d_DSAPrivateKey
                0x00000000401dedfb                d2i_DSAparams
                0x00000000401dee0e                i2d_DSAparams
                0x00000000401dee21                d2i_DSAPublicKey
                0x00000000401dee34                i2d_DSAPublicKey
                0x00000000401dee47                DSAparams_dup
                0x00000000401dee5d                ERR_load_DSA_strings
                0x00000000401deea0                dsa_builtin_paramgen
                0x00000000401df6ff                DSA_generate_parameters_ex
                0x00000000401df7a0                DSA_generate_key
                0x00000000401df8f0                DSA_set_default_method
                0x00000000401df8f8                DSA_get_default_method
                0x00000000401df926                DSA_set_method
                0x00000000401df95f                DSA_new_method
                0x00000000401dfa6c                DSA_new
                0x00000000401dfa7f                DSA_free
                0x00000000401dfb41                DSA_up_ref
                0x00000000401dfb71                DSA_size
                0x00000000401dfbcb                DSA_get_ex_new_index
                0x00000000401dfbed                DSA_set_ex_data
                0x00000000401dfbff                DSA_get_ex_data
                0x00000000401dfc11                DSA_dup_DH
                0x00000000401e05b9                DSA_OpenSSL
                0x00000000401e05bf                DSA_do_sign
                0x00000000401e05cf                DSA_sign
                0x00000000401e0640                DSA_sign_setup
                0x00000000401e0650                DSA_do_verify
                0x00000000401e0660                DSA_verify
                0x00000000401e06d9                ERR_load_DSO_strings
                0x00000000401e100a                EC_GROUP_get_basis_type
                0x00000000401e1064                EC_GROUP_get_trinomial_basis
                0x00000000401e10e6                EC_GROUP_get_pentanomial_basis
                0x00000000401e11aa                X9_62_PENTANOMIAL_new
                0x00000000401e11bd                X9_62_PENTANOMIAL_free
                0x00000000401e11d0                X9_62_CHARACTERISTIC_TWO_new
                0x00000000401e11e3                X9_62_CHARACTERISTIC_TWO_free
                0x00000000401e11f6                ECPARAMETERS_new
                0x00000000401e1209                ECPARAMETERS_free
                0x00000000401e121c                d2i_ECPKPARAMETERS
                0x00000000401e122f                i2d_ECPKPARAMETERS
                0x00000000401e1242                ECPKPARAMETERS_new
                0x00000000401e1255                ECPKPARAMETERS_free
                0x00000000401e1e6d                d2i_EC_PRIVATEKEY
                0x00000000401e1e80                i2d_EC_PRIVATEKEY
                0x00000000401e1e93                EC_PRIVATEKEY_new
                0x00000000401e1ea6                EC_PRIVATEKEY_free
                0x00000000401e1eb9                d2i_ECPKParameters
                0x00000000401e1f65                i2d_ECPKParameters
                0x00000000401e1ff6                d2i_ECPrivateKey
                0x00000000401e22ad                i2d_ECPrivateKey
                0x00000000401e261b                i2d_ECParameters
                0x00000000401e2656                d2i_ECParameters
                0x00000000401e2747                o2i_ECPublicKey
                0x00000000401e2828                i2o_ECPublicKey
                0x00000000401e2980                EC_GROUP_new_by_curve_name
                0x00000000401e2ea9                EC_get_builtin_curves
                0x00000000401e2ef5                EC_GROUP_new_curve_GFp
                0x00000000401e2fd8                EC_GROUP_new_curve_GF2m
                0x00000000401e303c                ERR_load_EC_strings
                0x00000000401e3080                EC_KEY_new
                0x00000000401e3103                EC_KEY_free
                0x00000000401e3178                EC_KEY_new_by_curve_name
                0x00000000401e31bd                EC_KEY_copy
                0x00000000401e3370                EC_KEY_dup
                0x00000000401e33b7                EC_KEY_up_ref
                0x00000000401e33e7                EC_KEY_generate_key
                0x00000000401e35a2                EC_KEY_check_key
                0x00000000401e3832                EC_KEY_get0_group
                0x00000000401e3837                EC_KEY_set_group
                0x00000000401e386d                EC_KEY_get0_private_key
                0x00000000401e3872                EC_KEY_set_private_key
                0x00000000401e38a8                EC_KEY_get0_public_key
                0x00000000401e38ad                EC_KEY_set_public_key
                0x00000000401e38e7                EC_KEY_get_enc_flags
                0x00000000401e38eb                EC_KEY_set_enc_flags
                0x00000000401e38ef                EC_KEY_get_conv_form
                0x00000000401e38f3                EC_KEY_set_conv_form
                0x00000000401e390e                EC_KEY_get_key_method_data
                0x00000000401e3979                EC_KEY_insert_key_method_data
                0x00000000401e3a09                EC_KEY_set_asn1_flag
                0x00000000401e3a21                EC_KEY_precompute_mult
                0x00000000401e3a40                EC_GROUP_new
                0x00000000401e3b57                EC_GROUP_method_of
                0x00000000401e3b5b                EC_METHOD_get_field_type
                0x00000000401e3b5e                EC_GROUP_get0_generator
                0x00000000401e3b63                EC_GROUP_get_order
                0x00000000401e3b8b                EC_GROUP_get_cofactor
                0x00000000401e3bb3                EC_GROUP_set_curve_name
                0x00000000401e3bb7                EC_GROUP_get_curve_name
                0x00000000401e3bbb                EC_GROUP_set_asn1_flag
                0x00000000401e3bbf                EC_GROUP_get_asn1_flag
                0x00000000401e3bc3                EC_GROUP_set_point_conversion_form
                0x00000000401e3bc7                EC_GROUP_get_point_conversion_form
                0x00000000401e3bcb                EC_GROUP_set_seed
                0x00000000401e3c3f                EC_GROUP_get0_seed
                0x00000000401e3c44                EC_GROUP_get_seed_len
                0x00000000401e3c49                EC_GROUP_set_curve_GFp
                0x00000000401e3c86                EC_GROUP_get_curve_GFp
                0x00000000401e3cc3                EC_GROUP_set_curve_GF2m
                0x00000000401e3d01                EC_GROUP_get_curve_GF2m
                0x00000000401e3d3e                EC_GROUP_get_degree
                0x00000000401e3d7b                EC_GROUP_check_discriminant
                0x00000000401e3db8                EC_EX_DATA_set_data
                0x00000000401e3e7a                EC_EX_DATA_get_data
                0x00000000401e3eae                EC_EX_DATA_free_data
                0x00000000401e3efe                EC_EX_DATA_clear_free_data
                0x00000000401e3f4e                EC_EX_DATA_free_all_data
                0x00000000401e3f8b                EC_EX_DATA_clear_free_all_data
                0x00000000401e3fc8                EC_POINT_new
                0x00000000401e409c                EC_POINT_free
                0x00000000401e40c1                EC_GROUP_free
                0x00000000401e4119                EC_POINT_clear_free
                0x00000000401e4154                EC_GROUP_clear_free
                0x00000000401e41d3                EC_POINT_copy
                0x00000000401e4242                EC_GROUP_copy
                0x00000000401e445f                EC_GROUP_dup
                0x00000000401e44b4                EC_GROUP_set_generator
                0x00000000401e458b                EC_POINT_dup
                0x00000000401e45e0                EC_POINT_method_of
                0x00000000401e45e4                EC_POINT_set_to_infinity
                0x00000000401e4649                EC_POINT_set_Jprojective_coordinates_GFp
                0x00000000401e46b2                EC_POINT_get_Jprojective_coordinates_GFp
                0x00000000401e471b                EC_POINT_set_affine_coordinates_GFp
                0x00000000401e4787                EC_POINT_set_affine_coordinates_GF2m
                0x00000000401e47f3                EC_POINT_get_affine_coordinates_GFp
                0x00000000401e485f                EC_POINT_get_affine_coordinates_GF2m
                0x00000000401e48cb                EC_POINT_set_compressed_coordinates_GFp
                0x00000000401e4937                EC_POINT_set_compressed_coordinates_GF2m
                0x00000000401e49a3                EC_POINT_point2oct
                0x00000000401e4a0f                EC_POINT_oct2point
                0x00000000401e4a7b                EC_POINT_add
                0x00000000401e4af1                EC_POINT_dbl
                0x00000000401e4b61                EC_POINT_invert
                0x00000000401e4bce                EC_POINT_is_at_infinity
                0x00000000401e4c36                EC_POINT_is_on_curve
                0x00000000401e4ca1                EC_POINT_cmp
                0x00000000401e4d11                EC_GROUP_cmp
                0x00000000401e4f74                EC_POINT_make_affine
                0x00000000401e4fe1                EC_POINTs_make_affine
                0x00000000401e506e                EC_POINTs_mul
                0x00000000401e50a1                EC_POINT_mul
                0x00000000401e50d9                EC_GROUP_precompute_mult
                0x00000000401e5109                EC_GROUP_have_precompute_mult
                0x00000000401e550d                ec_wNAF_mul
                0x00000000401e633c                ec_wNAF_precompute_mult
                0x00000000401e6946                ec_wNAF_have_precompute_mult
                0x00000000401e6970                EC_POINT_point2bn
                0x00000000401e6a26                EC_POINT_bn2point
                0x00000000401e6b2f                EC_POINT_point2hex
                0x00000000401e6c48                EC_POINT_hex2point
                0x00000000401e6ca4                ERR_load_ECDH_strings
                0x00000000401e6cdc                ECDH_compute_key
                0x00000000401e6d5c                ECDH_set_default_method
                0x00000000401e6d64                ECDH_get_default_method
                0x00000000401e6e32                ecdh_check
                0x00000000401e6ea4                ECDH_set_method
                0x00000000401e6ec4                ECDH_get_ex_new_index
                0x00000000401e6ee6                ECDH_set_ex_data
                0x00000000401e6f18                ECDH_get_ex_data
                0x00000000401e730a                ECDH_OpenSSL
                0x00000000401e7310                ec_GFp_mont_group_init
                0x00000000401e7331                ec_GFp_mont_group_finish
                0x00000000401e7377                ec_GFp_mont_group_clear_finish
                0x00000000401e73bd                ec_GFp_mont_group_copy
                0x00000000401e749f                ec_GFp_mont_field_mul
                0x00000000401e74eb                ec_GFp_mont_field_sqr
                0x00000000401e7537                ec_GFp_mont_field_encode
                0x00000000401e7587                ec_GFp_mont_group_set_curve
                0x00000000401e7720                ec_GFp_mont_field_decode
                0x00000000401e7766                ec_GFp_mont_field_set_to_one
                0x00000000401e77b3                EC_GFp_mont_method
                0x00000000401e77b9                ec_GFp_nist_group_copy
                0x00000000401e77d5                ec_GFp_nist_group_set_curve
                0x00000000401e7949                ec_GFp_nist_field_mul
                0x00000000401e7a13                ec_GFp_nist_field_sqr
                0x00000000401e7ac4                EC_GFp_nist_method
                0x00000000401e7ad0                ec_GFp_simple_is_at_infinity
                0x00000000401e7adb                ec_GFp_simple_group_init
                0x00000000401e7b11                ec_GFp_simple_point_init
                0x00000000401e7b3e                ec_GFp_simple_group_finish
                0x00000000401e7b65                ec_GFp_simple_point_finish
                0x00000000401e7b86                ec_GFp_simple_group_clear_finish
                0x00000000401e7bad                ec_GFp_simple_point_clear_finish
                0x00000000401e7bd5                ec_GFp_simple_group_copy
                0x00000000401e7c4e                ec_GFp_simple_point_copy
                0x00000000401e7cb5                ec_GFp_simple_group_get_degree
                0x00000000401e7cc7                ec_GFp_simple_group_set_curve
                0x00000000401e7eb8                ec_GFp_simple_group_get_curve
                0x00000000401e800d                ec_GFp_simple_set_Jprojective_coordinates_GFp
                0x00000000401e81fa                ec_GFp_simple_get_Jprojective_coordinates_GFp
                0x00000000401e835b                ec_GFp_simple_field_sqr
                0x00000000401e8376                ec_GFp_simple_field_mul
                0x00000000401e8394                ec_GFp_simple_group_check_discriminant
                0x00000000401e85ca                ec_GFp_simple_point_set_to_infinity
                0x00000000401e85ed                ec_GFp_simple_point_set_affine_coordinates
                0x00000000401e8659                ec_GFp_simple_cmp
                0x00000000401e894b                ec_GFp_simple_point_get_affine_coordinates
                0x00000000401e8cb5                ec_GFp_simple_invert
                0x00000000401e8cf0                ec_GFp_simple_set_compressed_coordinates
                0x00000000401e9198                ec_GFp_simple_make_affine
                0x00000000401e92aa                ec_GFp_simple_point2oct
                0x00000000401e9635                ec_GFp_simple_is_on_curve
                0x00000000401e9988                ec_GFp_simple_oct2point
                0x00000000401e9d08                ec_GFp_simple_add
                0x00000000401ea424                ec_GFp_simple_dbl
                0x00000000401ea943                ec_GFp_simple_points_make_affine
                0x00000000401eaeba                EC_GFp_simple_method
                0x00000000401eaec0                ERR_load_ECDSA_strings
                0x00000000401eaf2c                ECDSA_set_default_method
                0x00000000401eaf34                ECDSA_get_default_method
                0x00000000401eb002                ecdsa_check
                0x00000000401eb074                ECDSA_set_method
                0x00000000401eb094                ECDSA_size
                0x00000000401eb14d                ECDSA_get_ex_new_index
                0x00000000401eb16f                ECDSA_set_ex_data
                0x00000000401eb1a1                ECDSA_get_ex_data
                0x00000000401ebee6                ECDSA_OpenSSL
                0x00000000401ebeec                ECDSA_do_sign_ex
                0x00000000401ebf36                ECDSA_do_sign
                0x00000000401ebf51                ECDSA_sign_ex
                0x00000000401ebfcc                ECDSA_sign
                0x00000000401ebfed                ECDSA_sign_setup
                0x00000000401ec033                ECDSA_do_verify
                0x00000000401ec07c                ECDSA_verify
                0x00000000401ec100                EVP_EncodeInit
                0x00000000401ec115                EVP_EncodeBlock
                0x00000000401ec254                EVP_EncodeUpdate
                0x00000000401ec37c                EVP_EncodeFinal
                0x00000000401ec3c0                EVP_DecodeInit
                0x00000000401ec3dc                EVP_DecodeBlock
                0x00000000401ec58c                EVP_DecodeUpdate
                0x00000000401ec8cb                EVP_DecodeFinal
                0x00000000401ec910                EVP_set_pw_prompt
                0x00000000401ec93f                EVP_get_pw_prompt
                0x00000000401ec955                EVP_read_pw_string_min
                0x00000000401eca14                EVP_read_pw_string
                0x00000000401eca2f                EVP_BytesToKey
                0x00000000401eccc8                EVP_PBE_alg_add_type
                0x00000000401ecd67                EVP_PBE_alg_add
                0x00000000401ecdbf                EVP_PBE_find
                0x00000000401ece77                EVP_PBE_CipherInit
                0x00000000401ed02e                EVP_PBE_cleanup
                0x00000000401ed053                EVP_PKCS82PKEY
                0x00000000401ed194                EVP_PKEY2PKCS8_broken
                0x00000000401ed287                EVP_PKEY2PKCS8
                0x00000000401ed29a                PKCS8_set_broken
                0x00000000401ed2f0                EVP_PKEY_get_attr_count
                0x00000000401ed302                EVP_PKEY_get_attr_by_NID
                0x00000000401ed314                EVP_PKEY_get_attr_by_OBJ
                0x00000000401ed326                EVP_PKEY_get_attr
                0x00000000401ed338                EVP_PKEY_delete_attr
                0x00000000401ed34a                EVP_PKEY_add1_attr
                0x00000000401ed365                EVP_PKEY_add1_attr_by_OBJ
                0x00000000401ed380                EVP_PKEY_add1_attr_by_NID
                0x00000000401ed39b                EVP_PKEY_add1_attr_by_txt
                0x00000000401ed3c0                HMAC_Init_ex
                0x00000000401ed59f                HMAC_Update
                0x00000000401ed5b1                HMAC_Final
                0x00000000401ed624                HMAC_CTX_init
                0x00000000401ed645                HMAC_Init
                0x00000000401ed68c                HMAC_CTX_copy
                0x00000000401ed702                HMAC_CTX_cleanup
                0x00000000401ed735                HMAC
                0x00000000401ed7db                HMAC_CTX_set_flags
                0x00000000401ed810                i2d_PrivateKey
                0x00000000401ee184                RAND_SSLeay
                0x00000000401ee1ab                d2i_NETSCAPE_CERT_SEQUENCE
                0x00000000401ee1be                i2d_NETSCAPE_CERT_SEQUENCE
                0x00000000401ee1d1                NETSCAPE_CERT_SEQUENCE_new
                0x00000000401ee1e4                NETSCAPE_CERT_SEQUENCE_free
                0x00000000401ee1f7                OPENSSL_gmtime
                0x00000000401ee1fd                OPENSSL_gmtime_adj
                0x00000000401ee498                PKCS12_PBE_add
                0x00000000401ee49a                PKCS12_PBE_keyivgen
                0x00000000401ee6a0                PKCS12_key_gen_uni
                0x00000000401eeb6b                PKCS12_key_gen_asc
                0x00000000401eec3e                PKCS8_decrypt
                0x00000000401eec63                OPENSSL_asc2uni
                0x00000000401eecf8                OPENSSL_uni2asc
                0x00000000401eed70                i2d_PKCS12_bio
                0x00000000401eed89                d2i_PKCS12_bio
                0x00000000401eeda2                PKCS12_x5092certbag
                0x00000000401eedbf                PKCS12_x509crl2certbag
                0x00000000401eeddc                PKCS12_certbag2x509
                0x00000000401eee26                PKCS12_certbag2x509crl
                0x00000000401eee70                PKCS5_PBE_add
                0x00000000401eee72                PKCS5_PBE_keyivgen
                0x00000000401ef13b                PKCS5_PBKDF2_HMAC
                0x00000000401ef409                PKCS5_PBKDF2_HMAC_SHA1
                0x00000000401ef460                PKCS5_v2_PBE_keyivgen
                0x00000000401ef864                d2i_PBEPARAM
                0x00000000401ef877                i2d_PBEPARAM
                0x00000000401ef88a                PBEPARAM_new
                0x00000000401ef89d                PBEPARAM_free
                0x00000000401ef8b0                PKCS5_pbe_set0_algor
                0x00000000401efa59                PKCS5_pbe_set
                0x00000000401efad2                d2i_PBE2PARAM
                0x00000000401efae5                i2d_PBE2PARAM
                0x00000000401efaf8                PBE2PARAM_new
                0x00000000401efb0b                PBE2PARAM_free
                0x00000000401efb1e                d2i_PBKDF2PARAM
                0x00000000401efb31                i2d_PBKDF2PARAM
                0x00000000401efb44                PBKDF2PARAM_new
                0x00000000401efb57                PBKDF2PARAM_free
                0x00000000401efb6a                PKCS5_pbe2_set_iv
                0x00000000401f0043                PKCS5_pbe2_set
                0x00000000401f0095                d2i_PKCS8_PRIV_KEY_INFO
                0x00000000401f00a8                i2d_PKCS8_PRIV_KEY_INFO
                0x00000000401f00bb                PKCS8_PRIV_KEY_INFO_new
                0x00000000401f00ce                PKCS8_PRIV_KEY_INFO_free
                0x00000000401f00e1                PKCS8_pkey_set0
                0x00000000401f0186                PKCS8_pkey_get0
                0x00000000401f020c                EVP_SignFinal
                0x00000000401f03bb                EVP_VerifyFinal
                0x00000000401f055c                policy_cache_free
                0x00000000401f058f                policy_cache_set
                0x00000000401f0913                policy_cache_find_data
                0x00000000401f0949                policy_data_free
                0x00000000401f0981                policy_data_new
                0x00000000401f0a7b                policy_cache_set_mapping
                0x00000000401f0cb5                X509_policy_tree_free
                0x00000000401f0d54                X509_policy_check
                0x00000000401f170c                d2i_PKCS8PrivateKey_bio
                0x00000000401f180f                PEM_read_bio_PKCS8
                0x00000000401f1833                PEM_write_bio_PKCS8
                0x00000000401f1876                PEM_read_bio_PKCS8_PRIV_KEY_INFO
                0x00000000401f189a                PEM_write_bio_PKCS8_PRIV_KEY_INFO
                0x00000000401f1ac1                PEM_write_bio_PKCS8PrivateKey_nid
                0x00000000401f1af2                PEM_write_bio_PKCS8PrivateKey
                0x00000000401f1b23                i2d_PKCS8PrivateKey_bio
                0x00000000401f1b54                i2d_PKCS8PrivateKey_nid_bio
                0x00000000401f1b85                PKCS7_add_attrib_smimecap
                0x00000000401f1bef                PKCS7_get_smimecap
                0x00000000401f1c3f                PKCS7_simple_smimecap
                0x00000000401f1d6d                PKCS7_add_attrib_content_type
                0x00000000401f1dbf                PKCS7_add0_attrib_signing_time
                0x00000000401f1e15                PKCS7_add1_attrib_digest
                0x00000000401f3699                RSA_PKCS1_SSLeay
                0x00000000401f369f                RSA_padding_add_none
                0x00000000401f370e                RSA_padding_check_none
                0x00000000401f377d                PKCS1_MGF1
                0x00000000401f391b                RSA_padding_check_PKCS1_OAEP
                0x00000000401f3bc2                RSA_padding_add_PKCS1_OAEP
                0x00000000401f3dd0                RSA_padding_add_PKCS1_type_1
                0x00000000401f3e56                RSA_padding_check_PKCS1_type_1
                0x00000000401f3fa8                RSA_padding_add_PKCS1_type_2
                0x00000000401f4066                RSA_padding_check_PKCS1_type_2
                0x00000000401f4190                RSA_verify_PKCS1_PSS
                0x00000000401f44e6                RSA_padding_add_PKCS1_PSS
                0x00000000401f47ac                RSA_padding_add_SSLv23
                0x00000000401f487b                RSA_padding_check_SSLv23
                0x00000000401f49db                RSA_padding_add_X931
                0x00000000401f4a7b                RSA_padding_check_X931
                0x00000000401f4b91                RSA_X931_hash_id
                0x00000000401f4bd1                ASN1_bn_print
                0x00000000401f4dd0                X509_ocspid_print
                0x00000000401f4f41                X509_signature_print
                0x00000000401f5041                ASN1_STRING_print
                0x00000000401f50f4                ASN1_GENERALIZEDTIME_print
                0x00000000401f5366                ASN1_UTCTIME_print
                0x00000000401f54d3                ASN1_TIME_print
                0x00000000401f5510                X509_print_ex
                0x00000000401f5a47                X509_print
                0x00000000401f5a5f                X509_NAME_print
                0x00000000401f5b58                X509_CERT_AUX_print
                0x00000000401f608f                UI_free
                0x00000000401f60c1                UI_add_input_string
                0x00000000401f60f1                UI_dup_input_string
                0x00000000401f6180                UI_add_verify_string
                0x00000000401f61b1                UI_dup_verify_string
                0x00000000401f6241                UI_add_input_boolean
                0x00000000401f626b                UI_dup_input_boolean
                0x00000000401f63f3                UI_add_info_string
                0x00000000401f642f                UI_dup_info_string
                0x00000000401f64b1                UI_add_error_string
                0x00000000401f64ed                UI_dup_error_string
                0x00000000401f656f                UI_construct_prompt
                0x00000000401f6697                UI_add_user_data
                0x00000000401f66a0                UI_get0_user_data
                0x00000000401f66a5                UI_process
                0x00000000401f67be                UI_ctrl
                0x00000000401f6848                UI_get_ex_new_index
                0x00000000401f686a                UI_set_ex_data
                0x00000000401f687c                UI_get_ex_data
                0x00000000401f688e                UI_set_default_method
                0x00000000401f6896                UI_get_default_method
                0x00000000401f68c4                UI_new_method
                0x00000000401f6953                UI_new
                0x00000000401f6966                UI_get_method
                0x00000000401f696a                UI_set_method
                0x00000000401f6971                UI_create_method
                0x00000000401f69bd                UI_destroy_method
                0x00000000401f69da                UI_method_set_opener
                0x00000000401f69ef                UI_method_set_writer
                0x00000000401f6a04                UI_method_set_flusher
                0x00000000401f6a19                UI_method_set_reader
                0x00000000401f6a2e                UI_method_set_closer
                0x00000000401f6a43                UI_method_set_prompt_constructor
                0x00000000401f6a58                UI_method_get_opener
                0x00000000401f6a68                UI_method_get_writer
                0x00000000401f6a78                UI_method_get_flusher
                0x00000000401f6a88                UI_method_get_reader
                0x00000000401f6a98                UI_method_get_closer
                0x00000000401f6aa8                UI_method_get_prompt_constructor
                0x00000000401f6ab8                UI_get_string_type
                0x00000000401f6ac6                UI_get_input_flags
                0x00000000401f6ad5                UI_get0_output_string
                0x00000000401f6ae5                UI_get0_action_string
                0x00000000401f6b07                UI_get0_result_string
                0x00000000401f6b27                UI_get0_result
                0x00000000401f6ba9                UI_get0_test_string
                0x00000000401f6bc4                UI_get_result_minsize
                0x00000000401f6be3                UI_get_result_maxsize
                0x00000000401f6c02                UI_set_result
                0x00000000401f70b2                UI_OpenSSL
                0x00000000401f70b8                d2i_AUTHORITY_KEYID
                0x00000000401f70cb                i2d_AUTHORITY_KEYID
                0x00000000401f70de                AUTHORITY_KEYID_new
                0x00000000401f70f1                AUTHORITY_KEYID_free
                0x00000000401f738f                POLICYINFO_free
                0x00000000401f73a2                d2i_CERTIFICATEPOLICIES
                0x00000000401f73b5                i2d_CERTIFICATEPOLICIES
                0x00000000401f73c8                CERTIFICATEPOLICIES_new
                0x00000000401f73db                CERTIFICATEPOLICIES_free
                0x00000000401f73ee                d2i_POLICYINFO
                0x00000000401f7401                i2d_POLICYINFO
                0x00000000401f7414                POLICYINFO_new
                0x00000000401f7427                d2i_POLICYQUALINFO
                0x00000000401f743a                i2d_POLICYQUALINFO
                0x00000000401f744d                POLICYQUALINFO_new
                0x00000000401f7460                POLICYQUALINFO_free
                0x00000000401f7473                d2i_USERNOTICE
                0x00000000401f7486                i2d_USERNOTICE
                0x00000000401f7499                USERNOTICE_new
                0x00000000401f74ac                USERNOTICE_free
                0x00000000401f74bf                d2i_NOTICEREF
                0x00000000401f74d2                i2d_NOTICEREF
                0x00000000401f74e5                NOTICEREF_new
                0x00000000401f7e4a                NOTICEREF_free
                0x00000000401f7e5d                X509_POLICY_NODE_print
                0x00000000401f8420                DIST_POINT_free
                0x00000000401f8433                d2i_DIST_POINT_NAME
                0x00000000401f8446                i2d_DIST_POINT_NAME
                0x00000000401f8459                DIST_POINT_NAME_new
                0x00000000401f8657                DIST_POINT_NAME_free
                0x00000000401f866a                d2i_DIST_POINT
                0x00000000401f867d                i2d_DIST_POINT
                0x00000000401f8690                DIST_POINT_new
                0x00000000401f893b                d2i_CRL_DIST_POINTS
                0x00000000401f894e                i2d_CRL_DIST_POINTS
                0x00000000401f8961                CRL_DIST_POINTS_new
                0x00000000401f8974                CRL_DIST_POINTS_free
                0x00000000401f8987                d2i_ISSUING_DIST_POINT
                0x00000000401f899a                i2d_ISSUING_DIST_POINT
                0x00000000401f89ad                ISSUING_DIST_POINT_new
                0x00000000401f89c0                ISSUING_DIST_POINT_free
                0x00000000401f8bcd                DIST_POINT_set_dpname
                0x00000000401f8cc0                d2i_GENERAL_NAME
                0x00000000401f8cd3                i2d_GENERAL_NAME
                0x00000000401f8ce6                d2i_OTHERNAME
                0x00000000401f8cf9                i2d_OTHERNAME
                0x00000000401f8d0c                OTHERNAME_new
                0x00000000401f8d1f                OTHERNAME_free
                0x00000000401f8d32                d2i_EDIPARTYNAME
                0x00000000401f8d45                i2d_EDIPARTYNAME
                0x00000000401f8d58                EDIPARTYNAME_new
                0x00000000401f8d6b                EDIPARTYNAME_free
                0x00000000401f8d7e                GENERAL_NAME_new
                0x00000000401f8d91                GENERAL_NAME_free
                0x00000000401f8da4                d2i_GENERAL_NAMES
                0x00000000401f8db7                i2d_GENERAL_NAMES
                0x00000000401f8dca                GENERAL_NAMES_new
                0x00000000401f8ddd                GENERAL_NAMES_free
                0x00000000401f8df0                GENERAL_NAME_dup
                0x00000000401f8e0b                OTHERNAME_cmp
                0x00000000401f8e4d                GENERAL_NAME_cmp
                0x00000000401f8eda                GENERAL_NAME_set0_value
                0x00000000401f8f0d                GENERAL_NAME_get0_value
                0x00000000401f8f48                GENERAL_NAME_set0_othername
                0x00000000401f8f7f                GENERAL_NAME_get0_otherName
                0x00000000401f957b                GENERAL_SUBTREE_new
                0x00000000401f958e                GENERAL_SUBTREE_free
                0x00000000401f95a1                NAME_CONSTRAINTS_new
                0x00000000401f95b4                NAME_CONSTRAINTS_free
                0x00000000401f9773                NAME_CONSTRAINTS_check
                0x00000000401f9896                POLICY_CONSTRAINTS_new
                0x00000000401f98a9                POLICY_CONSTRAINTS_free
                0x00000000401f9a9a                POLICY_MAPPING_free
                0x00000000401f9aad                POLICY_MAPPING_new
                0x00000000401f9d45                X509V3_EXT_val_prn
                0x00000000401f9e5d                X509V3_EXT_print
                0x00000000401fa01d                X509V3_extensions_print
                0x00000000401fa4bd                X509_PURPOSE_get_count
                0x00000000401fa4e0                X509_PURPOSE_get0
                0x00000000401fa51b                X509_PURPOSE_get_by_sname
                0x00000000401fa55e                X509_PURPOSE_get_by_id
                0x00000000401fa59d                X509_PURPOSE_set
                0x00000000401fa5e9                X509_PURPOSE_add
                0x00000000401fa7a0                X509_PURPOSE_cleanup
                0x00000000401fa7e4                X509_PURPOSE_get_id
                0x00000000401fa7e7                X509_PURPOSE_get0_name
                0x00000000401fa7ec                X509_PURPOSE_get0_sname
                0x00000000401fa7f1                X509_PURPOSE_get_trust
                0x00000000401fa7f5                X509_supported_extension
                0x00000000401fad66                X509_check_purpose
                0x00000000401fade7                X509_check_ca
                0x00000000401fae35                X509_check_akid
                0x00000000401faf0a                X509_check_issued
                0x00000000401fb06e                X509V3_conf_free
                0x00000000401fb154                X509V3_add_value
                0x00000000401fb27b                X509V3_add_value_uchar
                0x00000000401fb289                X509V3_add_value_bool
                0x00000000401fb2ac                X509V3_add_value_bool_nf
                0x00000000401fb2c9                i2s_ASN1_ENUMERATED
                0x00000000401fb339                i2s_ASN1_INTEGER
                0x00000000401fb3a9                s2i_ASN1_INTEGER
                0x00000000401fb50e                X509V3_add_value_int
                0x00000000401fb559                X509V3_get_value_bool
                0x00000000401fb6bd                X509V3_get_value_int
                0x00000000401fb721                X509V3_parse_list
                0x00000000401fb955                hex_to_string
                0x00000000401fba11                string_to_hex
                0x00000000401fbbc0                name_cmp
                0x00000000401fbc09                X509_email_free
                0x00000000401fbd6f                X509_get1_email
                0x00000000401fbdbc                X509_REQ_get1_email
                0x00000000401fbe1a                X509_get1_ocsp
                0x00000000401fbeb1                a2i_ipadd
                0x00000000401fbffb                a2i_IPADDRESS
                0x00000000401fc056                a2i_IPADDRESS_NC
                0x00000000401fc132                X509V3_NAME_from_section
                0x00000000401fc220                X509at_get_attr_count
                0x00000000401fc22e                X509at_get_attr_by_OBJ
                0x00000000401fc2a2                X509at_get_attr_by_NID
                0x00000000401fc2d4                X509at_get_attr
                0x00000000401fc318                X509at_delete_attr
                0x00000000401fc35b                X509at_add1_attr
                0x00000000401fc43c                X509_ATTRIBUTE_set1_object
                0x00000000401fc478                X509_ATTRIBUTE_set1_data
                0x00000000401fc5ed                X509_ATTRIBUTE_create_by_OBJ
                0x00000000401fc6b6                X509at_add1_attr_by_OBJ
                0x00000000401fc6f8                X509_ATTRIBUTE_create_by_NID
                0x00000000401fc771                X509at_add1_attr_by_NID
                0x00000000401fc7b3                X509_ATTRIBUTE_create_by_txt
                0x00000000401fc853                X509at_add1_attr_by_txt
                0x00000000401fc895                X509_ATTRIBUTE_count
                0x00000000401fc8bb                X509_ATTRIBUTE_get0_object
                0x00000000401fc8ca                X509_ATTRIBUTE_get0_type
                0x00000000401fc90f                X509_ATTRIBUTE_get0_data
                0x00000000401fc968                X509at_get0_data_by_OBJ
                0x00000000401fc9f4                X509_CRL_get_ext_count
                0x00000000401fca09                X509_CRL_get_ext_by_NID
                0x00000000401fca1e                X509_CRL_get_ext_by_OBJ
                0x00000000401fca33                X509_CRL_get_ext_by_critical
                0x00000000401fca48                X509_CRL_get_ext
                0x00000000401fca5d                X509_CRL_delete_ext
                0x00000000401fca72                X509_CRL_get_ext_d2i
                0x00000000401fca87                X509_CRL_add1_ext_i2d
                0x00000000401fca9c                X509_CRL_add_ext
                0x00000000401fcaba                X509_get_ext_count
                0x00000000401fcacf                X509_get_ext_by_NID
                0x00000000401fcae4                X509_get_ext_by_OBJ
                0x00000000401fcaf9                X509_get_ext_by_critical
                0x00000000401fcb0e                X509_get_ext
                0x00000000401fcb23                X509_delete_ext
                0x00000000401fcb38                X509_add_ext
                0x00000000401fcb56                X509_get_ext_d2i
                0x00000000401fcb6b                X509_add1_ext_i2d
                0x00000000401fcb80                X509_REVOKED_get_ext_count
                0x00000000401fcb92                X509_REVOKED_get_ext_by_NID
                0x00000000401fcba4                X509_REVOKED_get_ext_by_OBJ
                0x00000000401fcbb6                X509_REVOKED_get_ext_by_critical
                0x00000000401fcbc8                X509_REVOKED_get_ext
                0x00000000401fcbda                X509_REVOKED_delete_ext
                0x00000000401fcbec                X509_REVOKED_add_ext
                0x00000000401fcc07                X509_REVOKED_get_ext_d2i
                0x00000000401fcc19                X509_REVOKED_add1_ext_i2d
                0x00000000401fcda1                X509_LOOKUP_new
                0x00000000401fce1d                X509_LOOKUP_free
                0x00000000401fce44                X509_LOOKUP_init
                0x00000000401fce72                X509_LOOKUP_shutdown
                0x00000000401fce9d                X509_LOOKUP_ctrl
                0x00000000401fcec9                X509_LOOKUP_by_subject
                0x00000000401fcf01                X509_LOOKUP_by_issuer_serial
                0x00000000401fcf2d                X509_LOOKUP_by_fingerprint
                0x00000000401fcf59                X509_LOOKUP_by_alias
                0x00000000401fcf85                X509_STORE_new
                0x00000000401fd077                X509_STORE_free
                0x00000000401fd108                X509_STORE_add_lookup
                0x00000000401fd18a                X509_OBJECT_up_ref_count
                0x00000000401fd1e7                X509_OBJECT_free_contents
                0x00000000401fd212                X509_OBJECT_idx_by_subject
                0x00000000401fd225                X509_OBJECT_retrieve_by_subject
                0x00000000401fd246                X509_STORE_get_by_subject
                0x00000000401fd34e                X509_STORE_get1_certs
                0x00000000401fd50d                X509_STORE_get1_crls
                0x00000000401fd6c7                X509_OBJECT_retrieve_match
                0x00000000401fd7a8                X509_STORE_add_cert
                0x00000000401fd8aa                X509_STORE_add_crl
                0x00000000401fd9ac                X509_STORE_CTX_get1_issuer
                0x00000000401fdb56                X509_STORE_set_flags
                0x00000000401fdb68                X509_STORE_set_depth
                0x00000000401fdb7f                X509_STORE_set_purpose
                0x00000000401fdb91                X509_STORE_set_trust
                0x00000000401fdba3                X509_STORE_set1_param
                0x00000000401fdbb5                X509_STORE_set_verify_cb
                0x00000000401fdbc0                X509_to_X509_REQ
                0x00000000401fdcb9                X509_REQ_get_pubkey
                0x00000000401fdce6                X509_REQ_check_private_key
                0x00000000401fde0f                X509_REQ_extension_nid
                0x00000000401fde50                X509_REQ_get_extension_nids
                0x00000000401fde58                X509_REQ_set_extension_nids
                0x00000000401fde60                X509_REQ_add_extensions_nid
                0x00000000401fdf5a                X509_REQ_add_extensions
                0x00000000401fdf6d                X509_REQ_get_attr_count
                0x00000000401fdf82                X509_REQ_get_attr_by_NID
                0x00000000401fdf97                X509_REQ_get_attr_by_OBJ
                0x00000000401fdfac                X509_REQ_get_attr
                0x00000000401fdfc1                X509_REQ_get_extensions
                0x00000000401fe0b6                X509_REQ_delete_attr
                0x00000000401fe0cb                X509_REQ_add1_attr
                0x00000000401fe0e9                X509_REQ_add1_attr_by_OBJ
                0x00000000401fe107                X509_REQ_add1_attr_by_NID
                0x00000000401fe125                X509_REQ_add1_attr_by_txt
                0x00000000401fe2a8                X509_TRUST_set_default
                0x00000000401fe2b7                X509_TRUST_get_count
                0x00000000401fe2da                X509_TRUST_get0
                0x00000000401fe313                X509_TRUST_get_by_id
                0x00000000401fe355                X509_check_trust
                0x00000000401fe39f                X509_TRUST_set
                0x00000000401fe3eb                X509_TRUST_add
                0x00000000401fe581                X509_TRUST_cleanup
                0x00000000401fe5c5                X509_TRUST_get_flags
                0x00000000401fe5c9                X509_TRUST_get0_name
                0x00000000401fe5ce                X509_TRUST_get_trust
                0x00000000401fe5e0                X509v3_get_ext_count
                0x00000000401fe5f9                X509v3_get_ext_by_OBJ
                0x00000000401fe66d                X509v3_get_ext_by_NID
                0x00000000401fe69f                X509v3_get_ext_by_critical
                0x00000000401fe71a                X509v3_get_ext
                0x00000000401fe75d                X509v3_delete_ext
                0x00000000401fe7a0                X509v3_add_ext
                0x00000000401fe8a8                X509_EXTENSION_set_object
                0x00000000401fe8e4                X509_EXTENSION_set_critical
                0x00000000401fe8ff                X509_EXTENSION_set_data
                0x00000000401fe92d                X509_EXTENSION_create_by_OBJ
                0x00000000401fe9f0                X509_EXTENSION_create_by_NID
                0x00000000401fea67                X509_EXTENSION_get_object
                0x00000000401fea76                X509_EXTENSION_get_data
                0x00000000401fea86                X509_EXTENSION_get_critical
                0x00000000401feaa0                X509_NAME_entry_count
                0x00000000401feabc                X509_NAME_get_index_by_OBJ
                0x00000000401feb32                X509_NAME_get_index_by_NID
                0x00000000401feb64                X509_NAME_get_entry
                0x00000000401febaa                X509_NAME_get_text_by_OBJ
                0x00000000401fec10                X509_NAME_get_text_by_NID
                0x00000000401fec46                X509_NAME_delete_entry
                0x00000000401fed1a                X509_NAME_add_entry
                0x00000000401fee92                X509_NAME_ENTRY_set_object
                0x00000000401feef1                X509_NAME_ENTRY_set_data
                0x00000000401fefc6                X509_NAME_ENTRY_create_by_OBJ
                0x00000000401ff070                X509_NAME_add_entry_by_OBJ
                0x00000000401ff0b4                X509_NAME_ENTRY_create_by_txt
                0x00000000401ff154                X509_NAME_add_entry_by_txt
                0x00000000401ff198                X509_NAME_ENTRY_create_by_NID
                0x00000000401ff20c                X509_NAME_add_entry_by_NID
                0x00000000401ff250                X509_NAME_ENTRY_get_object
                0x00000000401ff25f                X509_NAME_ENTRY_get_data
                0x00000000401ff270                X509_REQ_set_version
                0x00000000401ff290                X509_REQ_set_subject_name
                0x00000000401ff2bd                X509_REQ_set_pubkey
                0x00000000401ff2ea                d2i_X509_VAL
                0x00000000401ff2fd                i2d_X509_VAL
                0x00000000401ff310                X509_VAL_new
                0x00000000401ff323                X509_VAL_free
                0x00000000401ff336                CRYPTO_cbc128_encrypt
                0x00000000401ff47c                CRYPTO_cbc128_decrypt
                0x00000000401ff7bb                CRYPTO_cfb128_encrypt
                0x00000000401ffa3e                CRYPTO_cfb128_1_encrypt
                0x00000000401ffb12                CRYPTO_cfb128_8_encrypt
                0x00000000401ffb7c                CRYPTO_ofb128_encrypt
                0x00000000401ffcb2                i2d_ASN1_BOOLEAN
                0x00000000401ffd26                d2i_ASN1_BOOLEAN
                0x000000004020000b                ASN1_mbstring_ncopy
                0x0000000040200524                ASN1_mbstring_copy
                0x0000000040200540                ASN1_PRINTABLE_type
                0x00000000402005ca                ASN1_UNIVERSALSTRING_to_string
                0x00000000402006c6                ASN1_STRING_set_default_mask
                0x00000000402006ce                ASN1_STRING_get_default_mask
                0x00000000402006d6                ASN1_STRING_set_default_mask_asc
                0x0000000040200795                ASN1_STRING_TABLE_get
                0x00000000402007f9                ASN1_STRING_set_by_NID
                0x00000000402008a4                ASN1_STRING_TABLE_add
                0x00000000402009b8                ASN1_STRING_TABLE_cleanup
                0x00000000402009f0                ASN1_seq_unpack
                0x0000000040200a52                ASN1_seq_pack
                0x0000000040200b42                ASN1_unpack_string
                0x0000000040200b92                ASN1_pack_string
                0x0000000040200cb1                ASN1_item_pack
                0x0000000040200dc1                ASN1_item_unpack
                0x0000000040200e20                BN_mod_exp2_mont
                0x00000000402015f0                BN_kronecker
                0x00000000402018c1                BN_get0_nist_prime_192
                0x00000000402018c7                BN_get0_nist_prime_224
                0x00000000402018cd                BN_get0_nist_prime_256
                0x00000000402018d3                BN_get0_nist_prime_384
                0x00000000402018d9                BN_get0_nist_prime_521
                0x00000000402018df                BN_nist_mod_192
                0x0000000040201b5b                BN_nist_mod_224
                0x0000000040201eb1                BN_nist_mod_256
                0x0000000040202388                BN_nist_mod_384
                0x00000000402029c6                BN_nist_mod_521
                0x0000000040202ba0                BN_mod_sqrt
                0x0000000040203517                CONF_modules_load
                0x00000000402039d4                CONF_modules_finish
                0x0000000040203a41                CONF_modules_unload
                0x0000000040203ae3                CONF_module_add
                0x0000000040203b08                CONF_modules_free
                0x0000000040203b20                CONF_imodule_get_name
                0x0000000040203b25                CONF_imodule_get_value
                0x0000000040203b2a                CONF_imodule_get_usr_data
                0x0000000040203b2f                CONF_imodule_set_usr_data
                0x0000000040203b34                CONF_imodule_get_module
                0x0000000040203b38                CONF_imodule_get_flags
                0x0000000040203b3d                CONF_imodule_set_flags
                0x0000000040203b42                CONF_module_get_usr_data
                0x0000000040203b47                CONF_module_set_usr_data
                0x0000000040203b4c                CONF_get1_default_config_file
                0x0000000040203bc8                CONF_modules_load_file
                0x0000000040203c81                CONF_parse_list
                0x0000000040203d90                DSO_set_default_method
                0x0000000040203d98                DSO_get_default_method
                0x0000000040203da0                DSO_get_method
                0x0000000040203da4                DSO_set_method
                0x0000000040203dab                DSO_new_method
                0x0000000040203eaa                DSO_new
                0x0000000040203ebd                DSO_free
                0x0000000040203fca                DSO_flags
                0x0000000040203fd9                DSO_up_ref
                0x000000004020402e                DSO_bind_var
                0x00000000402040c1                DSO_bind_func
                0x0000000040204154                DSO_ctrl
                0x00000000402041ec                DSO_set_name_converter
                0x0000000040204234                DSO_get_filename
                0x000000004020426b                DSO_set_filename
                0x000000004020434f                DSO_load
                0x00000000402044e8                DSO_merge
                0x000000004020454c                DSO_convert_filename
                0x000000004020464c                DSO_get_loaded_filename
                0x0000000040204683                DSO_pathbyaddr
                0x00000000402046e0                DSO_global_lookup
                0x000000004020472b                DSO_METHOD_openssl
                0x0000000040204740                ec_GF2m_simple_is_at_infinity
                0x000000004020474b                ec_GF2m_simple_points_make_affine
                0x00000000402047a2                ec_GF2m_simple_group_init
                0x00000000402047ce                ec_GF2m_simple_point_init
                0x00000000402047f4                ec_GF2m_simple_group_finish
                0x000000004020481b                ec_GF2m_simple_point_finish
                0x000000004020483c                ec_GF2m_simple_group_clear_finish
                0x000000004020489f                ec_GF2m_simple_point_clear_finish
                0x00000000402048c7                ec_GF2m_simple_group_get_curve
                0x0000000040204938                ec_GF2m_simple_point_copy
                0x000000004020499f                ec_GF2m_simple_group_copy
                0x0000000040204b3b                ec_GF2m_simple_group_set_curve
                0x0000000040204cd7                ec_GF2m_simple_group_get_degree
                0x0000000040204cec                ec_GF2m_simple_group_check_discriminant
                0x0000000040204da5                ec_GF2m_simple_point_set_to_infinity
                0x0000000040204dc8                ec_GF2m_simple_point_set_affine_coordinates
                0x0000000040204e8f                ec_GF2m_simple_point_get_affine_coordinates
                0x0000000040204f6d                ec_GF2m_simple_is_on_curve
                0x000000004020510e                ec_GF2m_simple_set_compressed_coordinates
                0x00000000402053a3                ec_GF2m_simple_cmp
                0x0000000040205540                ec_GF2m_simple_make_affine
                0x000000004020564e                ec_GF2m_simple_point2oct
                0x0000000040205a03                ec_GF2m_simple_oct2point
                0x0000000040205dbf                ec_GF2m_simple_add
                0x00000000402062a8                ec_GF2m_simple_dbl
                0x00000000402062bc                ec_GF2m_simple_invert
                0x000000004020630a                ec_GF2m_simple_field_mul
                0x000000004020632b                ec_GF2m_simple_field_sqr
                0x0000000040206349                ec_GF2m_simple_field_div
                0x0000000040206367                EC_GF2m_simple_method
                0x000000004020636d                d2i_ECDSA_SIG
                0x0000000040206380                i2d_ECDSA_SIG
                0x0000000040206393                ECDSA_SIG_new
                0x00000000402063a6                ECDSA_SIG_free
                0x00000000402063d2                ERR_print_errors_cb
                0x00000000402064a2                ERR_print_errors
                0x00000000402064b8                PKCS12_item_pack_safebag
                0x0000000040206596                PKCS12_MAKE_KEYBAG
                0x00000000402065ed                PKCS12_MAKE_SHKEYBAG
                0x00000000402066cf                PKCS12_pack_p7data
                0x000000004020679b                PKCS12_unpack_p7data
                0x00000000402067e3                PKCS12_pack_p7encdata
                0x0000000040206977                PKCS12_unpack_p7encdata
                0x00000000402069c8                PKCS12_decrypt_skey
                0x00000000402069da                PKCS12_pack_authsafes
                0x0000000040206a04                PKCS12_unpack_authsafes
                0x0000000040206a54                d2i_PKCS12
                0x0000000040206a67                i2d_PKCS12
                0x0000000040206a7a                PKCS12_new
                0x0000000040206a8d                PKCS12_free
                0x0000000040206aa0                d2i_PKCS12_MAC_DATA
                0x0000000040206ab3                i2d_PKCS12_MAC_DATA
                0x0000000040206ac6                PKCS12_MAC_DATA_new
                0x0000000040206ad9                PKCS12_MAC_DATA_free
                0x0000000040206aec                d2i_PKCS12_BAGS
                0x0000000040206aff                i2d_PKCS12_BAGS
                0x0000000040206b12                PKCS12_BAGS_new
                0x0000000040206b25                PKCS12_BAGS_free
                0x0000000040206b38                d2i_PKCS12_SAFEBAG
                0x0000000040206b4b                i2d_PKCS12_SAFEBAG
                0x0000000040206b5e                PKCS12_SAFEBAG_new
                0x0000000040206b71                PKCS12_SAFEBAG_free
                0x0000000040206b84                PKCS12_pbe_crypt
                0x0000000040206ce9                PKCS12_item_decrypt_d2i
                0x0000000040206db9                PKCS12_item_i2d_encrypt
                0x0000000040206ee7                PKCS8_encrypt
                0x000000004020700c                X509_policy_tree_level_count
                0x000000004020701b                X509_policy_tree_get0_level
                0x0000000040207045                X509_policy_tree_get0_policies
                0x0000000040207055                X509_policy_tree_get0_user_policies
                0x0000000040207070                X509_policy_level_node_count
                0x000000004020709c                X509_policy_level_get0_node
                0x00000000402070ca                X509_policy_node_get0_policy
                0x00000000402070dd                X509_policy_node_get0_qualifiers
                0x00000000402070f0                X509_policy_node_get0_parent
                0x0000000040207122                policy_node_cmp_new
                0x0000000040207135                tree_find_sk
                0x0000000040207172                level_find_node
                0x00000000402071d4                level_add_node
                0x00000000402072ba                policy_node_free
                0x00000000402072c8                policy_node_match
                0x00000000402074bc                i2v_GENERAL_NAME
                0x00000000402076e4                i2v_GENERAL_NAMES
                0x0000000040207740                GENERAL_NAME_print
                0x00000000402078cb                a2i_GENERAL_NAME
                0x0000000040207c66                v2i_GENERAL_NAME_ex
                0x0000000040207dc0                v2i_GENERAL_NAME
                0x0000000040208105                v2i_GENERAL_NAMES
                0x00000000402081e3                d2i_BASIC_CONSTRAINTS
                0x00000000402081f6                i2d_BASIC_CONSTRAINTS
                0x0000000040208209                BASIC_CONSTRAINTS_new
                0x000000004020821c                BASIC_CONSTRAINTS_free
                0x000000004020896f                X509V3_EXT_nconf
                0x0000000040208a33                X509V3_EXT_nconf_nid
                0x0000000040208aaf                X509V3_EXT_i2d
                0x0000000040208afe                X509V3_EXT_add_nconf_sk
                0x0000000040208b9f                X509V3_EXT_add_nconf
                0x0000000040208bc0                X509V3_EXT_CRL_add_nconf
                0x0000000040208be1                X509V3_EXT_REQ_add_nconf
                0x0000000040208c39                X509V3_get_string
                0x0000000040208c87                X509V3_get_section
                0x0000000040208cd6                X509V3_string_free
                0x0000000040208cf8                X509V3_section_free
                0x0000000040208d1a                X509V3_set_nconf
                0x0000000040208d27                X509V3_set_ctx
                0x0000000040208d3b                X509V3_EXT_conf
                0x0000000040208d75                X509V3_EXT_conf_nid
                0x0000000040208dad                X509V3_set_conf_lhash
                0x0000000040208dba                X509V3_EXT_add_conf
                0x0000000040208df4                X509V3_EXT_CRL_add_conf
                0x0000000040208e2e                X509V3_EXT_REQ_add_conf
                0x0000000040208faa                ACCESS_DESCRIPTION_free
                0x0000000040208fbd                d2i_ACCESS_DESCRIPTION
                0x0000000040208fd0                i2d_ACCESS_DESCRIPTION
                0x0000000040208fe3                ACCESS_DESCRIPTION_new
                0x0000000040209212                d2i_AUTHORITY_INFO_ACCESS
                0x0000000040209225                i2d_AUTHORITY_INFO_ACCESS
                0x0000000040209238                AUTHORITY_INFO_ACCESS_new
                0x000000004020924b                AUTHORITY_INFO_ACCESS_free
                0x000000004020925e                i2a_ACCESS_DESCRIPTION
                0x00000000402092ab                X509V3_EXT_add
                0x0000000040209334                X509V3_EXT_get_nid
                0x00000000402093b3                X509V3_EXT_get
                0x00000000402093d4                X509V3_EXT_add_list
                0x0000000040209402                X509V3_EXT_add_alias
                0x00000000402094fc                X509V3_EXT_cleanup
                0x0000000040209521                X509V3_add_standard_extensions
                0x0000000040209527                X509V3_EXT_d2i
                0x0000000040209580                X509V3_get_d2i
                0x00000000402096af                X509V3_add1_i2d
                0x000000004020a618                d2i_PROXY_POLICY
                0x000000004020a62b                i2d_PROXY_POLICY
                0x000000004020a63e                PROXY_POLICY_new
                0x000000004020a651                PROXY_POLICY_free
                0x000000004020a664                d2i_PROXY_CERT_INFO_EXTENSION
                0x000000004020a677                i2d_PROXY_CERT_INFO_EXTENSION
                0x000000004020a68a                PROXY_CERT_INFO_EXTENSION_new
                0x000000004020a69d                PROXY_CERT_INFO_EXTENSION_free
                0x000000004020a744                d2i_PKEY_USAGE_PERIOD
                0x000000004020a757                i2d_PKEY_USAGE_PERIOD
                0x000000004020a76a                PKEY_USAGE_PERIOD_new
                0x000000004020a77d                PKEY_USAGE_PERIOD_free
                0x000000004020a790                i2s_ASN1_OCTET_STRING
                0x000000004020a7a8                s2i_ASN1_OCTET_STRING
                0x000000004020aa3d                d2i_SXNETID
                0x000000004020aa50                i2d_SXNETID
                0x000000004020aa63                SXNETID_new
                0x000000004020aa76                SXNETID_free
                0x000000004020aa89                d2i_SXNET
                0x000000004020aa9c                i2d_SXNET
                0x000000004020aaaf                SXNET_new
                0x000000004020aac2                SXNET_free
                0x000000004020aad5                SXNET_get_id_INTEGER
                0x000000004020ab30                SXNET_add_id_INTEGER
                0x000000004020acc8                SXNET_add_id_asc
                0x000000004020ad80                SXNET_add_id_ulong
                0x000000004020adfd                SXNET_get_id_asc
                0x000000004020ae5e                SXNET_get_id_ulong
                0x000000004020aed5                X509_get_default_private_dir
                0x000000004020aedb                X509_get_default_cert_area
                0x000000004020aee1                X509_get_default_cert_dir
                0x000000004020aee7                X509_get_default_cert_file
                0x000000004020aeed                X509_get_default_cert_dir_env
                0x000000004020aef3                X509_get_default_cert_file_env
                0x000000004020af34                i2d_ASN1_SET
                0x000000004020b1bd                d2i_ASN1_SET
                0x000000004020ba63                ASN1_generate_v3
                0x000000004020c325                ASN1_generate_nconf
                0x000000004020c527                BN_GF2m_add
                0x000000004020c5fd                BN_GF2m_mod_arr
                0x000000004020c88f                BN_GF2m_mod_sqr_arr
                0x000000004020ca0e                BN_GF2m_mod_mul_arr
                0x000000004020cc85                BN_GF2m_mod_exp_arr
                0x000000004020cda1                BN_GF2m_mod_sqrt_arr
                0x000000004020ce32                BN_GF2m_mod_solve_quad_arr
                0x000000004020d1f6                BN_GF2m_poly2arr
                0x000000004020d287                BN_GF2m_mod
                0x000000004020d331                BN_GF2m_mod_inv
                0x000000004020d512                BN_GF2m_mod_mul
                0x000000004020d5ce                BN_GF2m_mod_div
                0x000000004020d658                BN_GF2m_mod_sqr
                0x000000004020d70c                BN_GF2m_mod_exp
                0x000000004020d7c8                BN_GF2m_mod_sqrt
                0x000000004020d87c                BN_GF2m_mod_solve_quad
                0x000000004020d930                BN_GF2m_arr2poly
                0x000000004020d983                BN_GF2m_mod_inv_arr
                0x000000004020d9f5                BN_GF2m_mod_div_arr
                0x000000004020da80                CONF_set_nconf
                0x000000004020daba                CONF_set_default_method
                0x000000004020dac7                CONF_load
                0x000000004020daf4                NCONF_new
                0x000000004020db34                NCONF_free
                0x000000004020db49                NCONF_free_data
                0x000000004020db5e                CONF_free
                0x000000004020db7e                NCONF_load
                0x000000004020dbb6                NCONF_load_bio
                0x000000004020dbee                CONF_load_bio
                0x000000004020dc2e                NCONF_get_section
                0x000000004020dc8e                CONF_get_section
                0x000000004020dcc3                NCONF_get_string
                0x000000004020dd50                CONF_get_string
                0x000000004020dd8c                NCONF_get_number_e
                0x000000004020de28                CONF_get_number
                0x000000004020de81                NCONF_dump_bio
                0x000000004020deb9                CONF_dump_bio
                0x000000004020dee1                DSO_METHOD_null
                0x000000004020e7e8                ec_GF2m_simple_mul
                0x000000004020ea83                ec_GF2m_precompute_mult
                0x000000004020ea91                ec_GF2m_have_precompute_mult
                0x000000004020eaa0                i2a_ASN1_INTEGER
                0x000000004020ebe2                a2i_ASN1_INTEGER
                0x000000004020eecf                i2a_ASN1_STRING
                0x000000004020efe4                a2i_ASN1_STRING
                0x000000004020f28c                d2i_OCSP_SIGNATURE
                0x000000004020f29f                i2d_OCSP_SIGNATURE
                0x000000004020f2b2                OCSP_SIGNATURE_new
                0x000000004020f2c5                OCSP_SIGNATURE_free
                0x000000004020f2d8                d2i_OCSP_CERTID
                0x000000004020f2eb                i2d_OCSP_CERTID
                0x000000004020f2fe                OCSP_CERTID_new
                0x000000004020f311                OCSP_CERTID_free
                0x000000004020f324                d2i_OCSP_ONEREQ
                0x000000004020f337                i2d_OCSP_ONEREQ
                0x000000004020f34a                OCSP_ONEREQ_new
                0x000000004020f35d                OCSP_ONEREQ_free
                0x000000004020f370                d2i_OCSP_REQINFO
                0x000000004020f383                i2d_OCSP_REQINFO
                0x000000004020f396                OCSP_REQINFO_new
                0x000000004020f3a9                OCSP_REQINFO_free
                0x000000004020f3bc                d2i_OCSP_REQUEST
                0x000000004020f3cf                i2d_OCSP_REQUEST
                0x000000004020f3e2                OCSP_REQUEST_new
                0x000000004020f3f5                OCSP_REQUEST_free
                0x000000004020f408                d2i_OCSP_RESPBYTES
                0x000000004020f41b                i2d_OCSP_RESPBYTES
                0x000000004020f42e                OCSP_RESPBYTES_new
                0x000000004020f441                OCSP_RESPBYTES_free
                0x000000004020f454                d2i_OCSP_RESPONSE
                0x000000004020f467                i2d_OCSP_RESPONSE
                0x000000004020f47a                OCSP_RESPONSE_new
                0x000000004020f48d                OCSP_RESPONSE_free
                0x000000004020f4a0                d2i_OCSP_RESPID
                0x000000004020f4b3                i2d_OCSP_RESPID
                0x000000004020f4c6                OCSP_RESPID_new
                0x000000004020f4d9                OCSP_RESPID_free
                0x000000004020f4ec                d2i_OCSP_REVOKEDINFO
                0x000000004020f4ff                i2d_OCSP_REVOKEDINFO
                0x000000004020f512                OCSP_REVOKEDINFO_new
                0x000000004020f525                OCSP_REVOKEDINFO_free
                0x000000004020f538                d2i_OCSP_CERTSTATUS
                0x000000004020f54b                i2d_OCSP_CERTSTATUS
                0x000000004020f55e                OCSP_CERTSTATUS_new
                0x000000004020f571                OCSP_CERTSTATUS_free
                0x000000004020f584                d2i_OCSP_SINGLERESP
                0x000000004020f597                i2d_OCSP_SINGLERESP
                0x000000004020f5aa                OCSP_SINGLERESP_new
                0x000000004020f5bd                OCSP_SINGLERESP_free
                0x000000004020f5d0                d2i_OCSP_RESPDATA
                0x000000004020f5e3                i2d_OCSP_RESPDATA
                0x000000004020f5f6                OCSP_RESPDATA_new
                0x000000004020f609                OCSP_RESPDATA_free
                0x000000004020f61c                d2i_OCSP_BASICRESP
                0x000000004020f62f                i2d_OCSP_BASICRESP
                0x000000004020f642                OCSP_BASICRESP_new
                0x000000004020f655                OCSP_BASICRESP_free
                0x000000004020f668                d2i_OCSP_CRLID
                0x000000004020f67b                i2d_OCSP_CRLID
                0x000000004020f68e                OCSP_CRLID_new
                0x000000004020f6a1                OCSP_CRLID_free
                0x000000004020f6b4                d2i_OCSP_SERVICELOC
                0x000000004020f6c7                i2d_OCSP_SERVICELOC
                0x000000004020f6da                OCSP_SERVICELOC_new
                0x000000004020f6ed                OCSP_SERVICELOC_free
                0x000000004020fa99                i2v_ASN1_BIT_STRING
                0x000000004020faea                v2i_ASN1_BIT_STRING
                0x000000004020fc60                i2s_ASN1_ENUMERATED_TABLE
                0x000000004020fe1d                d2i_EXTENDED_KEY_USAGE
                0x000000004020fe30                i2d_EXTENDED_KEY_USAGE
                0x000000004020fe43                EXTENDED_KEY_USAGE_new
                0x000000004020fe56                EXTENDED_KEY_USAGE_free
                0x00000000402100bd                _CONF_get_section
                0x00000000402100f4                _CONF_get_section_values
                0x0000000040210112                _CONF_add_string
                0x000000004021017e                _CONF_get_string
                0x0000000040210211                _CONF_new_data
                0x000000004021024b                _CONF_free_data
                0x000000004021028f                _CONF_new_section
                0x00000000402111fd                NCONF_default
                0x0000000040211203                NCONF_WIN32
                0x0000000040211209                codeend = .

.iplt           0x0000000040211210        0x0 load address 0x0000000000211210
 .iplt          0x0000000000000000        0x0 output.o

.rodata         0x0000000040211220    0x343cb load address 0x0000000000211220
 .rodata        0x0000000040211220    0x343cb output.o
                0x000000004021e8a0                BN_version
                0x000000004021eb80                DES_SPtrans
                0x000000004021fb80                DH_version
                0x0000000040221060                OSSL_DES_version
                0x00000000402210a0                OSSL_libdes_version
                0x0000000040221180                EVP_version
                0x0000000040221240                IDEA_version
                0x0000000040221280                lh_version
                0x00000000402218c0                MD4_version
                0x0000000040221900                MD5_version
                0x000000004022e4a0                PEM_version
                0x000000004022e4e0                PKCS7_ATTR_VERIFY_it
                0x000000004022e560                PKCS7_ATTR_SIGN_it
                0x000000004022e5e0                PKCS7_DIGEST_it
                0x000000004022e6c0                PKCS7_ENCRYPT_it
                0x000000004022e760                PKCS7_SIGN_ENVELOPE_it
                0x000000004022e8c0                PKCS7_ENC_CONTENT_it
                0x000000004022e980                PKCS7_RECIP_INFO_it
                0x000000004022eaa0                PKCS7_ENVELOPE_it
                0x000000004022eb60                PKCS7_ISSUER_AND_SERIAL_it
                0x000000004022ec00                PKCS7_SIGNER_INFO_it
                0x000000004022eda0                PKCS7_SIGNED_it
                0x000000004022eee0                PKCS7_it
                0x000000004022f260                RC2_version
                0x000000004022f3a0                RC4_version
                0x000000004022f3e0                RMD160_version
                0x000000004022f420                RSAPublicKey_it
                0x000000004022f500                RSAPrivateKey_it
                0x000000004022f700                RSA_version
                0x0000000040230900                SHA1_version
                0x0000000040230a40                SHA256_version
                0x0000000040230d00                SHA512_version
                0x0000000040230d40                SHA_version
                0x0000000040230d80                STACK_version
                0x0000000040230fe0                ASN1_SET_ANY_it
                0x0000000040231060                ASN1_SEQUENCE_ANY_it
                0x00000000402310e0                ASN1_OCTET_STRING_NDEF_it
                0x0000000040231120                ASN1_FBOOLEAN_it
                0x0000000040231160                ASN1_TBOOLEAN_it
                0x00000000402311a0                ASN1_BOOLEAN_it
                0x00000000402311e0                DIRECTORYSTRING_it
                0x0000000040231220                DISPLAYTEXT_it
                0x0000000040231260                ASN1_PRINTABLE_it
                0x00000000402312a0                ASN1_SEQUENCE_it
                0x00000000402312e0                ASN1_ANY_it
                0x0000000040231320                ASN1_BMPSTRING_it
                0x0000000040231360                ASN1_UNIVERSALSTRING_it
                0x00000000402313a0                ASN1_VISIBLESTRING_it
                0x00000000402313e0                ASN1_GENERALIZEDTIME_it
                0x0000000040231420                ASN1_UTCTIME_it
                0x0000000040231460                ASN1_GENERALSTRING_it
                0x00000000402314a0                ASN1_IA5STRING_it
                0x00000000402314e0                ASN1_T61STRING_it
                0x0000000040231520                ASN1_PRINTABLESTRING_it
                0x0000000040231560                ASN1_UTF8STRING_it
                0x00000000402315a0                ASN1_OBJECT_it
                0x00000000402315e0                ASN1_NULL_it
                0x0000000040231620                ASN1_OCTET_STRING_it
                0x0000000040231660                ASN1_BIT_STRING_it
                0x00000000402316a0                ASN1_ENUMERATED_it
                0x00000000402316e0                ASN1_INTEGER_it
                0x0000000040231740                X509_version
                0x00000000402318a0                X509_ALGORS_it
                0x0000000040231920                X509_ALGOR_it
                0x00000000402319c0                X509_ATTRIBUTE_it
                0x0000000040231a60                X509_ATTRIBUTE_SET_it
                0x0000000040231b00                CBIGNUM_it
                0x0000000040231b40                BIGNUM_it
                0x0000000040231b80                X509_CRL_it
                0x0000000040231c80                X509_CRL_INFO_it
                0x0000000040231e20                X509_REVOKED_it
                0x0000000040231ee0                X509_EXTENSIONS_it
                0x0000000040231f60                X509_EXTENSION_it
                0x0000000040232020                ZLONG_it
                0x0000000040232060                LONG_it
                0x00000000402320a0                X509_NAME_it
                0x00000000402320e0                x509_name_ff
                0x0000000040232120                X509_NAME_INTERNAL_it
                0x00000000402321a0                X509_NAME_ENTRIES_it
                0x0000000040232220                X509_NAME_ENTRY_it
                0x00000000402322c0                X509_PUBKEY_it
                0x00000000402323a0                X509_REQ_it
                0x00000000402324a0                X509_REQ_INFO_it
                0x00000000402325c0                X509_SIG_it
                0x0000000040232660                NETSCAPE_SPKI_it
                0x0000000040232720                NETSCAPE_SPKAC_it
                0x00000000402327c0                X509_it
                0x00000000402328c0                X509_CINF_it
                0x0000000040232ae0                X509_CERT_PAIR_it
                0x0000000040232b80                X509_CERT_AUX_it
                0x0000000040233120                rsa_pkey_meth
                0x0000000040233200                dh_pkey_meth
                0x00000000402332e0                dsa_pkey_meth
                0x00000000402333c0                ec_pkey_meth
                0x00000000402334a0                hmac_pkey_meth
                0x00000000402335c0                rsa_asn1_meths
                0x0000000040233740                dh_asn1_meth
                0x0000000040233800                dsa_asn1_meths
                0x0000000040233ba0                eckey_asn1_meth
                0x0000000040233c60                hmac_asn1_meth
                0x0000000040234da0                CMS_Receipt_it
                0x0000000040234e80                CMS_ReceiptRequest_it
                0x0000000040234f40                CMS_ReceiptsFrom_it
                0x0000000040234fe0                CMS_Attributes_Verify_it
                0x0000000040235060                CMS_Attributes_Sign_it
                0x00000000402350e0                CMS_ContentInfo_it
                0x00000000402353a0                CMS_CompressedData_it
                0x0000000040235460                CMS_AuthenticatedData_it
                0x0000000040235620                CMS_EncryptedData_it
                0x00000000402356e0                CMS_DigestedData_it
                0x00000000402357c0                CMS_EnvelopedData_it
                0x00000000402358e0                CMS_RecipientInfo_it
                0x0000000040235a40                CMS_OtherRecipientInfo_it
                0x0000000040235ae0                CMS_PasswordRecipientInfo_it
                0x0000000040235bc0                CMS_KEKRecipientInfo_it
                0x0000000040235ca0                CMS_KEKIdentifier_it
                0x0000000040235d60                CMS_KeyAgreeRecipientInfo_it
                0x0000000040235e80                CMS_OriginatorIdentifierOrKey_it
                0x0000000040235f40                CMS_OriginatorPublicKey_it
                0x0000000040235fe0                CMS_RecipientEncryptedKey_it
                0x0000000040236080                CMS_KeyAgreeRecipientIdentifier_it
                0x0000000040236120                CMS_RecipientKeyIdentifier_it
                0x00000000402361e0                CMS_OtherKeyAttribute_it
                0x0000000040236280                CMS_KeyTransRecipientInfo_it
                0x0000000040236360                CMS_EncryptedContentInfo_it
                0x0000000040236420                CMS_OriginatorInfo_it
                0x00000000402364c0                CMS_SignedData_it
                0x0000000040236600                CMS_RevocationInfoChoice_it
                0x00000000402366a0                CMS_OtherRevocationInfoFormat_it
                0x0000000040236740                CMS_SignerInfo_it
                0x00000000402368e0                CMS_EncapsulatedContentInfo_it
                0x0000000040236980                CMS_SignerIdentifier_it
                0x0000000040236a20                CMS_CertificateChoices_it
                0x0000000040236b40                CMS_OtherCertificateFormat_it
                0x0000000040236be0                CMS_IssuerAndSerialNumber_it
                0x0000000040236e60                ASN1_TIME_it
                0x0000000040236ee0                ASN1_version
                0x0000000040237020                BF_version
                0x0000000040239240                CAST_version
                0x0000000040239300                CAST_S_table7
                0x0000000040239700                CAST_S_table6
                0x0000000040239b00                CAST_S_table5
                0x0000000040239f00                CAST_S_table4
                0x000000004023a300                CAST_S_table3
                0x000000004023a700                CAST_S_table2
                0x000000004023ab00                CAST_S_table1
                0x000000004023af00                CAST_S_table0
                0x000000004023b540                DHparams_it
                0x000000004023b640                DSAPublicKey_it
                0x000000004023b720                dsa_pub_internal_it
                0x000000004023b800                DSAparams_it
                0x000000004023b900                DSAPrivateKey_it
                0x000000004023ba80                DSA_SIG_it
                0x000000004023bb60                DSA_version
                0x000000004023bba0                EC_PRIVATEKEY_it
                0x000000004023bc80                ECPKPARAMETERS_it
                0x000000004023bd40                ECPARAMETERS_it
                0x000000004023be80                X9_62_CURVE_it
                0x000000004023bf40                X9_62_FIELDID_it
                0x000000004023c0c0                X9_62_CHARACTERISTIC_TWO_it
                0x000000004023c2a0                X9_62_PENTANOMIAL_it
                0x000000004023fce0                ECDH_version
                0x00000000402400e0                ECDSA_version
                0x00000000402403e0                RAND_version
                0x0000000040240420                NETSCAPE_CERT_SEQUENCE_it
                0x0000000040240500                PBEPARAM_it
                0x00000000402405a0                PBKDF2PARAM_it
                0x0000000040240680                PBE2PARAM_it
                0x0000000040240720                PKCS8_PRIV_KEY_INFO_it
                0x00000000402408e0                AUTHORITY_KEYID_it
                0x00000000402409a0                NOTICEREF_it
                0x0000000040240a40                USERNOTICE_it
                0x0000000040240ae0                POLICYQUALINFO_it
                0x0000000040240c60                POLICYINFO_it
                0x0000000040240d00                CERTIFICATEPOLICIES_it
                0x0000000040240d80                v3_cpols
                0x0000000040240e00                v3_idp
                0x0000000040240e80                ISSUING_DIST_POINT_it
                0x0000000040240fc0                CRL_DIST_POINTS_it
                0x0000000040241040                DIST_POINT_it
                0x0000000040241100                DIST_POINT_NAME_it
                0x00000000402412e0                v3_freshest_crl
                0x0000000040241360                v3_crld
                0x00000000402414c0                GENERAL_NAMES_it
                0x0000000040241540                GENERAL_NAME_it
                0x0000000040241700                EDIPARTYNAME_it
                0x00000000402417a0                OTHERNAME_it
                0x0000000040241840                NAME_CONSTRAINTS_it
                0x00000000402418e0                GENERAL_SUBTREE_it
                0x00000000402419a0                v3_name_constraints
                0x0000000040241a20                POLICY_CONSTRAINTS_it
                0x0000000040241ac0                v3_policy_constraints
                0x0000000040241b40                POLICY_MAPPINGS_it
                0x0000000040241bc0                POLICY_MAPPING_it
                0x0000000040241c60                v3_policy_mappings
                0x0000000040241d40                X509_VAL_it
                0x00000000402427e0                ECDSA_SIG_it
                0x0000000040242880                PKCS12_AUTHSAFES_it
                0x0000000040242900                PKCS12_SAFEBAGS_it
                0x0000000040242980                PKCS12_SAFEBAG_it
                0x0000000040242be0                PKCS12_BAGS_it
                0x0000000040242da0                PKCS12_MAC_DATA_it
                0x0000000040242e60                PKCS12_it
                0x0000000040243000                v3_alt
                0x0000000040243140                BASIC_CONSTRAINTS_it
                0x00000000402431e0                v3_bcons
                0x0000000040243260                AUTHORITY_INFO_ACCESS_it
                0x00000000402432e0                ACCESS_DESCRIPTION_it
                0x0000000040243380                v3_sinfo
                0x0000000040243400                v3_info
                0x0000000040243480                v3_ocsp_serviceloc
                0x0000000040243500                v3_ocsp_nocheck
                0x0000000040243580                v3_ocsp_nonce
                0x0000000040243600                v3_crl_hold
                0x0000000040243680                v3_crl_invdate
                0x0000000040243700                v3_ocsp_acutoff
                0x0000000040243780                v3_ocsp_crlid
                0x0000000040243800                v3_pci
                0x0000000040243880                PROXY_CERT_INFO_EXTENSION_it
                0x0000000040243920                PROXY_POLICY_it
                0x00000000402439c0                PKEY_USAGE_PERIOD_it
                0x0000000040243a60                v3_pkey_usage_period
                0x0000000040243ae0                v3_skey_id
                0x0000000040243b60                SXNET_it
                0x0000000040243c00                SXNETID_it
                0x0000000040243ca0                v3_sxnet
                0x00000000402441c0                CONF_version
                0x0000000040244200                OCSP_SERVICELOC_it
                0x00000000402442a0                OCSP_CRLID_it
                0x0000000040244360                OCSP_BASICRESP_it
                0x0000000040244440                OCSP_RESPDATA_it
                0x0000000040244560                OCSP_SINGLERESP_it
                0x0000000040244680                OCSP_CERTSTATUS_it
                0x0000000040244740                OCSP_REVOKEDINFO_it
                0x00000000402447e0                OCSP_RESPID_it
                0x0000000040244880                OCSP_RESPONSE_it
                0x0000000040244920                OCSP_RESPBYTES_it
                0x00000000402449c0                OCSP_REQUEST_it
                0x0000000040244a60                OCSP_REQINFO_it
                0x0000000040244b40                OCSP_ONEREQ_it
                0x0000000040244be0                OCSP_CERTID_it
                0x0000000040244cc0                OCSP_SIGNATURE_it
                0x0000000040244d80                v3_akey_id
                0x0000000040244e00                v3_key_usage
                0x0000000040244e80                v3_nscert
                0x0000000040244f00                v3_crl_reason
                0x0000000040244f80                EXTENDED_KEY_USAGE_it
                0x0000000040245000                v3_ocsp_accresp
                0x0000000040245080                v3_ext_ku
                0x0000000040245100                v3_ns_ia5_list
                0x0000000040245440                v3_inhibit_anyp
                0x00000000402454c0                v3_delta_crl
                0x0000000040245540                v3_crl_num
                0x00000000402455c0                CONF_def_version

.rodata.str1.8  0x00000000402455f0     0x9a30 load address 0x00000000002455f0
 .rodata.str1.8
                0x00000000402455f0     0x9a30 output.o
                                       0x9d5d (size before relaxing)

.rodata.str1.1  0x000000004024f020    0x127a6 load address 0x000000000024f020
 .rodata.str1.1
                0x000000004024f020    0x127a6 output.o
                                      0x14b85 (size before relaxing)

.eh_frame       0x00000000402617c8    0x37ca8 load address 0x00000000002617c8
 .eh_frame      0x00000000402617c8    0x37ca8 output.o

.eh_frame_hdr   0x0000000040299470        0x8 load address 0x0000000000299470
 .eh_frame_hdr  0x0000000040299470        0x8 output.o

.note.gnu.build-id
                0x0000000040299478      0x288 load address 0x0000000000299478
 .note.gnu.build-id
                0x0000000040299478      0x288 output.o

.rela.dyn       0x0000000040299700        0x0 load address 0x0000000000299700
 .rela.iplt     0x0000000000000000        0x0 output.o
 .rela.text     0x0000000000000000        0x0 output.o
 .rela.entry.text
                0x0000000000000000        0x0 output.o

.data           0x000000004029a000   0xb55e70 load address 0x000000000029a000
                0x000000004029a000                data = .
 *(.data)
 .data          0x000000004029a000   0xb555af output.o
                0x000000004029a008                uefi_memory_map_size
                0x000000004029a020                config
                0x00000000402aa210                vmm_start_phys
                0x00000000402aa214                use_pae
                0x00000000402aa430                savemsr_index
                0x00000000402af000                calluefi
                0x00000000402af20c                calluefi_uefi_gdtr
                0x00000000402af21c                calluefi_uefi_idtr
                0x00000000402af22c                calluefi_uefi_ldtr
                0x00000000402af234                calluefi_uefi_sregs
                0x00000000402af244                calluefi_uefi_cr3
                0x00000000402af24c                guest_int0x15_hook
                0x00000000402af269                guest_int0x15_e801_fake_ax
                0x00000000402af26c                guest_int0x15_e801_fake_bx
                0x00000000402af27d                guest_int0x15_orig
                0x00000000402af292                guest_int0x15_e820_data_minus0x18
                0x00000000402af29a                guest_int0x15_e820_end
                0x00000000402af2c0                guest_int0x15_hook_end
                0x00000000402b02c4                wakeup_entry_start
                0x00000000402b02cd                wakeup_entry_addr
                0x00000000402b02f3                wakeup_entry_cr4
                0x00000000402b02fc                wakeup_entry_cr3
                0x00000000402b0305                wakeup_entry_cr0
                0x00000000402b0314                wakeup_entry_gdtr
                0x00000000402b031e                wakeup_entry_end
                0x00000000402b03a0                ata_bm_handler_table
                0x00000000402b0400                ata_ctlblk_handler_table
                0x00000000402b0420                ata_cmdblk_handler_table
                0x00000000402b0eb0                usb_log_level
                0x00000000402b1900                hSessionCnt
                0x00000000402b1908                hObjectCnt
                0x00000000402b2100                g_rgSCardT1Pci
                0x00000000402b2110                g_rgSCardT0Pci
                0x00000000402b2120                FI
                0x00000000402b2160                DI
                0x00000000402b67a0                default_pctx
                0x00000000402b9a20                rand_ssleay_meth
                0x0000000040def5b0                . = ALIGN (0x8)
 *fill*         0x0000000040def5af        0x1 
                0x0000000040def5b0                __initfunc_start = .
 *(.initfunc)
 .initfunc      0x0000000040def5b0      0x720 output.o
                0x0000000040def5b0                __initfunc_acpi_init_paral
                0x0000000040def5c0                __initfunc_acpi_init_global
                0x0000000040def5d0                __initfunc_beep_init_msg
                0x0000000040def5e0                __initfunc_cache_init_pass
                0x0000000040def5f0                __initfunc_cache_init_vcpu
                0x0000000040def600                __initfunc_update_mtrr_and_pat
                0x0000000040def610                __initfunc_cache_init_pcpu
                0x0000000040def620                __initfunc_callrealmode_panic
                0x0000000040def630                __initfunc_callrealmode_init_global
                0x0000000040def640                __initfunc_cpuid_init
                0x0000000040def650                __initfunc_cpuid_pass_init
                0x0000000040def660                __initfunc_cpu_mmu_spt_init_pcpu
                0x0000000040def670                __initfunc_cpu_mmu_spt_init_global
                0x0000000040def680                __initfunc_exint_pass_init
                0x0000000040def690                __initfunc_gmm_pass_init
                0x0000000040def6a0                __initfunc_install_int0x15_hook
                0x0000000040def6b0                __initfunc_idman_init
                0x0000000040def6c0                __initfunc_idman_init_global
                0x0000000040def6d0                __initfunc_int_wakeup
                0x0000000040def6e0                __initfunc_int_init_global
                0x0000000040def6f0                __initfunc_io_io_init
                0x0000000040def700                __initfunc_setiohooks
                0x0000000040def710                __initfunc_io_iopass_init
                0x0000000040def720                __initfunc_keyboard_init_msg
                0x0000000040def730                __initfunc_localapic_init2
                0x0000000040def740                __initfunc_localapic_init
                0x0000000040def750                __initfunc_get_shiftflags
                0x0000000040def760                __initfunc_copy_minios
                0x0000000040def770                __initfunc_print_boot_msg
                0x0000000040def780                __initfunc_debug_on_shift_key
                0x0000000040def790                __initfunc_wait_for_create_pass_vm
                0x0000000040def7a0                __initfunc_create_pass_vm
                0x0000000040def7b0                __initfunc_virtualization_init_pcpu
                0x0000000040def7c0                __initfunc_unmap_user_area
                0x0000000040def7d0                __initfunc_mm_init_global
                0x0000000040def7e0                __initfunc_mmio_debug
                0x0000000040def7f0                __initfunc_mmio_init
                0x0000000040def800                __initfunc_msg_init_global
                0x0000000040def810                __initfunc_msr_init
                0x0000000040def820                __initfunc_msr_pass_init
                0x0000000040def830                __initfunc_nmi_pass_init_pcpu
                0x0000000040def840                __initfunc_nmi_pass_init
                0x0000000040def850                __initfunc_panic_init_pcpu
                0x0000000040def860                __initfunc_panic_init_msg
                0x0000000040def870                __initfunc_panic_init_global3
                0x0000000040def880                __initfunc_panic_init_global
                0x0000000040def890                __initfunc_printf_init_global
                0x0000000040def8a0                __initfunc_process_wakeup
                0x0000000040def8b0                __initfunc_process_init_ap
                0x0000000040def8c0                __initfunc_process_init_global
                0x0000000040def8d0                __initfunc_random_init_config0
                0x0000000040def8e0                __initfunc_random_init_global
                0x0000000040def8f0                __initfunc_reboot_init_msg
                0x0000000040def900                __initfunc_segment_init_global
                0x0000000040def910                __initfunc_serial_init_msg
                0x0000000040def920                __initfunc_sleep_init_msg
                0x0000000040def930                __initfunc_sleep_init_global
                0x0000000040def940                __initfunc_svm_panic
                0x0000000040def950                __initfunc_sx_init_pass_init
                0x0000000040def960                __initfunc_thread_init_pcpu
                0x0000000040def970                __initfunc_thread_init_global
                0x0000000040def980                __initfunc_time_wakeup
                0x0000000040def990                __initfunc_time_init_msg
                0x0000000040def9a0                __initfunc_time_init_dbsp
                0x0000000040def9b0                __initfunc_time_init_pcpu
                0x0000000040def9c0                __initfunc_time_init_global_status
                0x0000000040def9d0                __initfunc_time_init_global
                0x0000000040def9e0                __initfunc_timer_init_global
                0x0000000040def9f0                __initfunc_tty_init_msg
                0x0000000040defa00                __initfunc_tty_init_global2
                0x0000000040defa10                __initfunc_tty_init_global
                0x0000000040defa20                __initfunc_vcpu_init_global
                0x0000000040defa30                __initfunc_vga_init
                0x0000000040defa40                __initfunc_vmmcall_boot_init
                0x0000000040defa50                __initfunc_vmmcall_init
                0x0000000040defa60                __initfunc_vmmcall_dbgsh_init_pcpu
                0x0000000040defa70                __initfunc_vmmcall_dbgsh_init_global
                0x0000000040defa80                __initfunc_vmmcall_dbgsh_init
                0x0000000040defa90                __initfunc_vmmcall_memory_event1_init
                0x0000000040defaa0                __initfunc_vmmcall_memory_event_init
                0x0000000040defab0                __initfunc_vmmcall_iccard_init
                0x0000000040defac0                __initfunc_vmmcall_reg_event_cr0_write_init
                0x0000000040defad0                __initfunc_vmmcall_reg_event_cr0_read_init
                0x0000000040defae0                __initfunc_vmmcall_reg_event_write_init
                0x0000000040defaf0                __initfunc_vmmcall_reg_event_read_init
                0x0000000040defb00                __initfunc_vmmcall_status_init
                0x0000000040defb10                __initfunc_vmmcall_status_init_global
                0x0000000040defb20                __initfunc_vmmcall_listmodule_init
                0x0000000040defb30                __initfunc_vmmcall_dump_memory_init
                0x0000000040defb40                __initfunc_vmmcall_printlog_init
                0x0000000040defb50                __initfunc_vmmcall_set_pte_init
                0x0000000040defb60                __initfunc_vmmcall_listprocess_init
                0x0000000040defb70                __initfunc_vramwrite_init_bsp
                0x0000000040defb80                __initfunc_vramwrite_init_msg
                0x0000000040defb90                __initfunc_vt_register_status_callback
                0x0000000040defba0                __initfunc_vt_panic
                0x0000000040defbb0                __initfunc_xsetbv_init
                0x0000000040defbc0                __initfunc_xsetbv_pass_init
                0x0000000040defbd0                __initfunc_core_init
                0x0000000040defbe0                __initfunc_ieee1394_init_boot
                0x0000000040defbf0                __initfunc_ieee1394_init
                0x0000000040defc00                __initfunc_iommu_setup
                0x0000000040defc10                __initfunc_pci_init
                0x0000000040defc20                __initfunc_ata_init
                0x0000000040defc30                __initfunc_uhci_init
                0x0000000040defc40                __initfunc_ehci_init
                0x0000000040defc50                __initfunc_pro100_init
                0x0000000040defc60                __initfunc_suspend_pro1000
                0x0000000040defc70                __initfunc_resume_pro1000
                0x0000000040defc80                __initfunc_vpn_pro1000_init
                0x0000000040defc90                __initfunc_storage_kernel_init
                0x0000000040defca0                __initfunc_storage_io_initfunc
                0x0000000040defcb0                __initfunc_vpn_kernel_init
                0x0000000040defcc0                __initfunc_idman_kernel_init
                0x0000000040defcd0                __initfunc_end = .
                0x0000000040defcd0                __process_builtin = .
 *(.processes)
 .processes     0x0000000040defcd0      0x1a0 output.o
                0x0000000040defe70                __process_builtin_end = .

.igot.plt       0x0000000040defe70        0x0 load address 0x0000000000defe70
 .igot.plt      0x0000000000000000        0x0 output.o

.bss            0x0000000040df0000   0x2b8000 load address 0x0000000000df0000
                0x0000000040df0000                bss = .
 *(.bss)
 .bss           0x0000000040df0000   0x29c968 output.o
                0x0000000040df00f0                uefi_memory_map_descsize
                0x0000000040df4000                vmmsize
                0x0000000040df4008                memorysize
                0x0000000040f3ea80                pcpu_default
                0x0000000040f46580                ps2_locked
                0x0000000040f46594                _reg_event_cr0_write
                0x0000000040f46598                _reg_event_cr0_read
                0x0000000040f4659c                reg_event_write
                0x0000000040f465a0                reg_event_read
                0x0000000040f465d0                print_mm
                0x0000000040f67a20                handler_descriptor
                0x0000000040f67c28                drhd_list_head
                0x0000000040f69460                pci_driver_list_head
                0x0000000040f69468                pci_device_list_head
                0x0000000040f69488                uhci_monitor_boost_hc
                0x0000000040f694a0                usb_hc_list_head
                0x0000000040f694a8                usb_busses_head
                0x0000000040f70da8                rt
                0x000000004108a7d0                hContext
                0x000000004108a7d8                sessionTable
                0x000000004108a7e0                slotTable
                0x000000004108a7e8                slotFlag
                0x000000004108a7e9                libInitFlag
                0x000000004108b438                OPENSSL_NONPIC_relocated
                0x000000004108b440                OPENSSL_ia32cap_P
                0x000000004108c088                cleanse_ctr
                0x000000004108c0e8                obj_cleanup_defer
                0x000000004108c108                _shadow_DES_check_key
                0x000000004108c1f8                app_pkey_methods
                0x000000004108c260                chelp_inited
 *(COMMON)
 *fill*         0x000000004108c968       0x18 
 COMMON         0x000000004108c980    0x1b404 output.o
                0x000000004108c980                clflush_size
                0x000000004108c9a0                sReaderContext
                0x000000004108ca00                uefi_memory_map_data
                0x0000000041090a00                uefi_booted
                0x0000000041090a08                sigx_app
                0x0000000041090a20                log
                0x00000000410a0a20                num_dom
                0x00000000410a0a40                mszReaders
                0x00000000410a0e40                prohibit_iccard_init
                0x00000000410a0e48                pci_config_mmio_data_head
                0x00000000410a0e50                curthread
                0x00000000410a0e58                sig_app
                0x00000000410a0e60                readerState
                0x00000000410a0ee0                dom_io
                0x00000000410a16e0                acpi_dsdt_system_state
                0x00000000410a1700                ehci_host
                0x00000000410a1708                num_of_processors
                0x00000000410a170c                e801_fake_bx
                0x00000000410a170e                iommu_detected
                0x00000000410a1720                process
                0x00000000410a7c20                dwReaders
                0x00000000410a7c40                readerTracker
                0x00000000410a7d80                handler_descriptor_lock
                0x00000000410a7d82                e801_fake_ax
                0x00000000410a8000                . = ALIGN (0x1000)
 *fill*         0x00000000410a7d84      0x27c 
                0x00000000410a8000                end = .

/DISCARD/
 *(.gomi)
LOAD output.o
OUTPUT(bitvisor.elf elf64-x86-64)

.comment        0x0000000000000000       0x2b
 .comment       0x0000000000000000       0x2b output.o
                                       0x5ee0 (size before relaxing)

.note.GNU-stack
                0x0000000000000000        0x0
 .note.GNU-stack
                0x0000000000000000        0x0 output.o

.debug_aranges  0x0000000000000000     0x69e0
 .debug_aranges
                0x0000000000000000     0x69e0 output.o

.debug_info     0x0000000000000000   0x36472e
 .debug_info    0x0000000000000000   0x36472e output.o

.debug_abbrev   0x0000000000000000    0x57709
 .debug_abbrev  0x0000000000000000    0x57709 output.o

.debug_line     0x0000000000000000    0x4f711
 .debug_line    0x0000000000000000    0x4f711 output.o

.debug_str      0x0000000000000000    0x380b7
 .debug_str     0x0000000000000000    0x380b7 output.o
                                     0x15d0a9 (size before relaxing)

.debug_loc      0x0000000000000000   0x262371
 .debug_loc     0x0000000000000000   0x262371 output.o

.debug_ranges   0x0000000000000000     0x62a0
 .debug_ranges  0x0000000000000000     0x62a0 output.o

Cross Reference Table

Symbol                                            File
ACCESS_DESCRIPTION_free                           output.o
ACCESS_DESCRIPTION_it                             output.o
ACCESS_DESCRIPTION_new                            output.o
AES_cbc_encrypt                                   output.o
AES_cfb128_encrypt                                output.o
AES_cfb1_encrypt                                  output.o
AES_cfb8_encrypt                                  output.o
AES_decrypt                                       output.o
AES_ecb_encrypt                                   output.o
AES_encrypt                                       output.o
AES_ofb128_encrypt                                output.o
AES_set_decrypt_key                               output.o
AES_set_encrypt_key                               output.o
AES_unwrap_key                                    output.o
AES_wrap_key                                      output.o
ASN1_ANY_it                                       output.o
ASN1_BIT_STRING_check                             output.o
ASN1_BIT_STRING_free                              output.o
ASN1_BIT_STRING_get_bit                           output.o
ASN1_BIT_STRING_it                                output.o
ASN1_BIT_STRING_new                               output.o
ASN1_BIT_STRING_set                               output.o
ASN1_BIT_STRING_set_bit                           output.o
ASN1_BMPSTRING_free                               output.o
ASN1_BMPSTRING_it                                 output.o
ASN1_BMPSTRING_new                                output.o
ASN1_BOOLEAN_it                                   output.o
ASN1_ENUMERATED_free                              output.o
ASN1_ENUMERATED_get                               output.o
ASN1_ENUMERATED_it                                output.o
ASN1_ENUMERATED_new                               output.o
ASN1_ENUMERATED_set                               output.o
ASN1_ENUMERATED_to_BN                             output.o
ASN1_FBOOLEAN_it                                  output.o
ASN1_GENERALIZEDTIME_adj                          output.o
ASN1_GENERALIZEDTIME_check                        output.o
ASN1_GENERALIZEDTIME_free                         output.o
ASN1_GENERALIZEDTIME_it                           output.o
ASN1_GENERALIZEDTIME_new                          output.o
ASN1_GENERALIZEDTIME_print                        output.o
ASN1_GENERALIZEDTIME_set                          output.o
ASN1_GENERALIZEDTIME_set_string                   output.o
ASN1_GENERALSTRING_free                           output.o
ASN1_GENERALSTRING_it                             output.o
ASN1_GENERALSTRING_new                            output.o
ASN1_IA5STRING_free                               output.o
ASN1_IA5STRING_it                                 output.o
ASN1_IA5STRING_new                                output.o
ASN1_INTEGER_cmp                                  output.o
ASN1_INTEGER_dup                                  output.o
ASN1_INTEGER_free                                 output.o
ASN1_INTEGER_get                                  output.o
ASN1_INTEGER_it                                   output.o
ASN1_INTEGER_new                                  output.o
ASN1_INTEGER_set                                  output.o
ASN1_INTEGER_to_BN                                output.o
ASN1_NULL_free                                    output.o
ASN1_NULL_it                                      output.o
ASN1_NULL_new                                     output.o
ASN1_OBJECT_create                                output.o
ASN1_OBJECT_free                                  output.o
ASN1_OBJECT_it                                    output.o
ASN1_OBJECT_new                                   output.o
ASN1_OCTET_STRING_NDEF_it                         output.o
ASN1_OCTET_STRING_cmp                             output.o
ASN1_OCTET_STRING_dup                             output.o
ASN1_OCTET_STRING_free                            output.o
ASN1_OCTET_STRING_it                              output.o
ASN1_OCTET_STRING_new                             output.o
ASN1_OCTET_STRING_set                             output.o
ASN1_PCTX_free                                    output.o
ASN1_PCTX_get_cert_flags                          output.o
ASN1_PCTX_get_flags                               output.o
ASN1_PCTX_get_nm_flags                            output.o
ASN1_PCTX_get_oid_flags                           output.o
ASN1_PCTX_get_str_flags                           output.o
ASN1_PCTX_new                                     output.o
ASN1_PCTX_set_cert_flags                          output.o
ASN1_PCTX_set_flags                               output.o
ASN1_PCTX_set_nm_flags                            output.o
ASN1_PCTX_set_oid_flags                           output.o
ASN1_PCTX_set_str_flags                           output.o
ASN1_PRINTABLESTRING_free                         output.o
ASN1_PRINTABLESTRING_it                           output.o
ASN1_PRINTABLESTRING_new                          output.o
ASN1_PRINTABLE_free                               output.o
ASN1_PRINTABLE_it                                 output.o
ASN1_PRINTABLE_new                                output.o
ASN1_PRINTABLE_type                               output.o
ASN1_SEQUENCE_ANY_it                              output.o
ASN1_SEQUENCE_it                                  output.o
ASN1_SET_ANY_it                                   output.o
ASN1_STRING_TABLE_add                             output.o
ASN1_STRING_TABLE_cleanup                         output.o
ASN1_STRING_TABLE_get                             output.o
ASN1_STRING_cmp                                   output.o
ASN1_STRING_copy                                  output.o
ASN1_STRING_data                                  output.o
ASN1_STRING_dup                                   output.o
ASN1_STRING_free                                  output.o
ASN1_STRING_get_default_mask                      output.o
ASN1_STRING_length                                output.o
ASN1_STRING_length_set                            output.o
ASN1_STRING_new                                   output.o
ASN1_STRING_print                                 output.o
ASN1_STRING_print_ex                              output.o
ASN1_STRING_set                                   output.o
ASN1_STRING_set0                                  output.o
ASN1_STRING_set_by_NID                            output.o
ASN1_STRING_set_default_mask                      output.o
ASN1_STRING_set_default_mask_asc                  output.o
ASN1_STRING_to_UTF8                               output.o
ASN1_STRING_type                                  output.o
ASN1_STRING_type_new                              output.o
ASN1_T61STRING_free                               output.o
ASN1_T61STRING_it                                 output.o
ASN1_T61STRING_new                                output.o
ASN1_TBOOLEAN_it                                  output.o
ASN1_TIME_adj                                     output.o
ASN1_TIME_check                                   output.o
ASN1_TIME_free                                    output.o
ASN1_TIME_it                                      output.o
ASN1_TIME_new                                     output.o
ASN1_TIME_print                                   output.o
ASN1_TIME_set                                     output.o
ASN1_TIME_set_string                              output.o
ASN1_TIME_to_generalizedtime                      output.o
ASN1_TYPE_cmp                                     output.o
ASN1_TYPE_free                                    output.o
ASN1_TYPE_get                                     output.o
ASN1_TYPE_get_int_octetstring                     output.o
ASN1_TYPE_get_octetstring                         output.o
ASN1_TYPE_new                                     output.o
ASN1_TYPE_set                                     output.o
ASN1_TYPE_set1                                    output.o
ASN1_TYPE_set_int_octetstring                     output.o
ASN1_TYPE_set_octetstring                         output.o
ASN1_UNIVERSALSTRING_free                         output.o
ASN1_UNIVERSALSTRING_it                           output.o
ASN1_UNIVERSALSTRING_new                          output.o
ASN1_UNIVERSALSTRING_to_string                    output.o
ASN1_UTCTIME_adj                                  output.o
ASN1_UTCTIME_check                                output.o
ASN1_UTCTIME_cmp_time_t                           output.o
ASN1_UTCTIME_free                                 output.o
ASN1_UTCTIME_it                                   output.o
ASN1_UTCTIME_new                                  output.o
ASN1_UTCTIME_print                                output.o
ASN1_UTCTIME_set                                  output.o
ASN1_UTCTIME_set_string                           output.o
ASN1_UTF8STRING_free                              output.o
ASN1_UTF8STRING_it                                output.o
ASN1_UTF8STRING_new                               output.o
ASN1_VISIBLESTRING_free                           output.o
ASN1_VISIBLESTRING_it                             output.o
ASN1_VISIBLESTRING_new                            output.o
ASN1_bn_print                                     output.o
ASN1_check_infinite_end                           output.o
ASN1_const_check_infinite_end                     output.o
ASN1_d2i_bio                                      output.o
ASN1_digest                                       output.o
ASN1_dup                                          output.o
ASN1_generate_nconf                               output.o
ASN1_generate_v3                                  output.o
ASN1_get_object                                   output.o
ASN1_i2d_bio                                      output.o
ASN1_item_d2i                                     output.o
ASN1_item_d2i_bio                                 output.o
ASN1_item_digest                                  output.o
ASN1_item_dup                                     output.o
ASN1_item_ex_d2i                                  output.o
ASN1_item_ex_free                                 output.o
ASN1_item_ex_i2d                                  output.o
ASN1_item_ex_new                                  output.o
ASN1_item_free                                    output.o
ASN1_item_i2d                                     output.o
ASN1_item_i2d_bio                                 output.o
ASN1_item_ndef_i2d                                output.o
ASN1_item_new                                     output.o
ASN1_item_pack                                    output.o
ASN1_item_print                                   output.o
ASN1_item_sign                                    output.o
ASN1_item_unpack                                  output.o
ASN1_item_verify                                  output.o
ASN1_mbstring_copy                                output.o
ASN1_mbstring_ncopy                               output.o
ASN1_object_size                                  output.o
ASN1_pack_string                                  output.o
ASN1_parse                                        output.o
ASN1_parse_dump                                   output.o
ASN1_primitive_free                               output.o
ASN1_primitive_new                                output.o
ASN1_put_eoc                                      output.o
ASN1_put_object                                   output.o
ASN1_seq_pack                                     output.o
ASN1_seq_unpack                                   output.o
ASN1_sign                                         output.o
ASN1_tag2bit                                      output.o
ASN1_tag2str                                      output.o
ASN1_template_d2i                                 output.o
ASN1_template_free                                output.o
ASN1_template_i2d                                 output.o
ASN1_template_new                                 output.o
ASN1_unpack_string                                output.o
ASN1_verify                                       output.o
ASN1_version                                      output.o
AUTHORITY_INFO_ACCESS_free                        output.o
AUTHORITY_INFO_ACCESS_it                          output.o
AUTHORITY_INFO_ACCESS_new                         output.o
AUTHORITY_KEYID_free                              output.o
AUTHORITY_KEYID_it                                output.o
AUTHORITY_KEYID_new                               output.o
AddCertDataByBuf                                  output.o
AddElem                                           output.o
AddIdPassDataByBuf                                output.o
AddObjTblByTlv                                    output.o
BASIC_CONSTRAINTS_free                            output.o
BASIC_CONSTRAINTS_it                              output.o
BASIC_CONSTRAINTS_new                             output.o
BF_cbc_encrypt                                    output.o
BF_cfb64_encrypt                                  output.o
BF_decrypt                                        output.o
BF_ecb_encrypt                                    output.o
BF_encrypt                                        output.o
BF_ofb64_encrypt                                  output.o
BF_options                                        output.o
BF_set_key                                        output.o
BF_version                                        output.o
BIGNUM_it                                         output.o
BIO_asn1_get_prefix                               output.o
BIO_asn1_get_suffix                               output.o
BIO_asn1_set_prefix                               output.o
BIO_asn1_set_suffix                               output.o
BIO_callback_ctrl                                 output.o
BIO_clear_flags                                   output.o
BIO_copy_next_retry                               output.o
BIO_ctrl                                          output.o
BIO_ctrl_pending                                  output.o
BIO_ctrl_wpending                                 output.o
BIO_dump                                          output.o
BIO_dump_cb                                       output.o
BIO_dump_indent                                   output.o
BIO_dump_indent_cb                                output.o
BIO_dup_chain                                     output.o
BIO_f_asn1                                        output.o
BIO_f_base64                                      output.o
BIO_f_buffer                                      output.o
BIO_f_cipher                                      output.o
BIO_f_md                                          output.o
BIO_find_type                                     output.o
BIO_free                                          output.o
BIO_free_all                                      output.o
BIO_get_callback                                  output.o
BIO_get_callback_arg                              output.o
BIO_get_ex_data                                   output.o
BIO_get_ex_new_index                              output.o
BIO_get_retry_BIO                                 output.o
BIO_get_retry_reason                              output.o
BIO_gets                                          output.o
BIO_indent                                        output.o
BIO_int_ctrl                                      output.o
BIO_method_name                                   output.o
BIO_method_type                                   output.o
BIO_new                                           output.o
BIO_new_CMS                                       output.o
BIO_new_NDEF                                      output.o
BIO_new_mem_buf                                   output.o
BIO_next                                          output.o
BIO_number_read                                   output.o
BIO_number_written                                output.o
BIO_pop                                           output.o
BIO_printf                                        output.o
BIO_ptr_ctrl                                      output.o
BIO_push                                          output.o
BIO_puts                                          output.o
BIO_read                                          output.o
BIO_s_mem                                         output.o
BIO_s_null                                        output.o
BIO_set                                           output.o
BIO_set_callback                                  output.o
BIO_set_callback_arg                              output.o
BIO_set_cipher                                    output.o
BIO_set_ex_data                                   output.o
BIO_set_flags                                     output.o
BIO_snprintf                                      output.o
BIO_test_flags                                    output.o
BIO_vfree                                         output.o
BIO_write                                         output.o
BN_BLINDING_convert                               output.o
BN_BLINDING_convert_ex                            output.o
BN_BLINDING_create_param                          output.o
BN_BLINDING_free                                  output.o
BN_BLINDING_get_flags                             output.o
BN_BLINDING_get_thread_id                         output.o
BN_BLINDING_invert                                output.o
BN_BLINDING_invert_ex                             output.o
BN_BLINDING_new                                   output.o
BN_BLINDING_set_flags                             output.o
BN_BLINDING_set_thread_id                         output.o
BN_BLINDING_thread_id                             output.o
BN_BLINDING_update                                output.o
BN_CTX_end                                        output.o
BN_CTX_free                                       output.o
BN_CTX_get                                        output.o
BN_CTX_init                                       output.o
BN_CTX_new                                        output.o
BN_CTX_start                                      output.o
BN_GENCB_call                                     output.o
BN_GF2m_add                                       output.o
BN_GF2m_arr2poly                                  output.o
BN_GF2m_mod                                       output.o
BN_GF2m_mod_arr                                   output.o
BN_GF2m_mod_div                                   output.o
BN_GF2m_mod_div_arr                               output.o
BN_GF2m_mod_exp                                   output.o
BN_GF2m_mod_exp_arr                               output.o
BN_GF2m_mod_inv                                   output.o
BN_GF2m_mod_inv_arr                               output.o
BN_GF2m_mod_mul                                   output.o
BN_GF2m_mod_mul_arr                               output.o
BN_GF2m_mod_solve_quad                            output.o
BN_GF2m_mod_solve_quad_arr                        output.o
BN_GF2m_mod_sqr                                   output.o
BN_GF2m_mod_sqr_arr                               output.o
BN_GF2m_mod_sqrt                                  output.o
BN_GF2m_mod_sqrt_arr                              output.o
BN_GF2m_poly2arr                                  output.o
BN_MONT_CTX_copy                                  output.o
BN_MONT_CTX_free                                  output.o
BN_MONT_CTX_init                                  output.o
BN_MONT_CTX_new                                   output.o
BN_MONT_CTX_set                                   output.o
BN_MONT_CTX_set_locked                            output.o
BN_RECP_CTX_free                                  output.o
BN_RECP_CTX_init                                  output.o
BN_RECP_CTX_new                                   output.o
BN_RECP_CTX_set                                   output.o
BN_add                                            output.o
BN_add_word                                       output.o
BN_asc2bn                                         output.o
BN_bin2bn                                         output.o
BN_bn2bin                                         output.o
BN_bn2dec                                         output.o
BN_bn2hex                                         output.o
BN_bntest_rand                                    output.o
BN_clear                                          output.o
BN_clear_bit                                      output.o
BN_clear_free                                     output.o
BN_cmp                                            output.o
BN_copy                                           output.o
BN_dec2bn                                         output.o
BN_div                                            output.o
BN_div_recp                                       output.o
BN_div_word                                       output.o
BN_dup                                            output.o
BN_exp                                            output.o
BN_free                                           output.o
BN_from_montgomery                                output.o
BN_gcd                                            output.o
BN_generate_prime_ex                              output.o
BN_get0_nist_prime_192                            output.o
BN_get0_nist_prime_224                            output.o
BN_get0_nist_prime_256                            output.o
BN_get0_nist_prime_384                            output.o
BN_get0_nist_prime_521                            output.o
BN_get_params                                     output.o
BN_get_word                                       output.o
BN_hex2bn                                         output.o
BN_init                                           output.o
BN_is_bit_set                                     output.o
BN_is_prime_ex                                    output.o
BN_is_prime_fasttest_ex                           output.o
BN_kronecker                                      output.o
BN_lshift                                         output.o
BN_lshift1                                        output.o
BN_mask_bits                                      output.o
BN_mod_add                                        output.o
BN_mod_add_quick                                  output.o
BN_mod_exp                                        output.o
BN_mod_exp2_mont                                  output.o
BN_mod_exp_mont                                   output.o
BN_mod_exp_mont_consttime                         output.o
BN_mod_exp_mont_word                              output.o
BN_mod_exp_recp                                   output.o
BN_mod_exp_simple                                 output.o
BN_mod_inverse                                    output.o
BN_mod_lshift                                     output.o
BN_mod_lshift1                                    output.o
BN_mod_lshift1_quick                              output.o
BN_mod_lshift_quick                               output.o
BN_mod_mul                                        output.o
BN_mod_mul_montgomery                             output.o
BN_mod_mul_reciprocal                             output.o
BN_mod_sqr                                        output.o
BN_mod_sqrt                                       output.o
BN_mod_sub                                        output.o
BN_mod_sub_quick                                  output.o
BN_mod_word                                       output.o
BN_mul                                            output.o
BN_mul_word                                       output.o
BN_new                                            output.o
BN_nist_mod_192                                   output.o
BN_nist_mod_224                                   output.o
BN_nist_mod_256                                   output.o
BN_nist_mod_384                                   output.o
BN_nist_mod_521                                   output.o
BN_nnmod                                          output.o
BN_num_bits                                       output.o
BN_num_bits_word                                  output.o
BN_options                                        output.o
BN_print                                          output.o
BN_pseudo_rand                                    output.o
BN_pseudo_rand_range                              output.o
BN_rand                                           output.o
BN_rand_range                                     output.o
BN_reciprocal                                     output.o
BN_rshift                                         output.o
BN_rshift1                                        output.o
BN_set_bit                                        output.o
BN_set_negative                                   output.o
BN_set_params                                     output.o
BN_set_word                                       output.o
BN_sqr                                            output.o
BN_sub                                            output.o
BN_sub_word                                       output.o
BN_swap                                           output.o
BN_to_ASN1_ENUMERATED                             output.o
BN_to_ASN1_INTEGER                                output.o
BN_uadd                                           output.o
BN_ucmp                                           output.o
BN_usub                                           output.o
BN_value_one                                      output.o
BN_version                                        output.o
BUF_MEM_free                                      output.o
BUF_MEM_grow                                      output.o
BUF_MEM_grow_clean                                output.o
BUF_MEM_new                                       output.o
BUF_memdup                                        output.o
BUF_reverse                                       output.o
BUF_strdup                                        output.o
BUF_strlcat                                       output.o
BUF_strlcpy                                       output.o
BUF_strndup                                       output.o
BlockSendCardT1                                   output.o
CAST_S_table0                                     output.o
CAST_S_table1                                     output.o
CAST_S_table2                                     output.o
CAST_S_table3                                     output.o
CAST_S_table4                                     output.o
CAST_S_table5                                     output.o
CAST_S_table6                                     output.o
CAST_S_table7                                     output.o
CAST_cbc_encrypt                                  output.o
CAST_cfb64_encrypt                                output.o
CAST_decrypt                                      output.o
CAST_ecb_encrypt                                  output.o
CAST_encrypt                                      output.o
CAST_ofb64_encrypt                                output.o
CAST_set_key                                      output.o
CAST_version                                      output.o
CBIGNUM_it                                        output.o
CERTIFICATEPOLICIES_free                          output.o
CERTIFICATEPOLICIES_it                            output.o
CERTIFICATEPOLICIES_new                           output.o
CMS_Attributes_Sign_it                            output.o
CMS_Attributes_Verify_it                          output.o
CMS_AuthenticatedData_it                          output.o
CMS_CertificateChoices_it                         output.o
CMS_CompressedData_it                             output.o
CMS_ContentInfo_free                              output.o
CMS_ContentInfo_it                                output.o
CMS_ContentInfo_new                               output.o
CMS_ContentInfo_print_ctx                         output.o
CMS_DigestedData_it                               output.o
CMS_EncapsulatedContentInfo_it                    output.o
CMS_EncryptedContentInfo_it                       output.o
CMS_EncryptedData_it                              output.o
CMS_EncryptedData_set1_key                        output.o
CMS_EnvelopedData_create                          output.o
CMS_EnvelopedData_it                              output.o
CMS_IssuerAndSerialNumber_it                      output.o
CMS_KEKIdentifier_it                              output.o
CMS_KEKRecipientInfo_it                           output.o
CMS_KeyAgreeRecipientIdentifier_it                output.o
CMS_KeyAgreeRecipientInfo_it                      output.o
CMS_KeyTransRecipientInfo_it                      output.o
CMS_OriginatorIdentifierOrKey_it                  output.o
CMS_OriginatorInfo_it                             output.o
CMS_OriginatorPublicKey_it                        output.o
CMS_OtherCertificateFormat_it                     output.o
CMS_OtherKeyAttribute_it                          output.o
CMS_OtherRecipientInfo_it                         output.o
CMS_OtherRevocationInfoFormat_it                  output.o
CMS_PasswordRecipientInfo_it                      output.o
CMS_ReceiptRequest_it                             output.o
CMS_Receipt_it                                    output.o
CMS_ReceiptsFrom_it                               output.o
CMS_RecipientEncryptedKey_it                      output.o
CMS_RecipientInfo_decrypt                         output.o
CMS_RecipientInfo_it                              output.o
CMS_RecipientInfo_kekri_get0_id                   output.o
CMS_RecipientInfo_kekri_id_cmp                    output.o
CMS_RecipientInfo_ktri_cert_cmp                   output.o
CMS_RecipientInfo_ktri_get0_algs                  output.o
CMS_RecipientInfo_ktri_get0_signer_id             output.o
CMS_RecipientInfo_set0_key                        output.o
CMS_RecipientInfo_set0_pkey                       output.o
CMS_RecipientInfo_type                            output.o
CMS_RecipientKeyIdentifier_it                     output.o
CMS_RevocationInfoChoice_it                       output.o
CMS_SignedData_init                               output.o
CMS_SignedData_it                                 output.o
CMS_SignerIdentifier_it                           output.o
CMS_SignerInfo_cert_cmp                           output.o
CMS_SignerInfo_get0_algs                          output.o
CMS_SignerInfo_get0_signer_id                     output.o
CMS_SignerInfo_it                                 output.o
CMS_SignerInfo_set1_signer_cert                   output.o
CMS_SignerInfo_sign                               output.o
CMS_SignerInfo_verify                             output.o
CMS_SignerInfo_verify_content                     output.o
CMS_add0_CertificateChoices                       output.o
CMS_add0_RevocationInfoChoice                     output.o
CMS_add0_cert                                     output.o
CMS_add0_crl                                      output.o
CMS_add0_recipient_key                            output.o
CMS_add1_cert                                     output.o
CMS_add1_crl                                      output.o
CMS_add1_recipient_cert                           output.o
CMS_add1_signer                                   output.o
CMS_add_simple_smimecap                           output.o
CMS_add_smimecap                                  output.o
CMS_add_standard_smimecap                         output.o
CMS_dataFinal                                     output.o
CMS_dataInit                                      output.o
CMS_get0_RecipientInfos                           output.o
CMS_get0_SignerInfos                              output.o
CMS_get0_content                                  output.o
CMS_get0_eContentType                             output.o
CMS_get0_signers                                  output.o
CMS_get0_type                                     output.o
CMS_get1_certs                                    output.o
CMS_get1_crls                                     output.o
CMS_is_detached                                   output.o
CMS_set1_eContentType                             output.o
CMS_set1_signers_certs                            output.o
CMS_set_detached                                  output.o
CMS_signed_add1_attr                              output.o
CMS_signed_add1_attr_by_NID                       output.o
CMS_signed_add1_attr_by_OBJ                       output.o
CMS_signed_add1_attr_by_txt                       output.o
CMS_signed_delete_attr                            output.o
CMS_signed_get0_data_by_OBJ                       output.o
CMS_signed_get_attr                               output.o
CMS_signed_get_attr_by_NID                        output.o
CMS_signed_get_attr_by_OBJ                        output.o
CMS_signed_get_attr_count                         output.o
CMS_stream                                        output.o
CMS_unsigned_add1_attr                            output.o
CMS_unsigned_add1_attr_by_NID                     output.o
CMS_unsigned_add1_attr_by_OBJ                     output.o
CMS_unsigned_add1_attr_by_txt                     output.o
CMS_unsigned_delete_attr                          output.o
CMS_unsigned_get0_data_by_OBJ                     output.o
CMS_unsigned_get_attr                             output.o
CMS_unsigned_get_attr_by_NID                      output.o
CMS_unsigned_get_attr_by_OBJ                      output.o
CMS_unsigned_get_attr_count                       output.o
CONF_def_version                                  output.o
CONF_dump_bio                                     output.o
CONF_free                                         output.o
CONF_get1_default_config_file                     output.o
CONF_get_number                                   output.o
CONF_get_section                                  output.o
CONF_get_string                                   output.o
CONF_imodule_get_flags                            output.o
CONF_imodule_get_module                           output.o
CONF_imodule_get_name                             output.o
CONF_imodule_get_usr_data                         output.o
CONF_imodule_get_value                            output.o
CONF_imodule_set_flags                            output.o
CONF_imodule_set_usr_data                         output.o
CONF_load                                         output.o
CONF_load_bio                                     output.o
CONF_module_add                                   output.o
CONF_module_get_usr_data                          output.o
CONF_module_set_usr_data                          output.o
CONF_modules_finish                               output.o
CONF_modules_free                                 output.o
CONF_modules_load                                 output.o
CONF_modules_load_file                            output.o
CONF_modules_unload                               output.o
CONF_parse_list                                   output.o
CONF_set_default_method                           output.o
CONF_set_nconf                                    output.o
CONF_version                                      output.o
CRL_DIST_POINTS_free                              output.o
CRL_DIST_POINTS_it                                output.o
CRL_DIST_POINTS_new                               output.o
CRYPTO_THREADID_cmp                               output.o
CRYPTO_THREADID_cpy                               output.o
CRYPTO_THREADID_current                           output.o
CRYPTO_THREADID_get_callback                      output.o
CRYPTO_THREADID_hash                              output.o
CRYPTO_THREADID_set_callback                      output.o
CRYPTO_THREADID_set_numeric                       output.o
CRYPTO_THREADID_set_pointer                       output.o
CRYPTO_add_lock                                   output.o
CRYPTO_cbc128_decrypt                             output.o
CRYPTO_cbc128_encrypt                             output.o
CRYPTO_cfb128_1_encrypt                           output.o
CRYPTO_cfb128_8_encrypt                           output.o
CRYPTO_cfb128_encrypt                             output.o
CRYPTO_cleanup_all_ex_data                        output.o
CRYPTO_dbg_free                                   output.o
CRYPTO_dbg_get_options                            output.o
CRYPTO_dbg_malloc                                 output.o
CRYPTO_dbg_realloc                                output.o
CRYPTO_dbg_set_options                            output.o
CRYPTO_destroy_dynlockid                          output.o
CRYPTO_dup_ex_data                                output.o
CRYPTO_ex_data_new_class                          output.o
CRYPTO_free                                       output.o
CRYPTO_free_ex_data                               output.o
CRYPTO_free_locked                                output.o
CRYPTO_get_add_lock_callback                      output.o
CRYPTO_get_dynlock_create_callback                output.o
CRYPTO_get_dynlock_destroy_callback               output.o
CRYPTO_get_dynlock_lock_callback                  output.o
CRYPTO_get_dynlock_value                          output.o
CRYPTO_get_ex_data                                output.o
CRYPTO_get_ex_data_implementation                 output.o
CRYPTO_get_ex_new_index                           output.o
CRYPTO_get_id_callback                            output.o
CRYPTO_get_lock_name                              output.o
CRYPTO_get_locked_mem_ex_functions                output.o
CRYPTO_get_locked_mem_functions                   output.o
CRYPTO_get_locking_callback                       output.o
CRYPTO_get_mem_debug_functions                    output.o
CRYPTO_get_mem_debug_options                      output.o
CRYPTO_get_mem_ex_functions                       output.o
CRYPTO_get_mem_functions                          output.o
CRYPTO_get_new_dynlockid                          output.o
CRYPTO_get_new_lockid                             output.o
CRYPTO_is_mem_check_on                            output.o
CRYPTO_lock                                       output.o
CRYPTO_malloc                                     output.o
CRYPTO_malloc_locked                              output.o
CRYPTO_mem_ctrl                                   output.o
CRYPTO_mem_leaks                                  output.o
CRYPTO_mem_leaks_cb                               output.o
CRYPTO_memcmp                                     output.o
CRYPTO_new_ex_data                                output.o
CRYPTO_num_locks                                  output.o
CRYPTO_ofb128_encrypt                             output.o
CRYPTO_pop_info                                   output.o
CRYPTO_push_info_                                 output.o
CRYPTO_realloc                                    output.o
CRYPTO_realloc_clean                              output.o
CRYPTO_remalloc                                   output.o
CRYPTO_remove_all_info                            output.o
CRYPTO_set_add_lock_callback                      output.o
CRYPTO_set_dynlock_create_callback                output.o
CRYPTO_set_dynlock_destroy_callback               output.o
CRYPTO_set_dynlock_lock_callback                  output.o
CRYPTO_set_ex_data                                output.o
CRYPTO_set_ex_data_implementation                 output.o
CRYPTO_set_id_callback                            output.o
CRYPTO_set_locked_mem_ex_functions                output.o
CRYPTO_set_locked_mem_functions                   output.o
CRYPTO_set_locking_callback                       output.o
CRYPTO_set_mem_debug_functions                    output.o
CRYPTO_set_mem_debug_options                      output.o
CRYPTO_set_mem_ex_functions                       output.o
CRYPTO_set_mem_functions                          output.o
CRYPTO_strdup                                     output.o
CRYPTO_thread_id                                  output.o
C_CloseAllSessions                                output.o
C_CloseSession                                    output.o
C_CreateObject                                    output.o
C_DestroyObject                                   output.o
C_DigestFinal                                     output.o
C_DigestInit                                      output.o
C_DigestUpdate                                    output.o
C_Finalize                                        output.o
C_FindObjects                                     output.o
C_FindObjectsFinal                                output.o
C_FindObjectsInit                                 output.o
C_GetAttributeValue                               output.o
C_GetCardStatus                                   output.o
C_GetFunctionList                                 output.o
C_GetInfo                                         output.o
C_GetMechanismInfo                                output.o
C_GetMechanismList                                output.o
C_GetSessionInfo                                  output.o
C_GetSlotInfo                                     output.o
C_GetSlotList                                     output.o
C_GetTokenInfo                                    output.o
C_Initialize                                      output.o
C_Login                                           output.o
C_Logout                                          output.o
C_OpenSession                                     output.o
C_SetAttributeValue                               output.o
C_Sign                                            output.o
C_SignInit                                        output.o
C_Verify                                          output.o
C_VerifyInit                                      output.o
CardConnect                                       output.o
CardDisconnect                                    output.o
CardEstablishContext                              output.o
CardListReaders                                   output.o
CardMechanical                                    output.o
CardReleaseContext                                output.o
CardStateConfirm                                  output.o
CardStatus                                        output.o
CardTransmit                                      output.o
CloseUSB                                          output.o
DES_SPtrans                                       output.o
DES_cfb64_encrypt                                 output.o
DES_cfb_encrypt                                   output.o
DES_check_key_parity                              output.o
DES_decrypt3                                      output.o
DES_ecb3_encrypt                                  output.o
DES_ecb_encrypt                                   output.o
DES_ede3_cbc_encrypt                              output.o
DES_ede3_cfb64_encrypt                            output.o
DES_ede3_cfb_encrypt                              output.o
DES_ede3_ofb64_encrypt                            output.o
DES_encrypt1                                      output.o
DES_encrypt2                                      output.o
DES_encrypt3                                      output.o
DES_is_weak_key                                   output.o
DES_key_sched                                     output.o
DES_ncbc_encrypt                                  output.o
DES_ofb64_encrypt                                 output.o
DES_options                                       output.o
DES_random_key                                    output.o
DES_set_key                                       output.o
DES_set_key_checked                               output.o
DES_set_key_unchecked                             output.o
DES_set_odd_parity                                output.o
DES_xcbc_encrypt                                  output.o
DH_OpenSSL                                        output.o
DH_check                                          output.o
DH_check_pub_key                                  output.o
DH_compute_key                                    output.o
DH_free                                           output.o
DH_generate_key                                   output.o
DH_generate_parameters_ex                         output.o
DH_get_default_method                             output.o
DH_get_ex_data                                    output.o
DH_get_ex_new_index                               output.o
DH_new                                            output.o
DH_new_method                                     output.o
DH_set_default_method                             output.o
DH_set_ex_data                                    output.o
DH_set_method                                     output.o
DH_size                                           output.o
DH_up_ref                                         output.o
DH_version                                        output.o
DHparams_dup                                      output.o
DHparams_it                                       output.o
DHparams_print                                    output.o
DI                                                output.o
DIRECTORYSTRING_free                              output.o
DIRECTORYSTRING_it                                output.o
DIRECTORYSTRING_new                               output.o
DISPLAYTEXT_free                                  output.o
DISPLAYTEXT_it                                    output.o
DISPLAYTEXT_new                                   output.o
DIST_POINT_NAME_free                              output.o
DIST_POINT_NAME_it                                output.o
DIST_POINT_NAME_new                               output.o
DIST_POINT_free                                   output.o
DIST_POINT_it                                     output.o
DIST_POINT_new                                    output.o
DIST_POINT_set_dpname                             output.o
DSAPrivateKey_it                                  output.o
DSAPublicKey_it                                   output.o
DSA_OpenSSL                                       output.o
DSA_SIG_free                                      output.o
DSA_SIG_it                                        output.o
DSA_SIG_new                                       output.o
DSA_do_sign                                       output.o
DSA_do_verify                                     output.o
DSA_dup_DH                                        output.o
DSA_free                                          output.o
DSA_generate_key                                  output.o
DSA_generate_parameters_ex                        output.o
DSA_get_default_method                            output.o
DSA_get_ex_data                                   output.o
DSA_get_ex_new_index                              output.o
DSA_new                                           output.o
DSA_new_method                                    output.o
DSA_set_default_method                            output.o
DSA_set_ex_data                                   output.o
DSA_set_method                                    output.o
DSA_sign                                          output.o
DSA_sign_setup                                    output.o
DSA_size                                          output.o
DSA_up_ref                                        output.o
DSA_verify                                        output.o
DSA_version                                       output.o
DSAparams_dup                                     output.o
DSAparams_it                                      output.o
DSO_METHOD_null                                   output.o
DSO_METHOD_openssl                                output.o
DSO_bind_func                                     output.o
DSO_bind_var                                      output.o
DSO_convert_filename                              output.o
DSO_ctrl                                          output.o
DSO_flags                                         output.o
DSO_free                                          output.o
DSO_get_default_method                            output.o
DSO_get_filename                                  output.o
DSO_get_loaded_filename                           output.o
DSO_get_method                                    output.o
DSO_global_lookup                                 output.o
DSO_load                                          output.o
DSO_merge                                         output.o
DSO_new                                           output.o
DSO_new_method                                    output.o
DSO_pathbyaddr                                    output.o
DSO_set_default_method                            output.o
DSO_set_filename                                  output.o
DSO_set_method                                    output.o
DSO_set_name_converter                            output.o
DSO_up_ref                                        output.o
DelElem                                           output.o
DestroyAttribute                                  output.o
DestroyElem                                       output.o
DestroyList                                       output.o
DestroySessionData                                output.o
DestroySlotData                                   output.o
DestroyTlvData                                    output.o
DestroyTokenData                                  output.o
ECDH_OpenSSL                                      output.o
ECDH_compute_key                                  output.o
ECDH_get_default_method                           output.o
ECDH_get_ex_data                                  output.o
ECDH_get_ex_new_index                             output.o
ECDH_set_default_method                           output.o
ECDH_set_ex_data                                  output.o
ECDH_set_method                                   output.o
ECDH_version                                      output.o
ECDSA_OpenSSL                                     output.o
ECDSA_SIG_free                                    output.o
ECDSA_SIG_it                                      output.o
ECDSA_SIG_new                                     output.o
ECDSA_do_sign                                     output.o
ECDSA_do_sign_ex                                  output.o
ECDSA_do_verify                                   output.o
ECDSA_get_default_method                          output.o
ECDSA_get_ex_data                                 output.o
ECDSA_get_ex_new_index                            output.o
ECDSA_set_default_method                          output.o
ECDSA_set_ex_data                                 output.o
ECDSA_set_method                                  output.o
ECDSA_sign                                        output.o
ECDSA_sign_ex                                     output.o
ECDSA_sign_setup                                  output.o
ECDSA_size                                        output.o
ECDSA_verify                                      output.o
ECDSA_version                                     output.o
ECPARAMETERS_free                                 output.o
ECPARAMETERS_it                                   output.o
ECPARAMETERS_new                                  output.o
ECPKPARAMETERS_free                               output.o
ECPKPARAMETERS_it                                 output.o
ECPKPARAMETERS_new                                output.o
ECPKParameters_print                              output.o
ECParameters_print                                output.o
EC_EX_DATA_clear_free_all_data                    output.o
EC_EX_DATA_clear_free_data                        output.o
EC_EX_DATA_free_all_data                          output.o
EC_EX_DATA_free_data                              output.o
EC_EX_DATA_get_data                               output.o
EC_EX_DATA_set_data                               output.o
EC_GF2m_simple_method                             output.o
EC_GFp_mont_method                                output.o
EC_GFp_nist_method                                output.o
EC_GFp_simple_method                              output.o
EC_GROUP_check_discriminant                       output.o
EC_GROUP_clear_free                               output.o
EC_GROUP_cmp                                      output.o
EC_GROUP_copy                                     output.o
EC_GROUP_dup                                      output.o
EC_GROUP_free                                     output.o
EC_GROUP_get0_generator                           output.o
EC_GROUP_get0_seed                                output.o
EC_GROUP_get_asn1_flag                            output.o
EC_GROUP_get_basis_type                           output.o
EC_GROUP_get_cofactor                             output.o
EC_GROUP_get_curve_GF2m                           output.o
EC_GROUP_get_curve_GFp                            output.o
EC_GROUP_get_curve_name                           output.o
EC_GROUP_get_degree                               output.o
EC_GROUP_get_order                                output.o
EC_GROUP_get_pentanomial_basis                    output.o
EC_GROUP_get_point_conversion_form                output.o
EC_GROUP_get_seed_len                             output.o
EC_GROUP_get_trinomial_basis                      output.o
EC_GROUP_have_precompute_mult                     output.o
EC_GROUP_method_of                                output.o
EC_GROUP_new                                      output.o
EC_GROUP_new_by_curve_name                        output.o
EC_GROUP_new_curve_GF2m                           output.o
EC_GROUP_new_curve_GFp                            output.o
EC_GROUP_precompute_mult                          output.o
EC_GROUP_set_asn1_flag                            output.o
EC_GROUP_set_curve_GF2m                           output.o
EC_GROUP_set_curve_GFp                            output.o
EC_GROUP_set_curve_name                           output.o
EC_GROUP_set_generator                            output.o
EC_GROUP_set_point_conversion_form                output.o
EC_GROUP_set_seed                                 output.o
EC_KEY_check_key                                  output.o
EC_KEY_copy                                       output.o
EC_KEY_dup                                        output.o
EC_KEY_free                                       output.o
EC_KEY_generate_key                               output.o
EC_KEY_get0_group                                 output.o
EC_KEY_get0_private_key                           output.o
EC_KEY_get0_public_key                            output.o
EC_KEY_get_conv_form                              output.o
EC_KEY_get_enc_flags                              output.o
EC_KEY_get_key_method_data                        output.o
EC_KEY_insert_key_method_data                     output.o
EC_KEY_new                                        output.o
EC_KEY_new_by_curve_name                          output.o
EC_KEY_precompute_mult                            output.o
EC_KEY_print                                      output.o
EC_KEY_set_asn1_flag                              output.o
EC_KEY_set_conv_form                              output.o
EC_KEY_set_enc_flags                              output.o
EC_KEY_set_group                                  output.o
EC_KEY_set_private_key                            output.o
EC_KEY_set_public_key                             output.o
EC_KEY_up_ref                                     output.o
EC_METHOD_get_field_type                          output.o
EC_POINT_add                                      output.o
EC_POINT_bn2point                                 output.o
EC_POINT_clear_free                               output.o
EC_POINT_cmp                                      output.o
EC_POINT_copy                                     output.o
EC_POINT_dbl                                      output.o
EC_POINT_dup                                      output.o
EC_POINT_free                                     output.o
EC_POINT_get_Jprojective_coordinates_GFp          output.o
EC_POINT_get_affine_coordinates_GF2m              output.o
EC_POINT_get_affine_coordinates_GFp               output.o
EC_POINT_hex2point                                output.o
EC_POINT_invert                                   output.o
EC_POINT_is_at_infinity                           output.o
EC_POINT_is_on_curve                              output.o
EC_POINT_make_affine                              output.o
EC_POINT_method_of                                output.o
EC_POINT_mul                                      output.o
EC_POINT_new                                      output.o
EC_POINT_oct2point                                output.o
EC_POINT_point2bn                                 output.o
EC_POINT_point2hex                                output.o
EC_POINT_point2oct                                output.o
EC_POINT_set_Jprojective_coordinates_GFp          output.o
EC_POINT_set_affine_coordinates_GF2m              output.o
EC_POINT_set_affine_coordinates_GFp               output.o
EC_POINT_set_compressed_coordinates_GF2m          output.o
EC_POINT_set_compressed_coordinates_GFp           output.o
EC_POINT_set_to_infinity                          output.o
EC_POINTs_make_affine                             output.o
EC_POINTs_mul                                     output.o
EC_PRIVATEKEY_free                                output.o
EC_PRIVATEKEY_it                                  output.o
EC_PRIVATEKEY_new                                 output.o
EC_get_builtin_curves                             output.o
EDIPARTYNAME_free                                 output.o
EDIPARTYNAME_it                                   output.o
EDIPARTYNAME_new                                  output.o
EHDestroyEventHandler                             output.o
EHInitEventHandler                                output.o
EHStatusHandler                                   output.o
ERR_add_error_data                                output.o
ERR_clear_error                                   output.o
ERR_error_string                                  output.o
ERR_error_string_n                                output.o
ERR_free_strings                                  output.o
ERR_func_error_string                             output.o
ERR_get_err_state_table                           output.o
ERR_get_error                                     output.o
ERR_get_error_line                                output.o
ERR_get_error_line_data                           output.o
ERR_get_implementation                            output.o
ERR_get_next_error_library                        output.o
ERR_get_state                                     output.o
ERR_get_string_table                              output.o
ERR_lib_error_string                              output.o
ERR_load_ASN1_strings                             output.o
ERR_load_BIO_strings                              output.o
ERR_load_BN_strings                               output.o
ERR_load_BUF_strings                              output.o
ERR_load_CMS_strings                              output.o
ERR_load_COMP_strings                             output.o
ERR_load_CONF_strings                             output.o
ERR_load_CRYPTO_strings                           output.o
ERR_load_DH_strings                               output.o
ERR_load_DSA_strings                              output.o
ERR_load_DSO_strings                              output.o
ERR_load_ECDH_strings                             output.o
ERR_load_ECDSA_strings                            output.o
ERR_load_EC_strings                               output.o
ERR_load_ERR_strings                              output.o
ERR_load_EVP_strings                              output.o
ERR_load_OBJ_strings                              output.o
ERR_load_OCSP_strings                             output.o
ERR_load_PEM_strings                              output.o
ERR_load_PKCS12_strings                           output.o
ERR_load_PKCS7_strings                            output.o
ERR_load_RAND_strings                             output.o
ERR_load_RSA_strings                              output.o
ERR_load_TS_strings                               output.o
ERR_load_UI_strings                               output.o
ERR_load_X509V3_strings                           output.o
ERR_load_X509_strings                             output.o
ERR_load_crypto_strings                           output.o
ERR_load_strings                                  output.o
ERR_peek_error                                    output.o
ERR_peek_error_line                               output.o
ERR_peek_error_line_data                          output.o
ERR_peek_last_error                               output.o
ERR_peek_last_error_line                          output.o
ERR_peek_last_error_line_data                     output.o
ERR_pop_to_mark                                   output.o
ERR_print_errors                                  output.o
ERR_print_errors_cb                               output.o
ERR_put_error                                     output.o
ERR_reason_error_string                           output.o
ERR_release_err_state_table                       output.o
ERR_remove_state                                  output.o
ERR_remove_thread_state                           output.o
ERR_set_error_data                                output.o
ERR_set_implementation                            output.o
ERR_set_mark                                      output.o
ERR_unload_strings                                output.o
EVP_BytesToKey                                    output.o
EVP_CIPHER_CTX_block_size                         output.o
EVP_CIPHER_CTX_cipher                             output.o
EVP_CIPHER_CTX_cleanup                            output.o
EVP_CIPHER_CTX_clear_flags                        output.o
EVP_CIPHER_CTX_copy                               output.o
EVP_CIPHER_CTX_ctrl                               output.o
EVP_CIPHER_CTX_flags                              output.o
EVP_CIPHER_CTX_free                               output.o
EVP_CIPHER_CTX_get_app_data                       output.o
EVP_CIPHER_CTX_init                               output.o
EVP_CIPHER_CTX_iv_length                          output.o
EVP_CIPHER_CTX_key_length                         output.o
EVP_CIPHER_CTX_new                                output.o
EVP_CIPHER_CTX_nid                                output.o
EVP_CIPHER_CTX_rand_key                           output.o
EVP_CIPHER_CTX_set_app_data                       output.o
EVP_CIPHER_CTX_set_flags                          output.o
EVP_CIPHER_CTX_set_key_length                     output.o
EVP_CIPHER_CTX_set_padding                        output.o
EVP_CIPHER_CTX_test_flags                         output.o
EVP_CIPHER_asn1_to_param                          output.o
EVP_CIPHER_block_size                             output.o
EVP_CIPHER_do_all                                 output.o
EVP_CIPHER_do_all_sorted                          output.o
EVP_CIPHER_flags                                  output.o
EVP_CIPHER_get_asn1_iv                            output.o
EVP_CIPHER_iv_length                              output.o
EVP_CIPHER_key_length                             output.o
EVP_CIPHER_nid                                    output.o
EVP_CIPHER_param_to_asn1                          output.o
EVP_CIPHER_set_asn1_iv                            output.o
EVP_CIPHER_type                                   output.o
EVP_Cipher                                        output.o
EVP_CipherFinal                                   output.o
EVP_CipherFinal_ex                                output.o
EVP_CipherInit                                    output.o
EVP_CipherInit_ex                                 output.o
EVP_CipherUpdate                                  output.o
EVP_DecodeBlock                                   output.o
EVP_DecodeFinal                                   output.o
EVP_DecodeInit                                    output.o
EVP_DecodeUpdate                                  output.o
EVP_DecryptFinal                                  output.o
EVP_DecryptFinal_ex                               output.o
EVP_DecryptInit                                   output.o
EVP_DecryptInit_ex                                output.o
EVP_DecryptUpdate                                 output.o
EVP_Digest                                        output.o
EVP_DigestFinal                                   output.o
EVP_DigestFinal_ex                                output.o
EVP_DigestInit                                    output.o
EVP_DigestInit_ex                                 output.o
EVP_DigestSignFinal                               output.o
EVP_DigestSignInit                                output.o
EVP_DigestUpdate                                  output.o
EVP_DigestVerifyFinal                             output.o
EVP_DigestVerifyInit                              output.o
EVP_EncodeBlock                                   output.o
EVP_EncodeFinal                                   output.o
EVP_EncodeInit                                    output.o
EVP_EncodeUpdate                                  output.o
EVP_EncryptFinal                                  output.o
EVP_EncryptFinal_ex                               output.o
EVP_EncryptInit                                   output.o
EVP_EncryptInit_ex                                output.o
EVP_EncryptUpdate                                 output.o
EVP_MD_CTX_cleanup                                output.o
EVP_MD_CTX_clear_flags                            output.o
EVP_MD_CTX_copy                                   output.o
EVP_MD_CTX_copy_ex                                output.o
EVP_MD_CTX_create                                 output.o
EVP_MD_CTX_destroy                                output.o
EVP_MD_CTX_init                                   output.o
EVP_MD_CTX_md                                     output.o
EVP_MD_CTX_set_flags                              output.o
EVP_MD_CTX_test_flags                             output.o
EVP_MD_block_size                                 output.o
EVP_MD_do_all                                     output.o
EVP_MD_do_all_sorted                              output.o
EVP_MD_flags                                      output.o
EVP_MD_pkey_type                                  output.o
EVP_MD_size                                       output.o
EVP_MD_type                                       output.o
EVP_PBE_CipherInit                                output.o
EVP_PBE_alg_add                                   output.o
EVP_PBE_alg_add_type                              output.o
EVP_PBE_cleanup                                   output.o
EVP_PBE_find                                      output.o
EVP_PKCS82PKEY                                    output.o
EVP_PKEY2PKCS8                                    output.o
EVP_PKEY2PKCS8_broken                             output.o
EVP_PKEY_CTX_ctrl                                 output.o
EVP_PKEY_CTX_ctrl_str                             output.o
EVP_PKEY_CTX_dup                                  output.o
EVP_PKEY_CTX_free                                 output.o
EVP_PKEY_CTX_get0_peerkey                         output.o
EVP_PKEY_CTX_get0_pkey                            output.o
EVP_PKEY_CTX_get_app_data                         output.o
EVP_PKEY_CTX_get_cb                               output.o
EVP_PKEY_CTX_get_data                             output.o
EVP_PKEY_CTX_get_keygen_info                      output.o
EVP_PKEY_CTX_get_operation                        output.o
EVP_PKEY_CTX_new                                  output.o
EVP_PKEY_CTX_new_id                               output.o
EVP_PKEY_CTX_set0_keygen_info                     output.o
EVP_PKEY_CTX_set_app_data                         output.o
EVP_PKEY_CTX_set_cb                               output.o
EVP_PKEY_CTX_set_data                             output.o
EVP_PKEY_add1_attr                                output.o
EVP_PKEY_add1_attr_by_NID                         output.o
EVP_PKEY_add1_attr_by_OBJ                         output.o
EVP_PKEY_add1_attr_by_txt                         output.o
EVP_PKEY_asn1_add0                                output.o
EVP_PKEY_asn1_add_alias                           output.o
EVP_PKEY_asn1_copy                                output.o
EVP_PKEY_asn1_find                                output.o
EVP_PKEY_asn1_find_str                            output.o
EVP_PKEY_asn1_free                                output.o
EVP_PKEY_asn1_get0                                output.o
EVP_PKEY_asn1_get0_info                           output.o
EVP_PKEY_asn1_get_count                           output.o
EVP_PKEY_asn1_new                                 output.o
EVP_PKEY_asn1_set_ctrl                            output.o
EVP_PKEY_asn1_set_free                            output.o
EVP_PKEY_asn1_set_param                           output.o
EVP_PKEY_asn1_set_private                         output.o
EVP_PKEY_asn1_set_public                          output.o
EVP_PKEY_assign                                   output.o
EVP_PKEY_base_id                                  output.o
EVP_PKEY_bits                                     output.o
EVP_PKEY_cmp                                      output.o
EVP_PKEY_cmp_parameters                           output.o
EVP_PKEY_copy_parameters                          output.o
EVP_PKEY_decrypt                                  output.o
EVP_PKEY_decrypt_init                             output.o
EVP_PKEY_delete_attr                              output.o
EVP_PKEY_derive                                   output.o
EVP_PKEY_derive_init                              output.o
EVP_PKEY_derive_set_peer                          output.o
EVP_PKEY_encrypt                                  output.o
EVP_PKEY_encrypt_init                             output.o
EVP_PKEY_free                                     output.o
EVP_PKEY_get0                                     output.o
EVP_PKEY_get0_asn1                                output.o
EVP_PKEY_get1_DH                                  output.o
EVP_PKEY_get1_DSA                                 output.o
EVP_PKEY_get1_EC_KEY                              output.o
EVP_PKEY_get1_RSA                                 output.o
EVP_PKEY_get_attr                                 output.o
EVP_PKEY_get_attr_by_NID                          output.o
EVP_PKEY_get_attr_by_OBJ                          output.o
EVP_PKEY_get_attr_count                           output.o
EVP_PKEY_get_default_digest_nid                   output.o
EVP_PKEY_id                                       output.o
EVP_PKEY_keygen                                   output.o
EVP_PKEY_keygen_init                              output.o
EVP_PKEY_meth_add0                                output.o
EVP_PKEY_meth_find                                output.o
EVP_PKEY_meth_free                                output.o
EVP_PKEY_meth_new                                 output.o
EVP_PKEY_meth_set_cleanup                         output.o
EVP_PKEY_meth_set_copy                            output.o
EVP_PKEY_meth_set_ctrl                            output.o
EVP_PKEY_meth_set_decrypt                         output.o
EVP_PKEY_meth_set_derive                          output.o
EVP_PKEY_meth_set_encrypt                         output.o
EVP_PKEY_meth_set_init                            output.o
EVP_PKEY_meth_set_keygen                          output.o
EVP_PKEY_meth_set_paramgen                        output.o
EVP_PKEY_meth_set_sign                            output.o
EVP_PKEY_meth_set_signctx                         output.o
EVP_PKEY_meth_set_verify                          output.o
EVP_PKEY_meth_set_verify_recover                  output.o
EVP_PKEY_meth_set_verifyctx                       output.o
EVP_PKEY_missing_parameters                       output.o
EVP_PKEY_new                                      output.o
EVP_PKEY_new_mac_key                              output.o
EVP_PKEY_paramgen                                 output.o
EVP_PKEY_paramgen_init                            output.o
EVP_PKEY_print_params                             output.o
EVP_PKEY_print_private                            output.o
EVP_PKEY_print_public                             output.o
EVP_PKEY_save_parameters                          output.o
EVP_PKEY_set1_DH                                  output.o
EVP_PKEY_set1_DSA                                 output.o
EVP_PKEY_set1_EC_KEY                              output.o
EVP_PKEY_set1_RSA                                 output.o
EVP_PKEY_set_type                                 output.o
EVP_PKEY_set_type_str                             output.o
EVP_PKEY_sign                                     output.o
EVP_PKEY_sign_init                                output.o
EVP_PKEY_size                                     output.o
EVP_PKEY_type                                     output.o
EVP_PKEY_verify                                   output.o
EVP_PKEY_verify_init                              output.o
EVP_PKEY_verify_recover                           output.o
EVP_PKEY_verify_recover_init                      output.o
EVP_SignFinal                                     output.o
EVP_VerifyFinal                                   output.o
EVP_add_cipher                                    output.o
EVP_add_digest                                    output.o
EVP_aes_128_cbc                                   output.o
EVP_aes_128_cfb1                                  output.o
EVP_aes_128_cfb128                                output.o
EVP_aes_128_cfb8                                  output.o
EVP_aes_128_ecb                                   output.o
EVP_aes_128_ofb                                   output.o
EVP_aes_192_cbc                                   output.o
EVP_aes_192_cfb1                                  output.o
EVP_aes_192_cfb128                                output.o
EVP_aes_192_cfb8                                  output.o
EVP_aes_192_ecb                                   output.o
EVP_aes_192_ofb                                   output.o
EVP_aes_256_cbc                                   output.o
EVP_aes_256_cfb1                                  output.o
EVP_aes_256_cfb128                                output.o
EVP_aes_256_cfb8                                  output.o
EVP_aes_256_ecb                                   output.o
EVP_aes_256_ofb                                   output.o
EVP_bf_cbc                                        output.o
EVP_bf_cfb64                                      output.o
EVP_bf_ecb                                        output.o
EVP_bf_ofb                                        output.o
EVP_cast5_cbc                                     output.o
EVP_cast5_cfb64                                   output.o
EVP_cast5_ecb                                     output.o
EVP_cast5_ofb                                     output.o
EVP_cleanup                                       output.o
EVP_des_cbc                                       output.o
EVP_des_cfb1                                      output.o
EVP_des_cfb64                                     output.o
EVP_des_cfb8                                      output.o
EVP_des_ecb                                       output.o
EVP_des_ede                                       output.o
EVP_des_ede3                                      output.o
EVP_des_ede3_cbc                                  output.o
EVP_des_ede3_cfb1                                 output.o
EVP_des_ede3_cfb64                                output.o
EVP_des_ede3_cfb8                                 output.o
EVP_des_ede3_ecb                                  output.o
EVP_des_ede3_ofb                                  output.o
EVP_des_ede_cbc                                   output.o
EVP_des_ede_cfb64                                 output.o
EVP_des_ede_ecb                                   output.o
EVP_des_ede_ofb                                   output.o
EVP_des_ofb                                       output.o
EVP_desx_cbc                                      output.o
EVP_dss                                           output.o
EVP_dss1                                          output.o
EVP_ecdsa                                         output.o
EVP_get_cipherbyname                              output.o
EVP_get_digestbyname                              output.o
EVP_get_pw_prompt                                 output.o
EVP_idea_cbc                                      output.o
EVP_idea_cfb64                                    output.o
EVP_idea_ecb                                      output.o
EVP_idea_ofb                                      output.o
EVP_md4                                           output.o
EVP_md5                                           output.o
EVP_rc2_40_cbc                                    output.o
EVP_rc2_64_cbc                                    output.o
EVP_rc2_cbc                                       output.o
EVP_rc2_cfb64                                     output.o
EVP_rc2_ecb                                       output.o
EVP_rc2_ofb                                       output.o
EVP_rc4                                           output.o
EVP_rc4_40                                        output.o
EVP_read_pw_string                                output.o
EVP_read_pw_string_min                            output.o
EVP_ripemd160                                     output.o
EVP_set_pw_prompt                                 output.o
EVP_sha                                           output.o
EVP_sha1                                          output.o
EVP_sha224                                        output.o
EVP_sha256                                        output.o
EVP_sha384                                        output.o
EVP_sha512                                        output.o
EVP_version                                       output.o
EVP_whirlpool                                     output.o
EXTENDED_KEY_USAGE_free                           output.o
EXTENDED_KEY_USAGE_it                             output.o
EXTENDED_KEY_USAGE_new                            output.o
ExchangePPSData                                   output.o
FI                                                output.o
FindBaudRateTable                                 output.o
GENERAL_NAMES_free                                output.o
GENERAL_NAMES_it                                  output.o
GENERAL_NAMES_new                                 output.o
GENERAL_NAME_cmp                                  output.o
GENERAL_NAME_dup                                  output.o
GENERAL_NAME_free                                 output.o
GENERAL_NAME_get0_otherName                       output.o
GENERAL_NAME_get0_value                           output.o
GENERAL_NAME_it                                   output.o
GENERAL_NAME_new                                  output.o
GENERAL_NAME_print                                output.o
GENERAL_NAME_set0_othername                       output.o
GENERAL_NAME_set0_value                           output.o
GENERAL_SUBTREE_free                              output.o
GENERAL_SUBTREE_it                                output.o
GENERAL_SUBTREE_new                               output.o
GetAttrValType                                    output.o
GetBWICWIData                                     output.o
GetCardStatus                                     output.o
GetDirDataByTlv                                   output.o
GetElem                                           output.o
GetICCardData                                     output.o
GetIFSCData                                       output.o
GetLength                                         output.o
GetOdfDataByTlv                                   output.o
GetTlvByBuf                                       output.o
GetTokenDataByTlv                                 output.o
GetUlByByte                                       output.o
GetUlByTxt                                        output.o
GetValueData                                      output.o
GetVerByTex                                       output.o
HMAC                                              output.o
HMAC_CTX_cleanup                                  output.o
HMAC_CTX_copy                                     output.o
HMAC_CTX_init                                     output.o
HMAC_CTX_set_flags                                output.o
HMAC_Final                                        output.o
HMAC_Init                                         output.o
HMAC_Init_ex                                      output.o
HMAC_Update                                       output.o
HPSearchHotPluggables                             output.o
IDEA_version                                      output.o
IDMan_CheckCardStatus                             output.o
IDMan_CmCheckCRL                                  output.o
IDMan_CmChgRSA                                    output.o
IDMan_CmGetCertificateSign                        output.o
IDMan_CmGetDN                                     output.o
IDMan_CmGetPublicKey                              output.o
IDMan_CmMakeRand                                  output.o
IDMan_CmMkHash                                    output.o
IDMan_CmPadding                                   output.o
IDMan_CmPadding2                                  output.o
IDMan_EncryptByIndex                              output.o
IDMan_IPCheckCrlPkcX                              output.o
IDMan_IPCheckPKC                                  output.o
IDMan_IPCheckSignature                            output.o
IDMan_IPCrSignature                               output.o
IDMan_IPFinalize                                  output.o
IDMan_IPFinalizeReader                            output.o
IDMan_IPIdPassListMalloc                          output.o
IDMan_IPInitialize                                output.o
IDMan_IPInitializeReader                          output.o
IDMan_IPMkPublicKeyObj                            output.o
IDMan_IPMkRandHash                                output.o
IDMan_IPRetJudgment                               output.o
IDMan_IPSignatureVerify                           output.o
IDMan_IPgCIndexParamChk                           output.o
IDMan_IPgCParamChk                                output.o
IDMan_IPgIdxSParamChk                             output.o
IDMan_IPgSParamChk                                output.o
IDMan_IPgetCertIdxPKCS                            output.o
IDMan_IPgetCertPKCS                               output.o
IDMan_IPgetCertPkeyIdxPKCSx                       output.o
IDMan_IPgetCertPkeyPKCSx                          output.o
IDMan_IPgetCertPkeyPKCSy                          output.o
IDMan_IPgetHash                                   output.o
IDMan_IPgetMakeRandData                           output.o
IDMan_IPgetPrivateKey                             output.o
IDMan_IPgetPrivateKeyPKCSx                        output.o
IDMan_IPuAPKCS11IdxParamChk                       output.o
IDMan_IPuAPKCS11ParamChk                          output.o
IDMan_IPvSIdxParamChk                             output.o
IDMan_IPvSParamChk                                output.o
IDMan_PaddingParamChk                             output.o
IDMan_SCardConnect                                output.o
IDMan_SCardDisconnect                             output.o
IDMan_SCardEstablishContext                       output.o
IDMan_SCardListReaders                            output.o
IDMan_SCardReleaseContext                         output.o
IDMan_SCardSetBinay                               output.o
IDMan_SCardSizeLongToChar                         output.o
IDMan_SCardStatus                                 output.o
IDMan_SCardTransmit                               output.o
IDMan_StAtoi                                      output.o
IDMan_StAtol                                      output.o
IDMan_StFree                                      output.o
IDMan_StMalloc                                    output.o
IDMan_StMemcmp                                    output.o
IDMan_StMemcpy                                    output.o
IDMan_StMemset                                    output.o
IDMan_StReadSetData                               output.o
IDMan_StStrcat                                    output.o
IDMan_StStrchr                                    output.o
IDMan_StStrcmp                                    output.o
IDMan_StStrcpy                                    output.o
IDMan_StStrlen                                    output.o
IDMan_generateSignature                           output.o
IDMan_generateSignatureByIndex                    output.o
IDMan_getCertificate                              output.o
IDMan_getCertificateByIndex                       output.o
IDMan_getMemoryFree                               output.o
IDMan_getStaticPassword                           output.o
IDMan_userAuthPKCS11                              output.o
IDMan_userAuthPKCS11ByIndex                       output.o
IDMan_verifySignature                             output.o
IDMan_verifySignatureByIndex                      output.o
IFDHCloseChannel                                  output.o
IFDHControl                                       output.o
IFDHCreateChannel                                 output.o
IFDHGetCapabilities                               output.o
IFDHICCPresence                                   output.o
IFDHPowerICC                                      output.o
IFDHSetProtocolParameters                         output.o
IFDHTransmitToICC                                 output.o
ISSUING_DIST_POINT_free                           output.o
ISSUING_DIST_POINT_it                             output.o
ISSUING_DIST_POINT_new                            output.o
InitCryptoLibrary                                 output.o
InitLeaderCardProtocol                            output.o
InternalAuth                                      output.o
LONG_it                                           output.o
MD4_Final                                         output.o
MD4_Init                                          output.o
MD4_Transform                                     output.o
MD4_Update                                        output.o
MD4_version                                       output.o
MD5                                               output.o
MD5_Final                                         output.o
MD5_Init                                          output.o
MD5_Transform                                     output.o
MD5_Update                                        output.o
MD5_version                                       output.o
NAME_CONSTRAINTS_check                            output.o
NAME_CONSTRAINTS_free                             output.o
NAME_CONSTRAINTS_it                               output.o
NAME_CONSTRAINTS_new                              output.o
NCONF_WIN32                                       output.o
NCONF_default                                     output.o
NCONF_dump_bio                                    output.o
NCONF_free                                        output.o
NCONF_free_data                                   output.o
NCONF_get_number_e                                output.o
NCONF_get_section                                 output.o
NCONF_get_string                                  output.o
NCONF_load                                        output.o
NCONF_load_bio                                    output.o
NCONF_new                                         output.o
NETSCAPE_CERT_SEQUENCE_free                       output.o
NETSCAPE_CERT_SEQUENCE_it                         output.o
NETSCAPE_CERT_SEQUENCE_new                        output.o
NETSCAPE_SPKAC_free                               output.o
NETSCAPE_SPKAC_it                                 output.o
NETSCAPE_SPKAC_new                                output.o
NETSCAPE_SPKI_free                                output.o
NETSCAPE_SPKI_it                                  output.o
NETSCAPE_SPKI_new                                 output.o
NETSCAPE_SPKI_sign                                output.o
NETSCAPE_SPKI_verify                              output.o
NOTICEREF_free                                    output.o
NOTICEREF_it                                      output.o
NOTICEREF_new                                     output.o
OBJ_NAME_add                                      output.o
OBJ_NAME_cleanup                                  output.o
OBJ_NAME_do_all                                   output.o
OBJ_NAME_do_all_sorted                            output.o
OBJ_NAME_get                                      output.o
OBJ_NAME_init                                     output.o
OBJ_NAME_new_index                                output.o
OBJ_NAME_remove                                   output.o
OBJ_add_object                                    output.o
OBJ_add_sigid                                     output.o
OBJ_bsearch_                                      output.o
OBJ_bsearch_ex_                                   output.o
OBJ_cleanup                                       output.o
OBJ_cmp                                           output.o
OBJ_create                                        output.o
OBJ_create_objects                                output.o
OBJ_dup                                           output.o
OBJ_find_sigid_algs                               output.o
OBJ_find_sigid_by_algs                            output.o
OBJ_ln2nid                                        output.o
OBJ_new_nid                                       output.o
OBJ_nid2ln                                        output.o
OBJ_nid2obj                                       output.o
OBJ_nid2sn                                        output.o
OBJ_obj2nid                                       output.o
OBJ_obj2txt                                       output.o
OBJ_sigid_free                                    output.o
OBJ_sn2nid                                        output.o
OBJ_txt2nid                                       output.o
OBJ_txt2obj                                       output.o
OCSP_BASICRESP_free                               output.o
OCSP_BASICRESP_it                                 output.o
OCSP_BASICRESP_new                                output.o
OCSP_CERTID_free                                  output.o
OCSP_CERTID_it                                    output.o
OCSP_CERTID_new                                   output.o
OCSP_CERTSTATUS_free                              output.o
OCSP_CERTSTATUS_it                                output.o
OCSP_CERTSTATUS_new                               output.o
OCSP_CRLID_free                                   output.o
OCSP_CRLID_it                                     output.o
OCSP_CRLID_new                                    output.o
OCSP_ONEREQ_free                                  output.o
OCSP_ONEREQ_it                                    output.o
OCSP_ONEREQ_new                                   output.o
OCSP_REQINFO_free                                 output.o
OCSP_REQINFO_it                                   output.o
OCSP_REQINFO_new                                  output.o
OCSP_REQUEST_free                                 output.o
OCSP_REQUEST_it                                   output.o
OCSP_REQUEST_new                                  output.o
OCSP_RESPBYTES_free                               output.o
OCSP_RESPBYTES_it                                 output.o
OCSP_RESPBYTES_new                                output.o
OCSP_RESPDATA_free                                output.o
OCSP_RESPDATA_it                                  output.o
OCSP_RESPDATA_new                                 output.o
OCSP_RESPID_free                                  output.o
OCSP_RESPID_it                                    output.o
OCSP_RESPID_new                                   output.o
OCSP_RESPONSE_free                                output.o
OCSP_RESPONSE_it                                  output.o
OCSP_RESPONSE_new                                 output.o
OCSP_REVOKEDINFO_free                             output.o
OCSP_REVOKEDINFO_it                               output.o
OCSP_REVOKEDINFO_new                              output.o
OCSP_SERVICELOC_free                              output.o
OCSP_SERVICELOC_it                                output.o
OCSP_SERVICELOC_new                               output.o
OCSP_SIGNATURE_free                               output.o
OCSP_SIGNATURE_it                                 output.o
OCSP_SIGNATURE_new                                output.o
OCSP_SINGLERESP_free                              output.o
OCSP_SINGLERESP_it                                output.o
OCSP_SINGLERESP_new                               output.o
OPENSSL_NONPIC_relocated                          output.o
OPENSSL_asc2uni                                   output.o
OPENSSL_cleanse                                   output.o
OPENSSL_cpuid_setup                               output.o
OPENSSL_gmtime                                    output.o
OPENSSL_gmtime_adj                                output.o
OPENSSL_ia32cap_P                                 output.o
OPENSSL_ia32cap_loc                               output.o
OPENSSL_isservice                                 output.o
OPENSSL_showfatal                                 output.o
OPENSSL_stderr                                    output.o
OPENSSL_uni2asc                                   output.o
OSSL_DES_version                                  output.o
OSSL_libdes_version                               output.o
OTHERNAME_cmp                                     output.o
OTHERNAME_free                                    output.o
OTHERNAME_it                                      output.o
OTHERNAME_new                                     output.o
OpenSSLDie                                        output.o
OpenSSL_add_all_ciphers                           output.o
OpenSSL_add_all_digests                           output.o
OpenUSB                                           output.o
PBE2PARAM_free                                    output.o
PBE2PARAM_it                                      output.o
PBE2PARAM_new                                     output.o
PBEPARAM_free                                     output.o
PBEPARAM_it                                       output.o
PBEPARAM_new                                      output.o
PBKDF2PARAM_free                                  output.o
PBKDF2PARAM_it                                    output.o
PBKDF2PARAM_new                                   output.o
PEM_ASN1_read_bio                                 output.o
PEM_ASN1_write_bio                                output.o
PEM_bytes_read_bio                                output.o
PEM_def_callback                                  output.o
PEM_dek_info                                      output.o
PEM_do_header                                     output.o
PEM_get_EVP_CIPHER_INFO                           output.o
PEM_proc_type                                     output.o
PEM_read_bio                                      output.o
PEM_read_bio_CMS                                  output.o
PEM_read_bio_DHparams                             output.o
PEM_read_bio_DSAPrivateKey                        output.o
PEM_read_bio_DSA_PUBKEY                           output.o
PEM_read_bio_DSAparams                            output.o
PEM_read_bio_ECPKParameters                       output.o
PEM_read_bio_ECPrivateKey                         output.o
PEM_read_bio_EC_PUBKEY                            output.o
PEM_read_bio_NETSCAPE_CERT_SEQUENCE               output.o
PEM_read_bio_PKCS7                                output.o
PEM_read_bio_PKCS8                                output.o
PEM_read_bio_PKCS8_PRIV_KEY_INFO                  output.o
PEM_read_bio_PUBKEY                               output.o
PEM_read_bio_Parameters                           output.o
PEM_read_bio_PrivateKey                           output.o
PEM_read_bio_RSAPrivateKey                        output.o
PEM_read_bio_RSAPublicKey                         output.o
PEM_read_bio_RSA_PUBKEY                           output.o
PEM_read_bio_X509                                 output.o
PEM_read_bio_X509_CRL                             output.o
PEM_read_bio_X509_REQ                             output.o
PEM_version                                       output.o
PEM_write_bio                                     output.o
PEM_write_bio_ASN1_stream                         output.o
PEM_write_bio_CMS                                 output.o
PEM_write_bio_CMS_stream                          output.o
PEM_write_bio_DHparams                            output.o
PEM_write_bio_DSAPrivateKey                       output.o
PEM_write_bio_DSA_PUBKEY                          output.o
PEM_write_bio_DSAparams                           output.o
PEM_write_bio_ECPKParameters                      output.o
PEM_write_bio_ECPrivateKey                        output.o
PEM_write_bio_EC_PUBKEY                           output.o
PEM_write_bio_NETSCAPE_CERT_SEQUENCE              output.o
PEM_write_bio_PKCS7                               output.o
PEM_write_bio_PKCS8                               output.o
PEM_write_bio_PKCS8PrivateKey                     output.o
PEM_write_bio_PKCS8PrivateKey_nid                 output.o
PEM_write_bio_PKCS8_PRIV_KEY_INFO                 output.o
PEM_write_bio_PUBKEY                              output.o
PEM_write_bio_Parameters                          output.o
PEM_write_bio_PrivateKey                          output.o
PEM_write_bio_RSAPrivateKey                       output.o
PEM_write_bio_RSAPublicKey                        output.o
PEM_write_bio_RSA_PUBKEY                          output.o
PEM_write_bio_X509                                output.o
PEM_write_bio_X509_CRL                            output.o
PEM_write_bio_X509_REQ                            output.o
PEM_write_bio_X509_REQ_NEW                        output.o
PHGetProtocol                                     output.o
PHSetProtocol                                     output.o
PKCS12_AUTHSAFES_it                               output.o
PKCS12_BAGS_free                                  output.o
PKCS12_BAGS_it                                    output.o
PKCS12_BAGS_new                                   output.o
PKCS12_MAC_DATA_free                              output.o
PKCS12_MAC_DATA_it                                output.o
PKCS12_MAC_DATA_new                               output.o
PKCS12_MAKE_KEYBAG                                output.o
PKCS12_MAKE_SHKEYBAG                              output.o
PKCS12_PBE_add                                    output.o
PKCS12_PBE_keyivgen                               output.o
PKCS12_SAFEBAGS_it                                output.o
PKCS12_SAFEBAG_free                               output.o
PKCS12_SAFEBAG_it                                 output.o
PKCS12_SAFEBAG_new                                output.o
PKCS12_certbag2x509                               output.o
PKCS12_certbag2x509crl                            output.o
PKCS12_decrypt_skey                               output.o
PKCS12_free                                       output.o
PKCS12_it                                         output.o
PKCS12_item_decrypt_d2i                           output.o
PKCS12_item_i2d_encrypt                           output.o
PKCS12_item_pack_safebag                          output.o
PKCS12_key_gen_asc                                output.o
PKCS12_key_gen_uni                                output.o
PKCS12_new                                        output.o
PKCS12_pack_authsafes                             output.o
PKCS12_pack_p7data                                output.o
PKCS12_pack_p7encdata                             output.o
PKCS12_pbe_crypt                                  output.o
PKCS12_unpack_authsafes                           output.o
PKCS12_unpack_p7data                              output.o
PKCS12_unpack_p7encdata                           output.o
PKCS12_x5092certbag                               output.o
PKCS12_x509crl2certbag                            output.o
PKCS1_MGF1                                        output.o
PKCS5_PBE_add                                     output.o
PKCS5_PBE_keyivgen                                output.o
PKCS5_PBKDF2_HMAC                                 output.o
PKCS5_PBKDF2_HMAC_SHA1                            output.o
PKCS5_pbe2_set                                    output.o
PKCS5_pbe2_set_iv                                 output.o
PKCS5_pbe_set                                     output.o
PKCS5_pbe_set0_algor                              output.o
PKCS5_v2_PBE_keyivgen                             output.o
PKCS7_ATTR_SIGN_it                                output.o
PKCS7_ATTR_VERIFY_it                              output.o
PKCS7_DIGEST_free                                 output.o
PKCS7_DIGEST_it                                   output.o
PKCS7_DIGEST_new                                  output.o
PKCS7_ENCRYPT_free                                output.o
PKCS7_ENCRYPT_it                                  output.o
PKCS7_ENCRYPT_new                                 output.o
PKCS7_ENC_CONTENT_free                            output.o
PKCS7_ENC_CONTENT_it                              output.o
PKCS7_ENC_CONTENT_new                             output.o
PKCS7_ENVELOPE_free                               output.o
PKCS7_ENVELOPE_it                                 output.o
PKCS7_ENVELOPE_new                                output.o
PKCS7_ISSUER_AND_SERIAL_digest                    output.o
PKCS7_ISSUER_AND_SERIAL_free                      output.o
PKCS7_ISSUER_AND_SERIAL_it                        output.o
PKCS7_ISSUER_AND_SERIAL_new                       output.o
PKCS7_RECIP_INFO_free                             output.o
PKCS7_RECIP_INFO_get0_alg                         output.o
PKCS7_RECIP_INFO_it                               output.o
PKCS7_RECIP_INFO_new                              output.o
PKCS7_RECIP_INFO_set                              output.o
PKCS7_SIGNED_free                                 output.o
PKCS7_SIGNED_it                                   output.o
PKCS7_SIGNED_new                                  output.o
PKCS7_SIGNER_INFO_free                            output.o
PKCS7_SIGNER_INFO_get0_algs                       output.o
PKCS7_SIGNER_INFO_it                              output.o
PKCS7_SIGNER_INFO_new                             output.o
PKCS7_SIGNER_INFO_set                             output.o
PKCS7_SIGNER_INFO_sign                            output.o
PKCS7_SIGN_ENVELOPE_free                          output.o
PKCS7_SIGN_ENVELOPE_it                            output.o
PKCS7_SIGN_ENVELOPE_new                           output.o
PKCS7_add0_attrib_signing_time                    output.o
PKCS7_add1_attrib_digest                          output.o
PKCS7_add_attrib_content_type                     output.o
PKCS7_add_attrib_smimecap                         output.o
PKCS7_add_attribute                               output.o
PKCS7_add_certificate                             output.o
PKCS7_add_crl                                     output.o
PKCS7_add_recipient                               output.o
PKCS7_add_recipient_info                          output.o
PKCS7_add_signature                               output.o
PKCS7_add_signed_attribute                        output.o
PKCS7_add_signer                                  output.o
PKCS7_cert_from_signer_info                       output.o
PKCS7_content_new                                 output.o
PKCS7_ctrl                                        output.o
PKCS7_dataDecode                                  output.o
PKCS7_dataFinal                                   output.o
PKCS7_dataInit                                    output.o
PKCS7_dataVerify                                  output.o
PKCS7_digest_from_attributes                      output.o
PKCS7_dup                                         output.o
PKCS7_free                                        output.o
PKCS7_get_attribute                               output.o
PKCS7_get_issuer_and_serial                       output.o
PKCS7_get_signed_attribute                        output.o
PKCS7_get_signer_info                             output.o
PKCS7_get_smimecap                                output.o
PKCS7_it                                          output.o
PKCS7_new                                         output.o
PKCS7_print_ctx                                   output.o
PKCS7_set0_type_other                             output.o
PKCS7_set_attributes                              output.o
PKCS7_set_cipher                                  output.o
PKCS7_set_content                                 output.o
PKCS7_set_digest                                  output.o
PKCS7_set_signed_attributes                       output.o
PKCS7_set_type                                    output.o
PKCS7_signatureVerify                             output.o
PKCS7_simple_smimecap                             output.o
PKCS7_stream                                      output.o
PKCS8_PRIV_KEY_INFO_free                          output.o
PKCS8_PRIV_KEY_INFO_it                            output.o
PKCS8_PRIV_KEY_INFO_new                           output.o
PKCS8_decrypt                                     output.o
PKCS8_encrypt                                     output.o
PKCS8_pkey_get0                                   output.o
PKCS8_pkey_set0                                   output.o
PKCS8_set_broken                                  output.o
PKEY_USAGE_PERIOD_free                            output.o
PKEY_USAGE_PERIOD_it                              output.o
PKEY_USAGE_PERIOD_new                             output.o
POLICYINFO_free                                   output.o
POLICYINFO_it                                     output.o
POLICYINFO_new                                    output.o
POLICYQUALINFO_free                               output.o
POLICYQUALINFO_it                                 output.o
POLICYQUALINFO_new                                output.o
POLICY_CONSTRAINTS_free                           output.o
POLICY_CONSTRAINTS_it                             output.o
POLICY_CONSTRAINTS_new                            output.o
POLICY_MAPPINGS_it                                output.o
POLICY_MAPPING_free                               output.o
POLICY_MAPPING_it                                 output.o
POLICY_MAPPING_new                                output.o
PROXY_CERT_INFO_EXTENSION_free                    output.o
PROXY_CERT_INFO_EXTENSION_it                      output.o
PROXY_CERT_INFO_EXTENSION_new                     output.o
PROXY_POLICY_free                                 output.o
PROXY_POLICY_it                                   output.o
PROXY_POLICY_new                                  output.o
PowerOff                                          output.o
PowerOn                                           output.o
RAND_SSLeay                                       output.o
RAND_add                                          output.o
RAND_bytes                                        output.o
RAND_cleanup                                      output.o
RAND_get_rand_method                              output.o
RAND_poll                                         output.o
RAND_pseudo_bytes                                 output.o
RAND_seed                                         output.o
RAND_set_rand_method                              output.o
RAND_status                                       output.o
RAND_version                                      output.o
RC2_cbc_encrypt                                   output.o
RC2_cfb64_encrypt                                 output.o
RC2_decrypt                                       output.o
RC2_ecb_encrypt                                   output.o
RC2_encrypt                                       output.o
RC2_ofb64_encrypt                                 output.o
RC2_set_key                                       output.o
RC2_version                                       output.o
RC4                                               output.o
RC4_options                                       output.o
RC4_set_key                                       output.o
RC4_version                                       output.o
RFAddReader                                       output.o
RFCheckReaderEventState                           output.o
RFReaderInfoById                                  output.o
RFRemoveReader                                    output.o
RIPEMD160_Final                                   output.o
RIPEMD160_Init                                    output.o
RIPEMD160_Transform                               output.o
RIPEMD160_Update                                  output.o
RMD160_version                                    output.o
RSAPrivateKey_dup                                 output.o
RSAPrivateKey_it                                  output.o
RSAPublicKey_dup                                  output.o
RSAPublicKey_it                                   output.o
RSA_PKCS1_SSLeay                                  output.o
RSA_X931_hash_id                                  output.o
RSA_blinding_off                                  output.o
RSA_blinding_on                                   output.o
RSA_flags                                         output.o
RSA_free                                          output.o
RSA_generate_key                                  output.o
RSA_generate_key_ex                               output.o
RSA_get_default_method                            output.o
RSA_get_ex_data                                   output.o
RSA_get_ex_new_index                              output.o
RSA_get_method                                    output.o
RSA_memory_lock                                   output.o
RSA_new                                           output.o
RSA_new_method                                    output.o
RSA_padding_add_PKCS1_OAEP                        output.o
RSA_padding_add_PKCS1_PSS                         output.o
RSA_padding_add_PKCS1_type_1                      output.o
RSA_padding_add_PKCS1_type_2                      output.o
RSA_padding_add_SSLv23                            output.o
RSA_padding_add_X931                              output.o
RSA_padding_add_none                              output.o
RSA_padding_check_PKCS1_OAEP                      output.o
RSA_padding_check_PKCS1_type_1                    output.o
RSA_padding_check_PKCS1_type_2                    output.o
RSA_padding_check_SSLv23                          output.o
RSA_padding_check_X931                            output.o
RSA_padding_check_none                            output.o
RSA_private_decrypt                               output.o
RSA_private_encrypt                               output.o
RSA_public_decrypt                                output.o
RSA_public_encrypt                                output.o
RSA_set_default_method                            output.o
RSA_set_ex_data                                   output.o
RSA_set_method                                    output.o
RSA_setup_blinding                                output.o
RSA_sign                                          output.o
RSA_size                                          output.o
RSA_up_ref                                        output.o
RSA_verify                                        output.o
RSA_verify_PKCS1_PSS                              output.o
RSA_version                                       output.o
ReadBinary                                        output.o
ReadDataT0                                        output.o
ReadUSB                                           output.o
ReceiveReply                                      output.o
SCardBeginTransaction                             output.o
SCardConnect                                      output.o
SCardDisconnect                                   output.o
SCardEndTransaction                               output.o
SCardEstablishContext                             output.o
SCardListReaders                                  output.o
SCardReleaseContext                               output.o
SCardStatus                                       output.o
SCardTransmit                                     output.o
SHA1                                              output.o
SHA1_Final                                        output.o
SHA1_Init                                         output.o
SHA1_Transform                                    output.o
SHA1_Update                                       output.o
SHA1_version                                      output.o
SHA224                                            output.o
SHA224_Final                                      output.o
SHA224_Init                                       output.o
SHA224_Update                                     output.o
SHA256                                            output.o
SHA256_Final                                      output.o
SHA256_Init                                       output.o
SHA256_Transform                                  output.o
SHA256_Update                                     output.o
SHA256_version                                    output.o
SHA384                                            output.o
SHA384_Final                                      output.o
SHA384_Init                                       output.o
SHA384_Update                                     output.o
SHA512                                            output.o
SHA512_Final                                      output.o
SHA512_Init                                       output.o
SHA512_Transform                                  output.o
SHA512_Update                                     output.o
SHA512_version                                    output.o
SHA_Final                                         output.o
SHA_Init                                          output.o
SHA_Transform                                     output.o
SHA_Update                                        output.o
SHA_version                                       output.o
SMIME_crlf_copy                                   output.o
SMIME_read_ASN1                                   output.o
SMIME_read_CMS                                    output.o
SMIME_text                                        output.o
SMIME_write_ASN1                                  output.o
SMIME_write_CMS                                   output.o
STACK_version                                     output.o
SXNETID_free                                      output.o
SXNETID_it                                        output.o
SXNETID_new                                       output.o
SXNET_add_id_INTEGER                              output.o
SXNET_add_id_asc                                  output.o
SXNET_add_id_ulong                                output.o
SXNET_free                                        output.o
SXNET_get_id_INTEGER                              output.o
SXNET_get_id_asc                                  output.o
SXNET_get_id_ulong                                output.o
SXNET_it                                          output.o
SXNET_new                                         output.o
Se4AddArpEntryList                                output.o
Se4AdjustTcpMss                                   output.o
Se4And                                            output.o
Se4BitToHex                                       output.o
Se4BroadcastMacAddress                            output.o
Se4BuildIcmpEchoPacket                            output.o
Se4CheckUnicastAddress                            output.o
Se4Cmp                                            output.o
Se4CmpArpEntry                                    output.o
Se4CmpArpWaitEntry                                output.o
Se4CmpIpCombineList                               output.o
Se4CombineIp                                      output.o
Se4FlushArpEntryList                              output.o
Se4FlushIpCombineList                             output.o
Se4FlushIpWaitList                                output.o
Se4Free                                           output.o
Se4FreeArpEntryList                               output.o
Se4FreeArpWaitList                                output.o
Se4FreeIpCombine                                  output.o
Se4FreeIpCombineList                              output.o
Se4FreeIpFragmentList                             output.o
Se4FreeIpHeaderInfo                               output.o
Se4FreeIpWait                                     output.o
Se4FreeIpWaitList                                 output.o
Se4GenerateSubnetMask                             output.o
Se4GenerateSubnetMask32                           output.o
Se4GetBroadcastAddress                            output.o
Se4GetHostAddress                                 output.o
Se4GetNetworkAddress                              output.o
Se4IPToStr                                        output.o
Se4IPToStr32                                      output.o
Se4IPToUINT                                       output.o
Se4Init                                           output.o
Se4InitArpEntryList                               output.o
Se4InitArpWaitList                                output.o
Se4InitIpCombineList                              output.o
Se4InitIpFragmentList                             output.o
Se4InitIpWaitList                                 output.o
Se4InsertIpCombine                                output.o
Se4InsertIpWait                                   output.o
Se4IpCheckChecksum                                output.o
Se4IpChecksum                                     output.o
Se4IsBroadcastAddress                             output.o
Se4IsInSameNetwork                                output.o
Se4IsSubnetMask                                   output.o
Se4IsZeroIP                                       output.o
Se4MacIpRelationKnown                             output.o
Se4MainProc                                       output.o
Se4Not                                            output.o
Se4Or                                             output.o
Se4ParseIpPacket                                  output.o
Se4ParseIpPacketICMPv4                            output.o
Se4ParseIpPacketUDPv4                             output.o
Se4ProcessArpWaitList                             output.o
Se4RecvArp                                        output.o
Se4RecvArpRequest                                 output.o
Se4RecvArpResponse                                output.o
Se4RecvEthPacket                                  output.o
Se4RecvIp                                         output.o
Se4RecvIpComplete                                 output.o
Se4SearchArpEntryList                             output.o
Se4SearchArpWaitList                              output.o
Se4SearchIpCombineList                            output.o
Se4SendArpDoProcess                               output.o
Se4SendArpRequest                                 output.o
Se4SendArpResponse                                output.o
Se4SendEthPacket                                  output.o
Se4SendIcmp                                       output.o
Se4SendIcmpEchoRequest                            output.o
Se4SendIcmpEchoResponse                           output.o
Se4SendIp                                         output.o
Se4SendIpFragment                                 output.o
Se4SendIpFragmentNow                              output.o
Se4SendRawIp                                      output.o
Se4SendUdp                                        output.o
Se4SendWaitingIpWait                              output.o
Se4StrToIP                                        output.o
Se4StrToIP32                                      output.o
Se4Tick                                           output.o
Se4UINTToIP                                       output.o
Se4ZeroIP                                         output.o
Se6AddGuestNode                                   output.o
Se6AddNeighborEntryList                           output.o
Se6And                                            output.o
Se6BroadcastMacAddress                            output.o
Se6BuildIcmpEchoPacket                            output.o
Se6CalcChecksum                                   output.o
Se6CheckIPItemStr                                 output.o
Se6CheckSubnetLength                              output.o
Se6CheckUnicastAddress                            output.o
Se6Cmp                                            output.o
Se6CmpIpCombineList                               output.o
Se6CmpNdpWaitEntry                                output.o
Se6CmpNeighborEntry                               output.o
Se6CombineIp                                      output.o
Se6FlushIpCombineList                             output.o
Se6FlushIpWaitList                                output.o
Se6FlushNeighborEntryList                         output.o
Se6Free                                           output.o
Se6FreeIpCombine                                  output.o
Se6FreeIpCombineList                              output.o
Se6FreeIpFragmentList                             output.o
Se6FreeIpHeaderInfo                               output.o
Se6FreeIpWait                                     output.o
Se6FreeIpWaitList                                 output.o
Se6FreeNdpWaitList                                output.o
Se6FreeNeighborEntryList                          output.o
Se6GenerateEui64Address                           output.o
Se6GenerateEui64GlobalAddress                     output.o
Se6GenerateEui64LocalAddress                      output.o
Se6GenerateMulticastMacAddress                    output.o
Se6GenerateSubnetMask                             output.o
Se6GetAllNodeMulticastAddr                        output.o
Se6GetAllRouterMulticastAddr                      output.o
Se6GetHostAddress                                 output.o
Se6GetIPAddrType                                  output.o
Se6GetPrefixAddress                               output.o
Se6GetSoliciationMulticastAddr                    output.o
Se6IPItemStrToChars                               output.o
Se6IPToStr                                        output.o
Se6Init                                           output.o
Se6InitIpCombineList                              output.o
Se6InitIpFragmentList                             output.o
Se6InitIpWaitList                                 output.o
Se6InitNdpWaitList                                output.o
Se6InitNeighborEntryList                          output.o
Se6InsertIpCombine                                output.o
Se6InsertIpWait                                   output.o
Se6IpChecksum                                     output.o
Se6IsGuestNode                                    output.o
Se6IsInSameNetwork                                output.o
Se6IsNetworkPrefixAddress                         output.o
Se6IsSubnetMask                                   output.o
Se6IsZeroIP                                       output.o
Se6LocalSubnet                                    output.o
Se6MacIpRelationKnown                             output.o
Se6MainProc                                       output.o
Se6Not                                            output.o
Se6Or                                             output.o
Se6ParseIpPacket                                  output.o
Se6ParseIpPacketICMPv6                            output.o
Se6ParseIpPacketUDPv6                             output.o
Se6ProcessNdpWaitList                             output.o
Se6RecvEthPacket                                  output.o
Se6RecvIp                                         output.o
Se6RecvIpComplete                                 output.o
Se6SearchIpCombineList                            output.o
Se6SearchNdpWaitList                              output.o
Se6SearchNeighborEntryList                        output.o
Se6SendEthPacket                                  output.o
Se6SendIcmp                                       output.o
Se6SendIcmpEchoRequest                            output.o
Se6SendIcmpEchoResponse                           output.o
Se6SendIcmpNeighborAdvertisement                  output.o
Se6SendIcmpNeighborSoliciation                    output.o
Se6SendIcmpRouterAdvertisement                    output.o
Se6SendIp                                         output.o
Se6SendIpFragment                                 output.o
Se6SendIpFragmentNow                              output.o
Se6SendNeighborSoliciation                        output.o
Se6SendNeighborSoliciationDoProcess               output.o
Se6SendRawIp                                      output.o
Se6SendUdp                                        output.o
Se6SendWaitingIpWait                              output.o
Se6StrToIP                                        output.o
Se6SubnetMaskToInt                                output.o
Se6Tick                                           output.o
Se6ZeroIP                                         output.o
SeAdd                                             output.o
SeAddBufStr                                       output.o
SeAdjustBufSize                                   output.o
SeB64CharToCode                                   output.o
SeB64CodeToChar                                   output.o
SeB64Decode                                       output.o
SeB64Encode                                       output.o
SeBSearch                                         output.o
SeBigNumToBuf                                     output.o
SeBigNumToStr                                     output.o
SeBinToBigNum                                     output.o
SeBinToStr                                        output.o
SeBinToStrEx                                      output.o
SeBioToBuf                                        output.o
SeBioToCert                                       output.o
SeBioToKey                                        output.o
SeBufToBigNum                                     output.o
SeBufToBio                                        output.o
SeBufToCert                                       output.o
SeBufToKey                                        output.o
SeBuildAndAddIPv6PacketOptionHeader               output.o
SeBuildICMPv6OptionValue                          output.o
SeBuildICMPv6Options                              output.o
SeBuildIPv6Packet                                 output.o
SeBuildIPv6PacketWithFragment                     output.o
SeCalcReplaceStrEx                                output.o
SeCertToBio                                       output.o
SeCertToBuf                                       output.o
SeCheckCert                                       output.o
SeCheckCertAndKey                                 output.o
SeCheckSignature                                  output.o
SeClearBuf                                        output.o
SeClearFifo                                       output.o
SeClone                                           output.o
SeCloneBuf                                        output.o
SeCloneCert                                       output.o
SeCloneKey                                        output.o
SeCloneList                                       output.o
SeCmp                                             output.o
SeCmpBuf                                          output.o
SeCmpEx                                           output.o
SeCompareCert                                     output.o
SeCompareStr                                      output.o
SeCopy                                            output.o
SeCopyStr                                         output.o
SeCopyToArray                                     output.o
SeDebug                                           output.o
SeDebugBin                                        output.o
SeDefaultTokenSplitChars                          output.o
SeDelete                                          output.o
SeDeleteAll                                       output.o
SeDeleteLock                                      output.o
SeDes3Decrypt                                     output.o
SeDes3Encrypt                                     output.o
SeDes3FreeKey                                     output.o
SeDes3NewKey                                      output.o
SeDes3RandKey                                     output.o
SeDesFreeKey                                      output.o
SeDesFreeKeyValue                                 output.o
SeDesNewKey                                       output.o
SeDesNewKeyValue                                  output.o
SeDesRandKey                                      output.o
SeDesRandKeyValue                                 output.o
SeDhCompute                                       output.o
SeDhFree                                          output.o
SeDhNew                                           output.o
SeDhNewGroup2                                     output.o
SeDumpBuf                                         output.o
SeEndWith                                         output.o
SeEndian16                                        output.o
SeEndian32                                        output.o
SeEndian64                                        output.o
SeError                                           output.o
SeEthAddSenderMacList                             output.o
SeEthDeleteOldSenderMacList                       output.o
SeEthFree                                         output.o
SeEthGenRandMacAddress                            output.o
SeEthGetInfo                                      output.o
SeEthGetNextRecvPacket                            output.o
SeEthIsSenderMacAddressExistsInList               output.o
SeEthNew                                          output.o
SeEthNicCallback                                  output.o
SeEthParseEthernetPacket                          output.o
SeEthSend                                         output.o
SeEthSendAdd                                      output.o
SeEthSendAll                                      output.o
SeFastSwap                                        output.o
SeFatal                                           output.o
SeFifoSize                                        output.o
SeFormat                                          output.o
SeFormatArgs                                      output.o
SeFormatEx                                        output.o
SeFree                                            output.o
SeFreeBio                                         output.o
SeFreeBuf                                         output.o
SeFreeBufWithoutBuffer                            output.o
SeFreeCert                                        output.o
SeFreeConfigEntryList                             output.o
SeFreeCrypto                                      output.o
SeFreeFifo                                        output.o
SeFreeKernel                                      output.o
SeFreeKey                                         output.o
SeFreeList                                        output.o
SeFreePKey                                        output.o
SeFreePacket                                      output.o
SeFreePacketList                                  output.o
SeFreePacketListWithoutBuffer                     output.o
SeFreeQueue                                       output.o
SeFreeStack                                       output.o
SeFreeToken                                       output.o
SeFreeX509                                        output.o
SeGetCertIssuerName                               output.o
SeGetCertMd5                                      output.o
SeGetCertSha1                                     output.o
SeGetCertSubjectName                              output.o
SeGetConfigBin                                    output.o
SeGetConfigBool                                   output.o
SeGetConfigEntry                                  output.o
SeGetConfigInt                                    output.o
SeGetConfigInt64                                  output.o
SeGetConfigStr                                    output.o
SeGetCurrentCpuId                                 output.o
SeGetKeyAndValue                                  output.o
SeGetKeyFromCert                                  output.o
SeGetNext                                         output.o
SeGetNextHeaderFromQueue                          output.o
SeGetNextInt                                      output.o
SeHashForSignBySHA1                               output.o
SeHexTo4Bit                                       output.o
SeHexToInt                                        output.o
SeHexToInt64                                      output.o
SeIkeBuild                                        output.o
SeIkeBuildCertPayload                             output.o
SeIkeBuildCertRequestPayload                      output.o
SeIkeBuildDataPayload                             output.o
SeIkeBuildDeletePayload                           output.o
SeIkeBuildIdPayload                               output.o
SeIkeBuildNoticePayload                           output.o
SeIkeBuildPayload                                 output.o
SeIkeBuildPayloadList                             output.o
SeIkeBuildProposalPayload                         output.o
SeIkeBuildSaPayload                               output.o
SeIkeBuildTransformPayload                        output.o
SeIkeBuildTransformValue                          output.o
SeIkeBuildTransformValueList                      output.o
SeIkeDecrypt                                      output.o
SeIkeEncrypt                                      output.o
SeIkeEncryptWithPadding                           output.o
SeIkeFree                                         output.o
SeIkeFreeCertPayload                              output.o
SeIkeFreeCertRequestPayload                       output.o
SeIkeFreeDataPayload                              output.o
SeIkeFreeDeletePayload                            output.o
SeIkeFreeIdPayload                                output.o
SeIkeFreeNoticePayload                            output.o
SeIkeFreePayload                                  output.o
SeIkeFreePayloadList                              output.o
SeIkeFreeProposalPayload                          output.o
SeIkeFreeSaPayload                                output.o
SeIkeFreeTransformPayload                         output.o
SeIkeFreeTransformValueList                       output.o
SeIkeGetFirstPayloadType                          output.o
SeIkeGetIPv4Address                               output.o
SeIkeGetIPv6Address                               output.o
SeIkeGetPayload                                   output.o
SeIkeGetPayloadNum                                output.o
SeIkeInitIPv4Address                              output.o
SeIkeInitIPv6Address                              output.o
SeIkeIpAddressToStr                               output.o
SeIkeIsZeroIP                                     output.o
SeIkeNew                                          output.o
SeIkeNewCertPayload                               output.o
SeIkeNewCertRequestPayload                        output.o
SeIkeNewDataPayload                               output.o
SeIkeNewDeletePayload                             output.o
SeIkeNewIdPayload                                 output.o
SeIkeNewNoticePayload                             output.o
SeIkeNewPayload                                   output.o
SeIkeNewProposalPayload                           output.o
SeIkeNewSaPayload                                 output.o
SeIkeNewTransformPayload                          output.o
SeIkeNewTransformValue                            output.o
SeIkeParse                                        output.o
SeIkeParseCertPayload                             output.o
SeIkeParseCertRequestPayload                      output.o
SeIkeParseDataPayload                             output.o
SeIkeParseDeletePayload                           output.o
SeIkeParseEx                                      output.o
SeIkeParseHeader                                  output.o
SeIkeParseIdPayload                               output.o
SeIkeParseNoticePayload                           output.o
SeIkeParsePayload                                 output.o
SeIkeParsePayloadList                             output.o
SeIkeParsePayloadListEx                           output.o
SeIkeParseProposalPayload                         output.o
SeIkeParseSaPayload                               output.o
SeIkeParseTransformPayload                        output.o
SeIkeParseTransformValueList                      output.o
SeIkePhase1CryptIdToKeySize                       output.o
SeIkePhase2CryptIdToKeySize                       output.o
SeIkeStrToPassword                                output.o
SeIkeStrToPhase1CryptId                           output.o
SeIkeStrToPhase1HashId                            output.o
SeIkeStrToPhase1Mode                              output.o
SeIkeStrToPhase2CryptId                           output.o
SeIkeStrToPhase2HashId                            output.o
SeInfo                                            output.o
SeInitCrypto                                      output.o
SeInitKernel                                      output.o
SeInsert                                          output.o
SeInsertQueue                                     output.o
SeInsertQueueInt                                  output.o
SeInsertStr                                       output.o
SeIntFree                                         output.o
SeIntInit                                         output.o
SeIsAllLowerStr                                   output.o
SeIsAllUpperStr                                   output.o
SeIsBase64                                        output.o
SeIsBigEndian                                     output.o
SeIsCertSignedByCert                              output.o
SeIsCharInStr                                     output.o
SeIsEmptyStr                                      output.o
SeIsInList                                        output.o
SeIsInListStr                                     output.o
SeIsLittleEndian                                  output.o
SeIsSplitChar                                     output.o
SeIsZero                                          output.o
SeKeyToBio                                        output.o
SeKeyToBuf                                        output.o
SeLoad                                            output.o
SeLoadCert                                        output.o
SeLoadConfigEntryList                             output.o
SeLoadConfigEntryListFromBuf                      output.o
SeLoadKey                                         output.o
SeLock                                            output.o
SeLog                                             output.o
SeLogArgs                                         output.o
SeMacSha1                                         output.o
SeMacSha196                                       output.o
SeMacToStr                                        output.o
SeMakeCharArray                                   output.o
SeMalloc                                          output.o
SeMd5                                             output.o
SeMemSize                                         output.o
SeMemToBuf                                        output.o
SeNewBio                                          output.o
SeNewBuf                                          output.o
SeNewFifo                                         output.o
SeNewList                                         output.o
SeNewLock                                         output.o
SeNewQueue                                        output.o
SeNewStack                                        output.o
SeNormalizeCrlf                                   output.o
SeNullTokenList                                   output.o
SePKeyPasswordCallbackFunction                    output.o
SeParseICMPv6Options                              output.o
SeParseIPv6ExtHeader                              output.o
SeParseIPv6Packet                                 output.o
SeParsePacket                                     output.o
SeParsePacketL2                                   output.o
SeParsePacketL3ARPv4                              output.o
SeParsePacketL3IPv4                               output.o
SeParsePacketL3IPv6                               output.o
SeParseToken                                      output.o
SeParseTokenWithNullStr                           output.o
SePeekFifo                                        output.o
SePeekNext                                        output.o
SePop                                             output.o
SePush                                            output.o
SeQSort                                           output.o
SeRand                                            output.o
SeRand1                                           output.o
SeRand16                                          output.o
SeRand32                                          output.o
SeRand64                                          output.o
SeRand8                                           output.o
SeRandBuf                                         output.o
SeReAlloc                                         output.o
SeReadBuf                                         output.o
SeReadBufFromBuf                                  output.o
SeReadBufInt                                      output.o
SeReadBufInt64                                    output.o
SeReadBufStr                                      output.o
SeReadDump                                        output.o
SeReadFifo                                        output.o
SeReadNextLine                                    output.o
SeReadRemainBuf                                   output.o
SeReplaceListPointer                              output.o
SeReplaceStr                                      output.o
SeReplaceStrEx                                    output.o
SeReplaceStri                                     output.o
SeRsaGen                                          output.o
SeRsaPrivateDecrypt                               output.o
SeRsaPrivateEncrypt                               output.o
SeRsaPublicDecrypt                                output.o
SeRsaPublicEncrypt                                output.o
SeRsaPublicSize                                   output.o
SeRsaPublicToBin                                  output.o
SeRsaPublicToBuf                                  output.o
SeRsaSign                                         output.o
SeRsaSignWithPadding                              output.o
SeRsaSignWithSha1                                 output.o
SeRsaVerifyWithPadding                            output.o
SeRsaVerifyWithSha1                               output.o
SeSave                                            output.o
SeSaveCert                                        output.o
SeSaveKey                                         output.o
SeSearch                                          output.o
SeSearchStr                                       output.o
SeSearchStrEx                                     output.o
SeSearchStri                                      output.o
SeSecAddTimer                                     output.o
SeSecCalcKEYMAT                                   output.o
SeSecCalcKEYMATFull                               output.o
SeSecCalcKa                                       output.o
SeSecCalcP1Iv                                     output.o
SeSecCalcP1KeySet                                 output.o
SeSecCalcP2Iv                                     output.o
SeSecCheckIPsecSaExpires                          output.o
SeSecCheckIkeSaExpires                            output.o
SeSecCmpIkeSa                                     output.o
SeSecDeleteExpiredIPsecSa                         output.o
SeSecDeleteExpiredIkeSa                           output.o
SeSecDoInterval                                   output.o
SeSecEspRecvCallback                              output.o
SeSecForceReconnect                               output.o
SeSecFree                                         output.o
SeSecFreeIPsecSa                                  output.o
SeSecFreeIkeSa                                    output.o
SeSecFreeMain                                     output.o
SeSecFreeP1KeySet                                 output.o
SeSecFreeSaList                                   output.o
SeSecGenIPsecSASpi                                output.o
SeSecGenIkeSaInitCookie                           output.o
SeSecGenIkeSaMessageId                            output.o
SeSecGetIPsecSa                                   output.o
SeSecInit                                         output.o
SeSecInitMain                                     output.o
SeSecInitSaList                                   output.o
SeSecLifeSeconds64bit                             output.o
SeSecNewIPsecSa                                   output.o
SeSecNewIkeSa                                     output.o
SeSecNewSpi                                       output.o
SeSecProcessIkeSaMsg                              output.o
SeSecProcessIkeSaMsgInfo                          output.o
SeSecProcessIkeSaMsgPhase1                        output.o
SeSecProcessIkeSaMsgPhase2                        output.o
SeSecProcessMain                                  output.o
SeSecRecvAggr                                     output.o
SeSecRecvMain2                                    output.o
SeSecRecvMain4                                    output.o
SeSecRecvMain6                                    output.o
SeSecSearchIPsecSaBySpi                           output.o
SeSecSearchIkeSa                                  output.o
SeSecSearchIkeSaBySpi                             output.o
SeSecSendAggr                                     output.o
SeSecSendEsp                                      output.o
SeSecSendIPsecSaDeleteMsg                         output.o
SeSecSendIkeSaDeleteMsg                           output.o
SeSecSendIkeSaMsgInfo                             output.o
SeSecSendIkeSaMsgInfoSimple                       output.o
SeSecSendIkeSaMsgPhase2                           output.o
SeSecSendIkeSaMsgPhase2FinalHash                  output.o
SeSecSendMain1                                    output.o
SeSecSendMain3                                    output.o
SeSecSendMain5                                    output.o
SeSecSendUdp                                      output.o
SeSecSendVirtualIp                                output.o
SeSecSetRecvEspCallback                           output.o
SeSecSetRecvUdpCallback                           output.o
SeSecSetRecvVirtualIpCallback                     output.o
SeSecSetTimerCallback                             output.o
SeSecStartVpnConnect                              output.o
SeSecStrToAuthMethod                              output.o
SeSecTick                                         output.o
SeSecTimerCallback                                output.o
SeSecUdpRecvCallback                              output.o
SeSecVirtualIpRecvCallback                        output.o
SeSeekBuf                                         output.o
SeSetCmp                                          output.o
SeSetSortFlag                                     output.o
SeSha1                                            output.o
SeSort                                            output.o
SeStartWith                                       output.o
SeStrCat                                          output.o
SeStrCheckLen                                     output.o
SeStrCheckSize                                    output.o
SeStrCmp                                          output.o
SeStrCmpi                                         output.o
SeStrCpy                                          output.o
SeStrLen                                          output.o
SeStrLower                                        output.o
SeStrSize                                         output.o
SeStrToBin                                        output.o
SeStrToBinEx                                      output.o
SeStrToMac                                        output.o
SeStrUpper                                        output.o
SeStrnCmp                                         output.o
SeStrnCmpi                                        output.o
SeSwap                                            output.o
SeSwap16                                          output.o
SeSwap32                                          output.o
SeSwap64                                          output.o
SeSysFreeData                                     output.o
SeSysFreeLock                                     output.o
SeSysFreeTimer                                    output.o
SeSysGetCurrentCpuId                              output.o
SeSysGetPhysicalNicInfo                           output.o
SeSysGetTickCount                                 output.o
SeSysGetVirtualNicInfo                            output.o
SeSysLoadData                                     output.o
SeSysLock                                         output.o
SeSysLog                                          output.o
SeSysMemoryAlloc                                  output.o
SeSysMemoryFree                                   output.o
SeSysMemoryReAlloc                                output.o
SeSysNewLock                                      output.o
SeSysNewTimer                                     output.o
SeSysRsaSign                                      output.o
SeSysSaveData                                     output.o
SeSysSendPhysicalNic                              output.o
SeSysSendVirtualNic                               output.o
SeSysSetPhysicalNicRecvCallback                   output.o
SeSysSetTimer                                     output.o
SeSysSetVirtualNicRecvCallback                    output.o
SeSysUnlock                                       output.o
SeTick                                            output.o
SeTick64                                          output.o
SeTick64Internal                                  output.o
SeTimerAdjust                                     output.o
SeTimerCallback                                   output.o
SeTimerEntryCompare                               output.o
SeTimerFree                                       output.o
SeTimerNew                                        output.o
SeTimerSet                                        output.o
SeToArray                                         output.o
SeToHex                                           output.o
SeToHex64                                         output.o
SeToInt                                           output.o
SeToInt64                                         output.o
SeToLower                                         output.o
SeToStr                                           output.o
SeToStr3                                          output.o
SeToStr64                                         output.o
SeToUpper                                         output.o
SeTrim                                            output.o
SeTrimCopy                                        output.o
SeTrimCrlf                                        output.o
SeTrimLeft                                        output.o
SeTrimRight                                       output.o
SeUniqueToken                                     output.o
SeUnlock                                          output.o
SeVpn4ClientAddTimer                              output.o
SeVpn4ClientGetTick                               output.o
SeVpn4ClientSendEsp                               output.o
SeVpn4ClientSendUdp                               output.o
SeVpn4ClientSendVirtualIp                         output.o
SeVpn4ClientSetRecvEspCallback                    output.o
SeVpn4ClientSetRecvUdpCallback                    output.o
SeVpn4ClientSetRecvVirtualIpCallback              output.o
SeVpn4ClientSetTimerCallback                      output.o
SeVpn4DhcpBuildDhcpOptionList                     output.o
SeVpn4DhcpFreeOptionList                          output.o
SeVpn4DhcpOptionsToBuf                            output.o
SeVpn4DhcpParseOptionList                         output.o
SeVpn4DhcpParseOptionListMain                     output.o
SeVpn4DhcpSearchOption                            output.o
SeVpn4DhcpSendResponse                            output.o
SeVpn4DhcpServer                                  output.o
SeVpn4DoInterval                                  output.o
SeVpn4Free                                        output.o
SeVpn4FreeIPsec                                   output.o
SeVpn4IPsecInputFromPhysical                      output.o
SeVpn4IPsecInputFromVirtual                       output.o
SeVpn4IPsecMainProc                               output.o
SeVpn4IPsecSendPing                               output.o
SeVpn4Init                                        output.o
SeVpn4InitIPsec                                   output.o
SeVpn4InitSecConfig                               output.o
SeVpn4MainProc                                    output.o
SeVpn4NewDhcpOption                               output.o
SeVpn4RecvPacketPhysical                          output.o
SeVpn4RecvPacketVirtual                           output.o
SeVpn4SetTimer                                    output.o
SeVpn4Tick                                        output.o
SeVpn6ClientAddTimer                              output.o
SeVpn6ClientGetTick                               output.o
SeVpn6ClientSendEsp                               output.o
SeVpn6ClientSendUdp                               output.o
SeVpn6ClientSendVirtualIp                         output.o
SeVpn6ClientSetRecvEspCallback                    output.o
SeVpn6ClientSetRecvUdpCallback                    output.o
SeVpn6ClientSetRecvVirtualIpCallback              output.o
SeVpn6ClientSetTimerCallback                      output.o
SeVpn6DoInterval                                  output.o
SeVpn6Free                                        output.o
SeVpn6FreeIPsec                                   output.o
SeVpn6IPsecInputFromPhysical                      output.o
SeVpn6IPsecInputFromVirtual                       output.o
SeVpn6IPsecMainProc                               output.o
SeVpn6IPsecSendPing                               output.o
SeVpn6Init                                        output.o
SeVpn6InitIPsec                                   output.o
SeVpn6InitSecConfig                               output.o
SeVpn6MainProc                                    output.o
SeVpn6RecvPacketPhysical                          output.o
SeVpn6RecvPacketVirtual                           output.o
SeVpn6SetTimer                                    output.o
SeVpn6Tick                                        output.o
SeVpn6UpdateGuestOsIpAddress                      output.o
SeVpnAddTimer                                     output.o
SeVpnDoInterval                                   output.o
SeVpnEthRecvCallback                              output.o
SeVpnFree                                         output.o
SeVpnFreeConfig                                   output.o
SeVpnFreeIpStack                                  output.o
SeVpnInit                                         output.o
SeVpnInitIpStack                                  output.o
SeVpnLoadConfig                                   output.o
SeVpnMainFree                                     output.o
SeVpnMainHandler                                  output.o
SeVpnMainInit                                     output.o
SeVpnMainProcRecvEtherPacket                      output.o
SeVpnMainProcess                                  output.o
SeVpnRecvEtherPacket                              output.o
SeVpnRecvIpV4PacketCallback                       output.o
SeVpnRecvIpV6PacketCallback                       output.o
SeVpnSendEtherPacket                              output.o
SeVpnStatusChanged                                output.o
SeVpnTick                                         output.o
SeVpnTimerCallback                                output.o
SeWarning                                         output.o
SeWriteBuf                                        output.o
SeWriteBufBuf                                     output.o
SeWriteBufInt                                     output.o
SeWriteBufInt64                                   output.o
SeWriteBufLine                                    output.o
SeWriteBufStr                                     output.o
SeWriteFifo                                       output.o
SeX509ToCert                                      output.o
SeZero                                            output.o
SeZeroMalloc                                      output.o
SelectFileDF                                      output.o
SelectFileEF                                      output.o
SetATR                                            output.o
SetElem                                           output.o
SetLength                                         output.o
StIsdigit                                         output.o
StIsspace                                         output.o
T0XfrBlockCHAR                                    output.o
T0XfrBlockTPDU                                    output.o
T1NegociateIFSD                                   output.o
T1XfrBlockExtendedAPDU                            output.o
T1XfrBlockTPDU                                    output.o
TransHex2Tex                                      output.o
TransTex2Hex                                      output.o
TransmitCommand                                   output.o
TransmitPPS                                       output.o
UI_OpenSSL                                        output.o
UI_add_error_string                               output.o
UI_add_info_string                                output.o
UI_add_input_boolean                              output.o
UI_add_input_string                               output.o
UI_add_user_data                                  output.o
UI_add_verify_string                              output.o
UI_construct_prompt                               output.o
UI_create_method                                  output.o
UI_ctrl                                           output.o
UI_destroy_method                                 output.o
UI_dup_error_string                               output.o
UI_dup_info_string                                output.o
UI_dup_input_boolean                              output.o
UI_dup_input_string                               output.o
UI_dup_verify_string                              output.o
UI_free                                           output.o
UI_get0_action_string                             output.o
UI_get0_output_string                             output.o
UI_get0_result                                    output.o
UI_get0_result_string                             output.o
UI_get0_test_string                               output.o
UI_get0_user_data                                 output.o
UI_get_default_method                             output.o
UI_get_ex_data                                    output.o
UI_get_ex_new_index                               output.o
UI_get_input_flags                                output.o
UI_get_method                                     output.o
UI_get_result_maxsize                             output.o
UI_get_result_minsize                             output.o
UI_get_string_type                                output.o
UI_method_get_closer                              output.o
UI_method_get_flusher                             output.o
UI_method_get_opener                              output.o
UI_method_get_prompt_constructor                  output.o
UI_method_get_reader                              output.o
UI_method_get_writer                              output.o
UI_method_set_closer                              output.o
UI_method_set_flusher                             output.o
UI_method_set_opener                              output.o
UI_method_set_prompt_constructor                  output.o
UI_method_set_reader                              output.o
UI_method_set_writer                              output.o
UI_new                                            output.o
UI_new_method                                     output.o
UI_process                                        output.o
UI_set_default_method                             output.o
UI_set_ex_data                                    output.o
UI_set_method                                     output.o
UI_set_result                                     output.o
USERNOTICE_free                                   output.o
USERNOTICE_it                                     output.o
USERNOTICE_new                                    output.o
UTF8_getc                                         output.o
UTF8_putc                                         output.o
UpdateBinary                                      output.o
VPN_IPsec_Client_Start                            output.o
VPN_IPsec_Client_Stop                             output.o
VPN_IPsec_Free                                    output.o
VPN_IPsec_Init                                    output.o
Verify                                            output.o
WHIRLPOOL                                         output.o
WHIRLPOOL_BitUpdate                               output.o
WHIRLPOOL_Final                                   output.o
WHIRLPOOL_Init                                    output.o
WHIRLPOOL_Update                                  output.o
WriteUSB                                          output.o
X509V3_EXT_CRL_add_conf                           output.o
X509V3_EXT_CRL_add_nconf                          output.o
X509V3_EXT_REQ_add_conf                           output.o
X509V3_EXT_REQ_add_nconf                          output.o
X509V3_EXT_add                                    output.o
X509V3_EXT_add_alias                              output.o
X509V3_EXT_add_conf                               output.o
X509V3_EXT_add_list                               output.o
X509V3_EXT_add_nconf                              output.o
X509V3_EXT_add_nconf_sk                           output.o
X509V3_EXT_cleanup                                output.o
X509V3_EXT_conf                                   output.o
X509V3_EXT_conf_nid                               output.o
X509V3_EXT_d2i                                    output.o
X509V3_EXT_get                                    output.o
X509V3_EXT_get_nid                                output.o
X509V3_EXT_i2d                                    output.o
X509V3_EXT_nconf                                  output.o
X509V3_EXT_nconf_nid                              output.o
X509V3_EXT_print                                  output.o
X509V3_EXT_val_prn                                output.o
X509V3_NAME_from_section                          output.o
X509V3_add1_i2d                                   output.o
X509V3_add_standard_extensions                    output.o
X509V3_add_value                                  output.o
X509V3_add_value_bool                             output.o
X509V3_add_value_bool_nf                          output.o
X509V3_add_value_int                              output.o
X509V3_add_value_uchar                            output.o
X509V3_conf_free                                  output.o
X509V3_extensions_print                           output.o
X509V3_get_d2i                                    output.o
X509V3_get_section                                output.o
X509V3_get_string                                 output.o
X509V3_get_value_bool                             output.o
X509V3_get_value_int                              output.o
X509V3_parse_list                                 output.o
X509V3_section_free                               output.o
X509V3_set_conf_lhash                             output.o
X509V3_set_ctx                                    output.o
X509V3_set_nconf                                  output.o
X509V3_string_free                                output.o
X509_ALGORS_it                                    output.o
X509_ALGOR_dup                                    output.o
X509_ALGOR_free                                   output.o
X509_ALGOR_get0                                   output.o
X509_ALGOR_it                                     output.o
X509_ALGOR_new                                    output.o
X509_ALGOR_set0                                   output.o
X509_ATTRIBUTE_SET_it                             output.o
X509_ATTRIBUTE_count                              output.o
X509_ATTRIBUTE_create                             output.o
X509_ATTRIBUTE_create_by_NID                      output.o
X509_ATTRIBUTE_create_by_OBJ                      output.o
X509_ATTRIBUTE_create_by_txt                      output.o
X509_ATTRIBUTE_dup                                output.o
X509_ATTRIBUTE_free                               output.o
X509_ATTRIBUTE_get0_data                          output.o
X509_ATTRIBUTE_get0_object                        output.o
X509_ATTRIBUTE_get0_type                          output.o
X509_ATTRIBUTE_it                                 output.o
X509_ATTRIBUTE_new                                output.o
X509_ATTRIBUTE_set1_data                          output.o
X509_ATTRIBUTE_set1_object                        output.o
X509_CERT_AUX_free                                output.o
X509_CERT_AUX_it                                  output.o
X509_CERT_AUX_new                                 output.o
X509_CERT_AUX_print                               output.o
X509_CERT_PAIR_free                               output.o
X509_CERT_PAIR_it                                 output.o
X509_CERT_PAIR_new                                output.o
X509_CINF_free                                    output.o
X509_CINF_it                                      output.o
X509_CINF_new                                     output.o
X509_CRL_INFO_free                                output.o
X509_CRL_INFO_it                                  output.o
X509_CRL_INFO_new                                 output.o
X509_CRL_METHOD_free                              output.o
X509_CRL_METHOD_new                               output.o
X509_CRL_add0_revoked                             output.o
X509_CRL_add1_ext_i2d                             output.o
X509_CRL_add_ext                                  output.o
X509_CRL_cmp                                      output.o
X509_CRL_delete_ext                               output.o
X509_CRL_digest                                   output.o
X509_CRL_dup                                      output.o
X509_CRL_free                                     output.o
X509_CRL_get0_by_cert                             output.o
X509_CRL_get0_by_serial                           output.o
X509_CRL_get_ext                                  output.o
X509_CRL_get_ext_by_NID                           output.o
X509_CRL_get_ext_by_OBJ                           output.o
X509_CRL_get_ext_by_critical                      output.o
X509_CRL_get_ext_count                            output.o
X509_CRL_get_ext_d2i                              output.o
X509_CRL_get_meth_data                            output.o
X509_CRL_it                                       output.o
X509_CRL_match                                    output.o
X509_CRL_new                                      output.o
X509_CRL_set_default_method                       output.o
X509_CRL_set_meth_data                            output.o
X509_CRL_sign                                     output.o
X509_CRL_verify                                   output.o
X509_EXTENSIONS_it                                output.o
X509_EXTENSION_create_by_NID                      output.o
X509_EXTENSION_create_by_OBJ                      output.o
X509_EXTENSION_dup                                output.o
X509_EXTENSION_free                               output.o
X509_EXTENSION_get_critical                       output.o
X509_EXTENSION_get_data                           output.o
X509_EXTENSION_get_object                         output.o
X509_EXTENSION_it                                 output.o
X509_EXTENSION_new                                output.o
X509_EXTENSION_set_critical                       output.o
X509_EXTENSION_set_data                           output.o
X509_EXTENSION_set_object                         output.o
X509_LOOKUP_by_alias                              output.o
X509_LOOKUP_by_fingerprint                        output.o
X509_LOOKUP_by_issuer_serial                      output.o
X509_LOOKUP_by_subject                            output.o
X509_LOOKUP_ctrl                                  output.o
X509_LOOKUP_free                                  output.o
X509_LOOKUP_init                                  output.o
X509_LOOKUP_new                                   output.o
X509_LOOKUP_shutdown                              output.o
X509_NAME_ENTRIES_it                              output.o
X509_NAME_ENTRY_create_by_NID                     output.o
X509_NAME_ENTRY_create_by_OBJ                     output.o
X509_NAME_ENTRY_create_by_txt                     output.o
X509_NAME_ENTRY_dup                               output.o
X509_NAME_ENTRY_free                              output.o
X509_NAME_ENTRY_get_data                          output.o
X509_NAME_ENTRY_get_object                        output.o
X509_NAME_ENTRY_it                                output.o
X509_NAME_ENTRY_new                               output.o
X509_NAME_ENTRY_set_data                          output.o
X509_NAME_ENTRY_set_object                        output.o
X509_NAME_INTERNAL_it                             output.o
X509_NAME_add_entry                               output.o
X509_NAME_add_entry_by_NID                        output.o
X509_NAME_add_entry_by_OBJ                        output.o
X509_NAME_add_entry_by_txt                        output.o
X509_NAME_cmp                                     output.o
X509_NAME_delete_entry                            output.o
X509_NAME_digest                                  output.o
X509_NAME_dup                                     output.o
X509_NAME_entry_count                             output.o
X509_NAME_free                                    output.o
X509_NAME_get_entry                               output.o
X509_NAME_get_index_by_NID                        output.o
X509_NAME_get_index_by_OBJ                        output.o
X509_NAME_get_text_by_NID                         output.o
X509_NAME_get_text_by_OBJ                         output.o
X509_NAME_hash                                    output.o
X509_NAME_hash_old                                output.o
X509_NAME_it                                      output.o
X509_NAME_new                                     output.o
X509_NAME_oneline                                 output.o
X509_NAME_print                                   output.o
X509_NAME_print_ex                                output.o
X509_NAME_set                                     output.o
X509_OBJECT_free_contents                         output.o
X509_OBJECT_idx_by_subject                        output.o
X509_OBJECT_retrieve_by_subject                   output.o
X509_OBJECT_retrieve_match                        output.o
X509_OBJECT_up_ref_count                          output.o
X509_POLICY_NODE_print                            output.o
X509_PUBKEY_free                                  output.o
X509_PUBKEY_get                                   output.o
X509_PUBKEY_get0_param                            output.o
X509_PUBKEY_it                                    output.o
X509_PUBKEY_new                                   output.o
X509_PUBKEY_set                                   output.o
X509_PUBKEY_set0_param                            output.o
X509_PURPOSE_add                                  output.o
X509_PURPOSE_cleanup                              output.o
X509_PURPOSE_get0                                 output.o
X509_PURPOSE_get0_name                            output.o
X509_PURPOSE_get0_sname                           output.o
X509_PURPOSE_get_by_id                            output.o
X509_PURPOSE_get_by_sname                         output.o
X509_PURPOSE_get_count                            output.o
X509_PURPOSE_get_id                               output.o
X509_PURPOSE_get_trust                            output.o
X509_PURPOSE_set                                  output.o
X509_REQ_INFO_free                                output.o
X509_REQ_INFO_it                                  output.o
X509_REQ_INFO_new                                 output.o
X509_REQ_add1_attr                                output.o
X509_REQ_add1_attr_by_NID                         output.o
X509_REQ_add1_attr_by_OBJ                         output.o
X509_REQ_add1_attr_by_txt                         output.o
X509_REQ_add_extensions                           output.o
X509_REQ_add_extensions_nid                       output.o
X509_REQ_check_private_key                        output.o
X509_REQ_delete_attr                              output.o
X509_REQ_digest                                   output.o
X509_REQ_dup                                      output.o
X509_REQ_extension_nid                            output.o
X509_REQ_free                                     output.o
X509_REQ_get1_email                               output.o
X509_REQ_get_attr                                 output.o
X509_REQ_get_attr_by_NID                          output.o
X509_REQ_get_attr_by_OBJ                          output.o
X509_REQ_get_attr_count                           output.o
X509_REQ_get_extension_nids                       output.o
X509_REQ_get_extensions                           output.o
X509_REQ_get_pubkey                               output.o
X509_REQ_it                                       output.o
X509_REQ_new                                      output.o
X509_REQ_set_extension_nids                       output.o
X509_REQ_set_pubkey                               output.o
X509_REQ_set_subject_name                         output.o
X509_REQ_set_version                              output.o
X509_REQ_sign                                     output.o
X509_REQ_verify                                   output.o
X509_REVOKED_add1_ext_i2d                         output.o
X509_REVOKED_add_ext                              output.o
X509_REVOKED_delete_ext                           output.o
X509_REVOKED_free                                 output.o
X509_REVOKED_get_ext                              output.o
X509_REVOKED_get_ext_by_NID                       output.o
X509_REVOKED_get_ext_by_OBJ                       output.o
X509_REVOKED_get_ext_by_critical                  output.o
X509_REVOKED_get_ext_count                        output.o
X509_REVOKED_get_ext_d2i                          output.o
X509_REVOKED_it                                   output.o
X509_REVOKED_new                                  output.o
X509_SIG_free                                     output.o
X509_SIG_it                                       output.o
X509_SIG_new                                      output.o
X509_STORE_CTX_cleanup                            output.o
X509_STORE_CTX_free                               output.o
X509_STORE_CTX_get0_current_crl                   output.o
X509_STORE_CTX_get0_current_issuer                output.o
X509_STORE_CTX_get0_param                         output.o
X509_STORE_CTX_get0_parent_ctx                    output.o
X509_STORE_CTX_get0_policy_tree                   output.o
X509_STORE_CTX_get1_chain                         output.o
X509_STORE_CTX_get1_issuer                        output.o
X509_STORE_CTX_get_chain                          output.o
X509_STORE_CTX_get_current_cert                   output.o
X509_STORE_CTX_get_error                          output.o
X509_STORE_CTX_get_error_depth                    output.o
X509_STORE_CTX_get_ex_data                        output.o
X509_STORE_CTX_get_ex_new_index                   output.o
X509_STORE_CTX_get_explicit_policy                output.o
X509_STORE_CTX_init                               output.o
X509_STORE_CTX_new                                output.o
X509_STORE_CTX_purpose_inherit                    output.o
X509_STORE_CTX_set0_crls                          output.o
X509_STORE_CTX_set0_param                         output.o
X509_STORE_CTX_set_cert                           output.o
X509_STORE_CTX_set_chain                          output.o
X509_STORE_CTX_set_default                        output.o
X509_STORE_CTX_set_depth                          output.o
X509_STORE_CTX_set_error                          output.o
X509_STORE_CTX_set_ex_data                        output.o
X509_STORE_CTX_set_flags                          output.o
X509_STORE_CTX_set_purpose                        output.o
X509_STORE_CTX_set_time                           output.o
X509_STORE_CTX_set_trust                          output.o
X509_STORE_CTX_set_verify_cb                      output.o
X509_STORE_CTX_trusted_stack                      output.o
X509_STORE_add_cert                               output.o
X509_STORE_add_crl                                output.o
X509_STORE_add_lookup                             output.o
X509_STORE_free                                   output.o
X509_STORE_get1_certs                             output.o
X509_STORE_get1_crls                              output.o
X509_STORE_get_by_subject                         output.o
X509_STORE_new                                    output.o
X509_STORE_set1_param                             output.o
X509_STORE_set_depth                              output.o
X509_STORE_set_flags                              output.o
X509_STORE_set_purpose                            output.o
X509_STORE_set_trust                              output.o
X509_STORE_set_verify_cb                          output.o
X509_TRUST_add                                    output.o
X509_TRUST_cleanup                                output.o
X509_TRUST_get0                                   output.o
X509_TRUST_get0_name                              output.o
X509_TRUST_get_by_id                              output.o
X509_TRUST_get_count                              output.o
X509_TRUST_get_flags                              output.o
X509_TRUST_get_trust                              output.o
X509_TRUST_set                                    output.o
X509_TRUST_set_default                            output.o
X509_VAL_free                                     output.o
X509_VAL_it                                       output.o
X509_VAL_new                                      output.o
X509_VERIFY_PARAM_add0_policy                     output.o
X509_VERIFY_PARAM_add0_table                      output.o
X509_VERIFY_PARAM_clear_flags                     output.o
X509_VERIFY_PARAM_free                            output.o
X509_VERIFY_PARAM_get_depth                       output.o
X509_VERIFY_PARAM_get_flags                       output.o
X509_VERIFY_PARAM_inherit                         output.o
X509_VERIFY_PARAM_lookup                          output.o
X509_VERIFY_PARAM_new                             output.o
X509_VERIFY_PARAM_set1                            output.o
X509_VERIFY_PARAM_set1_name                       output.o
X509_VERIFY_PARAM_set1_policies                   output.o
X509_VERIFY_PARAM_set_depth                       output.o
X509_VERIFY_PARAM_set_flags                       output.o
X509_VERIFY_PARAM_set_purpose                     output.o
X509_VERIFY_PARAM_set_time                        output.o
X509_VERIFY_PARAM_set_trust                       output.o
X509_VERIFY_PARAM_table_cleanup                   output.o
X509_add1_ext_i2d                                 output.o
X509_add1_reject_object                           output.o
X509_add1_trust_object                            output.o
X509_add_ext                                      output.o
X509_alias_get0                                   output.o
X509_alias_set1                                   output.o
X509_check_akid                                   output.o
X509_check_ca                                     output.o
X509_check_issued                                 output.o
X509_check_private_key                            output.o
X509_check_purpose                                output.o
X509_check_trust                                  output.o
X509_cmp                                          output.o
X509_cmp_current_time                             output.o
X509_cmp_time                                     output.o
X509_delete_ext                                   output.o
X509_digest                                       output.o
X509_dup                                          output.o
X509_email_free                                   output.o
X509_find_by_issuer_and_serial                    output.o
X509_find_by_subject                              output.o
X509_free                                         output.o
X509_get0_pubkey_bitstr                           output.o
X509_get1_email                                   output.o
X509_get1_ocsp                                    output.o
X509_get_default_cert_area                        output.o
X509_get_default_cert_dir                         output.o
X509_get_default_cert_dir_env                     output.o
X509_get_default_cert_file                        output.o
X509_get_default_cert_file_env                    output.o
X509_get_default_private_dir                      output.o
X509_get_ex_data                                  output.o
X509_get_ex_new_index                             output.o
X509_get_ext                                      output.o
X509_get_ext_by_NID                               output.o
X509_get_ext_by_OBJ                               output.o
X509_get_ext_by_critical                          output.o
X509_get_ext_count                                output.o
X509_get_ext_d2i                                  output.o
X509_get_issuer_name                              output.o
X509_get_pubkey                                   output.o
X509_get_pubkey_parameters                        output.o
X509_get_serialNumber                             output.o
X509_get_subject_name                             output.o
X509_gmtime_adj                                   output.o
X509_issuer_and_serial_cmp                        output.o
X509_issuer_and_serial_hash                       output.o
X509_issuer_name_cmp                              output.o
X509_issuer_name_hash                             output.o
X509_issuer_name_hash_old                         output.o
X509_it                                           output.o
X509_keyid_get0                                   output.o
X509_keyid_set1                                   output.o
X509_new                                          output.o
X509_ocspid_print                                 output.o
X509_policy_check                                 output.o
X509_policy_level_get0_node                       output.o
X509_policy_level_node_count                      output.o
X509_policy_node_get0_parent                      output.o
X509_policy_node_get0_policy                      output.o
X509_policy_node_get0_qualifiers                  output.o
X509_policy_tree_free                             output.o
X509_policy_tree_get0_level                       output.o
X509_policy_tree_get0_policies                    output.o
X509_policy_tree_get0_user_policies               output.o
X509_policy_tree_level_count                      output.o
X509_print                                        output.o
X509_print_ex                                     output.o
X509_pubkey_digest                                output.o
X509_reject_clear                                 output.o
X509_set_ex_data                                  output.o
X509_sign                                         output.o
X509_signature_print                              output.o
X509_subject_name_cmp                             output.o
X509_subject_name_hash                            output.o
X509_subject_name_hash_old                        output.o
X509_supported_extension                          output.o
X509_time_adj                                     output.o
X509_time_adj_ex                                  output.o
X509_to_X509_REQ                                  output.o
X509_trust_clear                                  output.o
X509_verify                                       output.o
X509_verify_cert                                  output.o
X509_version                                      output.o
X509at_add1_attr                                  output.o
X509at_add1_attr_by_NID                           output.o
X509at_add1_attr_by_OBJ                           output.o
X509at_add1_attr_by_txt                           output.o
X509at_delete_attr                                output.o
X509at_get0_data_by_OBJ                           output.o
X509at_get_attr                                   output.o
X509at_get_attr_by_NID                            output.o
X509at_get_attr_by_OBJ                            output.o
X509at_get_attr_count                             output.o
X509v3_add_ext                                    output.o
X509v3_delete_ext                                 output.o
X509v3_get_ext                                    output.o
X509v3_get_ext_by_NID                             output.o
X509v3_get_ext_by_OBJ                             output.o
X509v3_get_ext_by_critical                        output.o
X509v3_get_ext_count                              output.o
X9_62_CHARACTERISTIC_TWO_free                     output.o
X9_62_CHARACTERISTIC_TWO_it                       output.o
X9_62_CHARACTERISTIC_TWO_new                      output.o
X9_62_CURVE_it                                    output.o
X9_62_FIELDID_it                                  output.o
X9_62_PENTANOMIAL_free                            output.o
X9_62_PENTANOMIAL_it                              output.o
X9_62_PENTANOMIAL_new                             output.o
ZLONG_it                                          output.o
_CONF_add_string                                  output.o
_CONF_free_data                                   output.o
_CONF_get_section                                 output.o
_CONF_get_section_values                          output.o
_CONF_get_string                                  output.o
_CONF_new_data                                    output.o
_CONF_new_section                                 output.o
__initfunc_acpi_init_global                       output.o
__initfunc_acpi_init_paral                        output.o
__initfunc_ata_init                               output.o
__initfunc_beep_init_msg                          output.o
__initfunc_cache_init_pass                        output.o
__initfunc_cache_init_pcpu                        output.o
__initfunc_cache_init_vcpu                        output.o
__initfunc_callrealmode_init_global               output.o
__initfunc_callrealmode_panic                     output.o
__initfunc_copy_minios                            output.o
__initfunc_core_init                              output.o
__initfunc_cpu_mmu_spt_init_global                output.o
__initfunc_cpu_mmu_spt_init_pcpu                  output.o
__initfunc_cpuid_init                             output.o
__initfunc_cpuid_pass_init                        output.o
__initfunc_create_pass_vm                         output.o
__initfunc_debug_on_shift_key                     output.o
__initfunc_ehci_init                              output.o
__initfunc_end                                    output.o
__initfunc_exint_pass_init                        output.o
__initfunc_get_shiftflags                         output.o
__initfunc_gmm_pass_init                          output.o
__initfunc_idman_init                             output.o
__initfunc_idman_init_global                      output.o
__initfunc_idman_kernel_init                      output.o
__initfunc_ieee1394_init                          output.o
__initfunc_ieee1394_init_boot                     output.o
__initfunc_install_int0x15_hook                   output.o
__initfunc_int_init_global                        output.o
__initfunc_int_wakeup                             output.o
__initfunc_io_io_init                             output.o
__initfunc_io_iopass_init                         output.o
__initfunc_iommu_setup                            output.o
__initfunc_keyboard_init_msg                      output.o
__initfunc_localapic_init                         output.o
__initfunc_localapic_init2                        output.o
__initfunc_mm_init_global                         output.o
__initfunc_mmio_debug                             output.o
__initfunc_mmio_init                              output.o
__initfunc_msg_init_global                        output.o
__initfunc_msr_init                               output.o
__initfunc_msr_pass_init                          output.o
__initfunc_nmi_pass_init                          output.o
__initfunc_nmi_pass_init_pcpu                     output.o
__initfunc_panic_init_global                      output.o
__initfunc_panic_init_global3                     output.o
__initfunc_panic_init_msg                         output.o
__initfunc_panic_init_pcpu                        output.o
__initfunc_pci_init                               output.o
__initfunc_print_boot_msg                         output.o
__initfunc_printf_init_global                     output.o
__initfunc_pro100_init                            output.o
__initfunc_process_init_ap                        output.o
__initfunc_process_init_global                    output.o
__initfunc_process_wakeup                         output.o
__initfunc_random_init_config0                    output.o
__initfunc_random_init_global                     output.o
__initfunc_reboot_init_msg                        output.o
__initfunc_resume_pro1000                         output.o
__initfunc_segment_init_global                    output.o
__initfunc_serial_init_msg                        output.o
__initfunc_setiohooks                             output.o
__initfunc_sleep_init_global                      output.o
__initfunc_sleep_init_msg                         output.o
__initfunc_start                                  output.o
__initfunc_storage_io_initfunc                    output.o
__initfunc_storage_kernel_init                    output.o
__initfunc_suspend_pro1000                        output.o
__initfunc_svm_panic                              output.o
__initfunc_sx_init_pass_init                      output.o
__initfunc_thread_init_global                     output.o
__initfunc_thread_init_pcpu                       output.o
__initfunc_time_init_dbsp                         output.o
__initfunc_time_init_global                       output.o
__initfunc_time_init_global_status                output.o
__initfunc_time_init_msg                          output.o
__initfunc_time_init_pcpu                         output.o
__initfunc_time_wakeup                            output.o
__initfunc_timer_init_global                      output.o
__initfunc_tty_init_global                        output.o
__initfunc_tty_init_global2                       output.o
__initfunc_tty_init_msg                           output.o
__initfunc_uhci_init                              output.o
__initfunc_unmap_user_area                        output.o
__initfunc_update_mtrr_and_pat                    output.o
__initfunc_vcpu_init_global                       output.o
__initfunc_vga_init                               output.o
__initfunc_virtualization_init_pcpu               output.o
__initfunc_vmmcall_boot_init                      output.o
__initfunc_vmmcall_dbgsh_init                     output.o
__initfunc_vmmcall_dbgsh_init_global              output.o
__initfunc_vmmcall_dbgsh_init_pcpu                output.o
__initfunc_vmmcall_dump_memory_init               output.o
__initfunc_vmmcall_iccard_init                    output.o
__initfunc_vmmcall_init                           output.o
__initfunc_vmmcall_listmodule_init                output.o
__initfunc_vmmcall_listprocess_init               output.o
__initfunc_vmmcall_memory_event1_init             output.o
__initfunc_vmmcall_memory_event_init              output.o
__initfunc_vmmcall_printlog_init                  output.o
__initfunc_vmmcall_reg_event_cr0_read_init        output.o
__initfunc_vmmcall_reg_event_cr0_write_init       output.o
__initfunc_vmmcall_reg_event_read_init            output.o
__initfunc_vmmcall_reg_event_write_init           output.o
__initfunc_vmmcall_set_pte_init                   output.o
__initfunc_vmmcall_status_init                    output.o
__initfunc_vmmcall_status_init_global             output.o
__initfunc_vpn_kernel_init                        output.o
__initfunc_vpn_pro1000_init                       output.o
__initfunc_vramwrite_init_bsp                     output.o
__initfunc_vramwrite_init_msg                     output.o
__initfunc_vt_panic                               output.o
__initfunc_vt_register_status_callback            output.o
__initfunc_wait_for_create_pass_vm                output.o
__initfunc_xsetbv_init                            output.o
__initfunc_xsetbv_pass_init                       output.o
__process_builtin                                 output.o
__process_builtin_end                             output.o
_dprintf                                          output.o
_dprintft                                         output.o
_reg_event_cr0_read                               output.o
_reg_event_cr0_write                              output.o
_shadow_DES_check_key                             output.o
a2d_ASN1_OBJECT                                   output.o
a2i_ASN1_INTEGER                                  output.o
a2i_ASN1_STRING                                   output.o
a2i_GENERAL_NAME                                  output.o
a2i_IPADDRESS                                     output.o
a2i_IPADDRESS_NC                                  output.o
a2i_ipadd                                         output.o
acpi_dsdt_parse                                   output.o
acpi_dsdt_system_state                            output.o
acpi_iohook                                       output.o
acpi_poweroff                                     output.o
acpi_read_mcfg                                    output.o
acpi_reset                                        output.o
acpi_smi_hook                                     output.o
acpi_ssdt_parse                                   output.o
add_remap                                         output.o
aes_xts_init                                      output.o
ahci_config_read                                  output.o
ahci_config_write                                 output.o
ahci_new                                          output.o
alloc                                             output.o
alloc2                                            output.o
alloc_handler_descriptor                          output.o
alloc_page                                        output.o
alloc_pages                                       output.o
alloc_realmodemem                                 output.o
ap_start_addr                                     output.o
apic_available                                    output.o
apinit_lock                                       output.o
apinit_procs                                      output.o
apinitproc0                                       output.o
app_pkey_methods                                  output.o
asm_vmlaunch_regs_32                              output.o
asm_vmlaunch_regs_64                              output.o
asm_vmresume_regs_32                              output.o
asm_vmresume_regs_64                              output.o
asm_vmrun_regs_32                                 output.o
asm_vmrun_regs_64                                 output.o
asn1_Finish                                       output.o
asn1_GetSequence                                  output.o
asn1_add_error                                    output.o
asn1_const_Finish                                 output.o
asn1_do_adb                                       output.o
asn1_do_lock                                      output.o
asn1_enc_free                                     output.o
asn1_enc_init                                     output.o
asn1_enc_restore                                  output.o
asn1_enc_save                                     output.o
asn1_ex_c2i                                       output.o
asn1_ex_i2c                                       output.o
asn1_get_choice_selector                          output.o
asn1_get_field_ptr                                output.o
asn1_set_choice_selector                          output.o
asn1_template_print_ctx                           output.o
assertion_failed                                  output.o
ata_ahci_mode                                     output.o
ata_bm_handle_command                             output.o
ata_bm_handle_device_specific                     output.o
ata_bm_handle_prd_table                           output.o
ata_bm_handle_status                              output.o
ata_bm_handler                                    output.o
ata_bm_handler_table                              output.o
ata_channel_lock                                  output.o
ata_channel_unlock                                output.o
ata_cmdblk_handler                                output.o
ata_cmdblk_handler_table                          output.o
ata_config_read                                   output.o
ata_config_write                                  output.o
ata_ctlblk_handler                                output.o
ata_ctlblk_handler_table                          output.o
ata_get_cmd_type                                  output.o
ata_handle_queued_status                          output.o
ata_init_io_handler                               output.o
ata_init_vendor                                   output.o
ata_set_bm_handler                                output.o
ata_set_cmdblk_handler                            output.o
ata_set_ctlblk_handler                            output.o
atapi_handle_cmd_packet                           output.o
atapi_handle_config_data                          output.o
atapi_handle_interrupt_reason                     output.o
atapi_handle_packet_data                          output.o
atapi_handle_pio_identify_packet                  output.o
atoi                                              output.o
auto_reboot                                       output.o
backtrace                                         output.o
beep_off                                          output.o
beep_on                                           output.o
beep_set_freq                                     output.o
bn_add_part_words                                 output.o
bn_add_words                                      output.o
bn_cmp_part_words                                 output.o
bn_cmp_words                                      output.o
bn_div_words                                      output.o
bn_dup_expand                                     output.o
bn_expand2                                        output.o
bn_mul_add_words                                  output.o
bn_mul_comba4                                     output.o
bn_mul_comba8                                     output.o
bn_mul_high                                       output.o
bn_mul_low_normal                                 output.o
bn_mul_low_recursive                              output.o
bn_mul_normal                                     output.o
bn_mul_part_recursive                             output.o
bn_mul_recursive                                  output.o
bn_mul_words                                      output.o
bn_sqr_comba4                                     output.o
bn_sqr_comba8                                     output.o
bn_sqr_normal                                     output.o
bn_sqr_recursive                                  output.o
bn_sqr_words                                      output.o
bn_sub_part_words                                 output.o
bn_sub_words                                      output.o
bss                                               output.o
c2i_ASN1_BIT_STRING                               output.o
c2i_ASN1_INTEGER                                  output.o
c2i_ASN1_OBJECT                                   output.o
cache_get_attr                                    output.o
cache_get_gmsr_amd                                output.o
cache_get_gmtrr                                   output.o
cache_get_gmtrr_attr                              output.o
cache_get_gmtrr_type                              output.o
cache_get_gmtrrcap                                output.o
cache_get_gpat                                    output.o
cache_set_gmsr_amd                                output.o
cache_set_gmtrr                                   output.o
cache_set_gpat                                    output.o
call_cpuid                                        output.o
call_initfunc                                     output.o
call_io                                           output.o
call_read_msr                                     output.o
call_uefi_allocate_pages                          output.o
call_uefi_free_pages                              output.o
call_uefi_get_memory_map                          output.o
call_uefi_getkey                                  output.o
call_uefi_putchar                                 output.o
call_write_msr                                    output.o
call_xsetbv                                       output.o
callfunc_and_getint                               output.o
callrealmode_bootcd_getstatus                     output.o
callrealmode_disk_readlba                         output.o
callrealmode_disk_readmbr                         output.o
callrealmode_end                                  output.o
callrealmode_endofcodeaddr                        output.o
callrealmode_getfontinfo                          output.o
callrealmode_getshiftflags                        output.o
callrealmode_getsysmemmap                         output.o
callrealmode_printmsg                             output.o
callrealmode_reboot                               output.o
callrealmode_setcursorpos                         output.o
callrealmode_setvideomode                         output.o
callrealmode_start                                output.o
callrealmode_start2                               output.o
callrealmode_startkernel32                        output.o
callrealmode_tcgbios                              output.o
callrealmode_usevcpu                              output.o
calluefi                                          output.o
calluefi_uefi_cr3                                 output.o
calluefi_uefi_gdtr                                output.o
calluefi_uefi_idtr                                output.o
calluefi_uefi_ldtr                                output.o
calluefi_uefi_sregs                               output.o
cancel_sleep                                      output.o
check_defer                                       output.o
chelp_abort                                       output.o
chelp_bsearch                                     output.o
chelp_div_64_32_32                                output.o
chelp_div_64_32_64                                output.o
chelp_free                                        output.o
chelp_inited                                      output.o
chelp_isalnum                                     output.o
chelp_isalpha                                     output.o
chelp_isdigit                                     output.o
chelp_islower                                     output.o
chelp_isspace                                     output.o
chelp_isupper                                     output.o
chelp_isxdigit                                    output.o
chelp_malloc                                      output.o
chelp_memchr                                      output.o
chelp_memcmp                                      output.o
chelp_memcpy                                      output.o
chelp_memmove                                     output.o
chelp_memset                                      output.o
chelp_mod_64_32_32                                output.o
chelp_mul_64_64_64                                output.o
chelp_print                                       output.o
chelp_printf                                      output.o
chelp_qsort                                       output.o
chelp_realloc                                     output.o
chelp_snprintf                                    output.o
chelp_sprintf                                     output.o
chelp_strcat                                      output.o
chelp_strchr                                      output.o
chelp_strcmp                                      output.o
chelp_strcpy                                      output.o
chelp_stricmp                                     output.o
chelp_strlen                                      output.o
chelp_strncasecmp                                 output.o
chelp_strncmp                                     output.o
chelp_strncpy                                     output.o
chelp_strrchr                                     output.o
chelp_strtol                                      output.o
chelp_strtoul                                     output.o
chelp_strtoul_ex                                  output.o
chelp_swap                                        output.o
chelp_tolower                                     output.o
chelp_toupper                                     output.o
cleanse_ctr                                       output.o
clflush_size                                      output.o
cmpxchg_gphys_l                                   output.o
cmpxchg_gphys_q                                   output.o
cmpxchg_hphys_l                                   output.o
cmpxchg_hphys_q                                   output.o
cms_Data_create                                   output.o
cms_DigestAlgorithm_find_ctx                      output.o
cms_DigestAlgorithm_init_bio                      output.o
cms_DigestAlgorithm_set                           output.o
cms_DigestedData_create                           output.o
cms_DigestedData_do_final                         output.o
cms_DigestedData_init_bio                         output.o
cms_EncryptedContent_init                         output.o
cms_EncryptedContent_init_bio                     output.o
cms_EncryptedData_init_bio                        output.o
cms_EnvelopedData_init_bio                        output.o
cms_SignedData_final                              output.o
cms_SignedData_init_bio                           output.o
cms_SignerIdentifier_cert_cmp                     output.o
cms_SignerIdentifier_get0_signer_id               output.o
cms_content_bio                                   output.o
cms_set1_SignerIdentifier                         output.o
code                                              output.o
codeend                                           output.o
config                                            output.o
copy_bootsector                                   output.o
copy_uefi_bootcode                                output.o
core_init                                         output.o
core_io_handle_default                            output.o
core_io_modify_handler                            output.o
core_io_register_handler                          output.o
core_io_unregister_handler                        output.o
core_mm_read_guest_phys                           output.o
core_mm_write_guest_phys                          output.o
cpu_emul_cli                                      output.o
cpu_emul_cpuid                                    output.o
cpu_emul_hlt                                      output.o
cpu_emul_rdmsr                                    output.o
cpu_emul_realmode_int                             output.o
cpu_emul_sti                                      output.o
cpu_emul_wrmsr                                    output.o
cpu_emul_xsetbv                                   output.o
cpu_interpreter                                   output.o
cpu_mmu_get_pte                                   output.o
cpu_mmu_spt_clear_all                             output.o
cpu_mmu_spt_extern_mapsearch                      output.o
cpu_mmu_spt_init                                  output.o
cpu_mmu_spt_invalidate                            output.o
cpu_mmu_spt_map_1mb                               output.o
cpu_mmu_spt_pagefault                             output.o
cpu_mmu_spt_tlbflush                              output.o
cpu_mmu_spt_updatecr3                             output.o
cpu_seg_read_b                                    output.o
cpu_seg_read_l                                    output.o
cpu_seg_read_q                                    output.o
cpu_seg_read_w                                    output.o
cpu_seg_write_b                                   output.o
cpu_seg_write_l                                   output.o
cpu_seg_write_q                                   output.o
cpu_seg_write_w                                   output.o
cpu_stack_get                                     output.o
cpu_stack_pop                                     output.o
cpu_stack_push                                    output.o
cpu_stack_set                                     output.o
cpuinit_end                                       output.o
cpuinit_start                                     output.o
create_dom                                        output.o
crypt_sys_rsa_sign                                output.o
crypto_find                                       output.o
crypto_init                                       output.o
crypto_none_init                                  output.o
crypto_register                                   output.o
curthread                                         output.o
d2i_ACCESS_DESCRIPTION                            output.o
d2i_ASN1_BIT_STRING                               output.o
d2i_ASN1_BMPSTRING                                output.o
d2i_ASN1_BOOLEAN                                  output.o
d2i_ASN1_ENUMERATED                               output.o
d2i_ASN1_GENERALIZEDTIME                          output.o
d2i_ASN1_GENERALSTRING                            output.o
d2i_ASN1_IA5STRING                                output.o
d2i_ASN1_INTEGER                                  output.o
d2i_ASN1_NULL                                     output.o
d2i_ASN1_OBJECT                                   output.o
d2i_ASN1_OCTET_STRING                             output.o
d2i_ASN1_PRINTABLE                                output.o
d2i_ASN1_PRINTABLESTRING                          output.o
d2i_ASN1_SEQUENCE_ANY                             output.o
d2i_ASN1_SET                                      output.o
d2i_ASN1_SET_ANY                                  output.o
d2i_ASN1_T61STRING                                output.o
d2i_ASN1_TIME                                     output.o
d2i_ASN1_TYPE                                     output.o
d2i_ASN1_UINTEGER                                 output.o
d2i_ASN1_UNIVERSALSTRING                          output.o
d2i_ASN1_UTCTIME                                  output.o
d2i_ASN1_UTF8STRING                               output.o
d2i_ASN1_VISIBLESTRING                            output.o
d2i_ASN1_bytes                                    output.o
d2i_ASN1_type_bytes                               output.o
d2i_AUTHORITY_INFO_ACCESS                         output.o
d2i_AUTHORITY_KEYID                               output.o
d2i_AutoPrivateKey                                output.o
d2i_BASIC_CONSTRAINTS                             output.o
d2i_CERTIFICATEPOLICIES                           output.o
d2i_CMS_ContentInfo                               output.o
d2i_CMS_bio                                       output.o
d2i_CRL_DIST_POINTS                               output.o
d2i_DHparams                                      output.o
d2i_DIRECTORYSTRING                               output.o
d2i_DISPLAYTEXT                                   output.o
d2i_DIST_POINT                                    output.o
d2i_DIST_POINT_NAME                               output.o
d2i_DSAPrivateKey                                 output.o
d2i_DSAPrivateKey_bio                             output.o
d2i_DSAPublicKey                                  output.o
d2i_DSA_PUBKEY                                    output.o
d2i_DSA_PUBKEY_bio                                output.o
d2i_DSA_SIG                                       output.o
d2i_DSAparams                                     output.o
d2i_ECDSA_SIG                                     output.o
d2i_ECPKPARAMETERS                                output.o
d2i_ECPKParameters                                output.o
d2i_ECParameters                                  output.o
d2i_ECPrivateKey                                  output.o
d2i_ECPrivateKey_bio                              output.o
d2i_EC_PRIVATEKEY                                 output.o
d2i_EC_PUBKEY                                     output.o
d2i_EC_PUBKEY_bio                                 output.o
d2i_EDIPARTYNAME                                  output.o
d2i_EXTENDED_KEY_USAGE                            output.o
d2i_GENERAL_NAME                                  output.o
d2i_GENERAL_NAMES                                 output.o
d2i_ISSUING_DIST_POINT                            output.o
d2i_NETSCAPE_CERT_SEQUENCE                        output.o
d2i_NETSCAPE_SPKAC                                output.o
d2i_NETSCAPE_SPKI                                 output.o
d2i_NOTICEREF                                     output.o
d2i_OCSP_BASICRESP                                output.o
d2i_OCSP_CERTID                                   output.o
d2i_OCSP_CERTSTATUS                               output.o
d2i_OCSP_CRLID                                    output.o
d2i_OCSP_ONEREQ                                   output.o
d2i_OCSP_REQINFO                                  output.o
d2i_OCSP_REQUEST                                  output.o
d2i_OCSP_RESPBYTES                                output.o
d2i_OCSP_RESPDATA                                 output.o
d2i_OCSP_RESPID                                   output.o
d2i_OCSP_RESPONSE                                 output.o
d2i_OCSP_REVOKEDINFO                              output.o
d2i_OCSP_SERVICELOC                               output.o
d2i_OCSP_SIGNATURE                                output.o
d2i_OCSP_SINGLERESP                               output.o
d2i_OTHERNAME                                     output.o
d2i_PBE2PARAM                                     output.o
d2i_PBEPARAM                                      output.o
d2i_PBKDF2PARAM                                   output.o
d2i_PKCS12                                        output.o
d2i_PKCS12_BAGS                                   output.o
d2i_PKCS12_MAC_DATA                               output.o
d2i_PKCS12_SAFEBAG                                output.o
d2i_PKCS12_bio                                    output.o
d2i_PKCS7                                         output.o
d2i_PKCS7_DIGEST                                  output.o
d2i_PKCS7_ENCRYPT                                 output.o
d2i_PKCS7_ENC_CONTENT                             output.o
d2i_PKCS7_ENVELOPE                                output.o
d2i_PKCS7_ISSUER_AND_SERIAL                       output.o
d2i_PKCS7_RECIP_INFO                              output.o
d2i_PKCS7_SIGNED                                  output.o
d2i_PKCS7_SIGNER_INFO                             output.o
d2i_PKCS7_SIGN_ENVELOPE                           output.o
d2i_PKCS7_bio                                     output.o
d2i_PKCS8PrivateKey_bio                           output.o
d2i_PKCS8_PRIV_KEY_INFO                           output.o
d2i_PKCS8_PRIV_KEY_INFO_bio                       output.o
d2i_PKCS8_bio                                     output.o
d2i_PKEY_USAGE_PERIOD                             output.o
d2i_POLICYINFO                                    output.o
d2i_POLICYQUALINFO                                output.o
d2i_PROXY_CERT_INFO_EXTENSION                     output.o
d2i_PROXY_POLICY                                  output.o
d2i_PUBKEY                                        output.o
d2i_PUBKEY_bio                                    output.o
d2i_PrivateKey                                    output.o
d2i_PrivateKey_bio                                output.o
d2i_RSAPrivateKey                                 output.o
d2i_RSAPrivateKey_bio                             output.o
d2i_RSAPublicKey                                  output.o
d2i_RSAPublicKey_bio                              output.o
d2i_RSA_PUBKEY                                    output.o
d2i_RSA_PUBKEY_bio                                output.o
d2i_SXNET                                         output.o
d2i_SXNETID                                       output.o
d2i_USERNOTICE                                    output.o
d2i_X509                                          output.o
d2i_X509_ALGOR                                    output.o
d2i_X509_ALGORS                                   output.o
d2i_X509_ATTRIBUTE                                output.o
d2i_X509_AUX                                      output.o
d2i_X509_CERT_AUX                                 output.o
d2i_X509_CERT_PAIR                                output.o
d2i_X509_CINF                                     output.o
d2i_X509_CRL                                      output.o
d2i_X509_CRL_INFO                                 output.o
d2i_X509_CRL_bio                                  output.o
d2i_X509_EXTENSION                                output.o
d2i_X509_EXTENSIONS                               output.o
d2i_X509_NAME                                     output.o
d2i_X509_NAME_ENTRY                               output.o
d2i_X509_PUBKEY                                   output.o
d2i_X509_REQ                                      output.o
d2i_X509_REQ_INFO                                 output.o
d2i_X509_REQ_bio                                  output.o
d2i_X509_REVOKED                                  output.o
d2i_X509_SIG                                      output.o
d2i_X509_VAL                                      output.o
d2i_X509_bio                                      output.o
deactivate_and_delete_urb                         output.o
debug_addstr                                      output.o
debug_gdb                                         output.o
debug_iohook                                      output.o
debug_msgregister                                 output.o
debug_msgunregister                               output.o
decryptcfg                                        output.o
default_pctx                                      output.o
dh_asn1_meth                                      output.o
dh_pkey_meth                                      output.o
disable_apic                                      output.o
do_exint_pass                                     output.o
do_externalint_enable                             output.o
do_io_nothing                                     output.o
do_iopass_default                                 output.o
do_panic_reboot                                   output.o
dom_io                                            output.o
dprintf_port                                      output.o
drhd_list_head                                    output.o
dsa_asn1_meths                                    output.o
dsa_builtin_paramgen                              output.o
dsa_pkey_meth                                     output.o
dsa_pub_internal_it                               output.o
dump_frame                                        output.o
dump_qh                                           output.o
dump_td                                           output.o
dump_td_byvirt                                    output.o
dwReaders                                         output.o
e801_fake_ax                                      output.o
e801_fake_bx                                      output.o
ec_GF2m_have_precompute_mult                      output.o
ec_GF2m_precompute_mult                           output.o
ec_GF2m_simple_add                                output.o
ec_GF2m_simple_cmp                                output.o
ec_GF2m_simple_dbl                                output.o
ec_GF2m_simple_field_div                          output.o
ec_GF2m_simple_field_mul                          output.o
ec_GF2m_simple_field_sqr                          output.o
ec_GF2m_simple_group_check_discriminant           output.o
ec_GF2m_simple_group_clear_finish                 output.o
ec_GF2m_simple_group_copy                         output.o
ec_GF2m_simple_group_finish                       output.o
ec_GF2m_simple_group_get_curve                    output.o
ec_GF2m_simple_group_get_degree                   output.o
ec_GF2m_simple_group_init                         output.o
ec_GF2m_simple_group_set_curve                    output.o
ec_GF2m_simple_invert                             output.o
ec_GF2m_simple_is_at_infinity                     output.o
ec_GF2m_simple_is_on_curve                        output.o
ec_GF2m_simple_make_affine                        output.o
ec_GF2m_simple_mul                                output.o
ec_GF2m_simple_oct2point                          output.o
ec_GF2m_simple_point2oct                          output.o
ec_GF2m_simple_point_clear_finish                 output.o
ec_GF2m_simple_point_copy                         output.o
ec_GF2m_simple_point_finish                       output.o
ec_GF2m_simple_point_get_affine_coordinates       output.o
ec_GF2m_simple_point_init                         output.o
ec_GF2m_simple_point_set_affine_coordinates       output.o
ec_GF2m_simple_point_set_to_infinity              output.o
ec_GF2m_simple_points_make_affine                 output.o
ec_GF2m_simple_set_compressed_coordinates         output.o
ec_GFp_mont_field_decode                          output.o
ec_GFp_mont_field_encode                          output.o
ec_GFp_mont_field_mul                             output.o
ec_GFp_mont_field_set_to_one                      output.o
ec_GFp_mont_field_sqr                             output.o
ec_GFp_mont_group_clear_finish                    output.o
ec_GFp_mont_group_copy                            output.o
ec_GFp_mont_group_finish                          output.o
ec_GFp_mont_group_init                            output.o
ec_GFp_mont_group_set_curve                       output.o
ec_GFp_nist_field_mul                             output.o
ec_GFp_nist_field_sqr                             output.o
ec_GFp_nist_group_copy                            output.o
ec_GFp_nist_group_set_curve                       output.o
ec_GFp_simple_add                                 output.o
ec_GFp_simple_cmp                                 output.o
ec_GFp_simple_dbl                                 output.o
ec_GFp_simple_field_mul                           output.o
ec_GFp_simple_field_sqr                           output.o
ec_GFp_simple_get_Jprojective_coordinates_GFp     output.o
ec_GFp_simple_group_check_discriminant            output.o
ec_GFp_simple_group_clear_finish                  output.o
ec_GFp_simple_group_copy                          output.o
ec_GFp_simple_group_finish                        output.o
ec_GFp_simple_group_get_curve                     output.o
ec_GFp_simple_group_get_degree                    output.o
ec_GFp_simple_group_init                          output.o
ec_GFp_simple_group_set_curve                     output.o
ec_GFp_simple_invert                              output.o
ec_GFp_simple_is_at_infinity                      output.o
ec_GFp_simple_is_on_curve                         output.o
ec_GFp_simple_make_affine                         output.o
ec_GFp_simple_oct2point                           output.o
ec_GFp_simple_point2oct                           output.o
ec_GFp_simple_point_clear_finish                  output.o
ec_GFp_simple_point_copy                          output.o
ec_GFp_simple_point_finish                        output.o
ec_GFp_simple_point_get_affine_coordinates        output.o
ec_GFp_simple_point_init                          output.o
ec_GFp_simple_point_set_affine_coordinates        output.o
ec_GFp_simple_point_set_to_infinity               output.o
ec_GFp_simple_points_make_affine                  output.o
ec_GFp_simple_set_Jprojective_coordinates_GFp     output.o
ec_GFp_simple_set_compressed_coordinates          output.o
ec_pkey_meth                                      output.o
ec_wNAF_have_precompute_mult                      output.o
ec_wNAF_mul                                       output.o
ec_wNAF_precompute_mult                           output.o
ecdh_check                                        output.o
ecdsa_check                                       output.o
eckey_asn1_meth                                   output.o
ehci_check_advance                                output.o
ehci_check_urb_advance                            output.o
ehci_cleanup_urbs                                 output.o
ehci_conceal_portroute                            output.o
ehci_deactivate_urb                               output.o
ehci_dump_alist                                   output.o
ehci_dump_all                                     output.o
ehci_dump_async                                   output.o
ehci_dump_qtd                                     output.o
ehci_dump_qtdm                                    output.o
ehci_dump_urb                                     output.o
ehci_dump_urblist                                 output.o
ehci_end_monitor_async                            output.o
ehci_host                                         output.o
ehci_init                                         output.o
ehci_monitor_async_list                           output.o
ehci_shadow_async_list                            output.o
ehci_shadow_buffer                                output.o
ehci_submit_bulk                                  output.o
ehci_submit_control                               output.o
ehci_submit_interrupt                             output.o
end                                               output.o
entry                                             output.o
entry_pd                                          output.o
entry_pd0                                         output.o
entry_pdp                                         output.o
evp_pkey_set_cb_translate                         output.o
exitprocess                                       output.o
fill_pagetable                                    output.o
free                                              output.o
free_config_descriptors                           output.o
free_device                                       output.o
free_page                                         output.o
free_page_phys                                    output.o
g_rgSCardT0Pci                                    output.o
g_rgSCardT1Pci                                    output.o
get_acpi_time                                     output.o
get_acpi_time_raw                                 output.o
get_cpu_id                                        output.o
get_cpu_time                                      output.o
get_gurb_by_address                               output.o
get_idman_session                                 output.o
get_pte                                           output.o
get_seg_access_rights                             output.o
get_seg_base                                      output.o
get_time                                          output.o
getfakesysmemmap                                  output.o
getsysmemmap                                      output.o
gmm_pass_gp2hp                                    output.o
gs_current                                        output.o
gs_currentcpu                                     output.o
gs_init_count                                     output.o
gs_inthandling                                    output.o
gs_nmi                                            output.o
gs_syscallstack                                   output.o
guest_int0x15_e801_fake_ax                        output.o
guest_int0x15_e801_fake_bx                        output.o
guest_int0x15_e820_data_minus0x18                 output.o
guest_int0x15_e820_end                            output.o
guest_int0x15_hook                                output.o
guest_int0x15_hook_end                            output.o
guest_int0x15_orig                                output.o
hContext                                          output.o
hObjectCnt                                        output.o
hSessionCnt                                       output.o
handle_connect_status                             output.o
handle_init_to_bsp                                output.o
handle_port_reset                                 output.o
handler_descriptor                                output.o
handler_descriptor_lock                           output.o
head                                              output.o
hex_to_string                                     output.o
hmac_asn1_meth                                    output.o
hmac_pkey_meth                                    output.o
htoi                                              output.o
hub_portdevice_register                           output.o
i2a_ACCESS_DESCRIPTION                            output.o
i2a_ASN1_INTEGER                                  output.o
i2a_ASN1_OBJECT                                   output.o
i2a_ASN1_STRING                                   output.o
i2c_ASN1_BIT_STRING                               output.o
i2c_ASN1_INTEGER                                  output.o
i2d_ACCESS_DESCRIPTION                            output.o
i2d_ASN1_BIT_STRING                               output.o
i2d_ASN1_BMPSTRING                                output.o
i2d_ASN1_BOOLEAN                                  output.o
i2d_ASN1_ENUMERATED                               output.o
i2d_ASN1_GENERALIZEDTIME                          output.o
i2d_ASN1_GENERALSTRING                            output.o
i2d_ASN1_IA5STRING                                output.o
i2d_ASN1_INTEGER                                  output.o
i2d_ASN1_NULL                                     output.o
i2d_ASN1_OBJECT                                   output.o
i2d_ASN1_OCTET_STRING                             output.o
i2d_ASN1_PRINTABLE                                output.o
i2d_ASN1_PRINTABLESTRING                          output.o
i2d_ASN1_SEQUENCE_ANY                             output.o
i2d_ASN1_SET                                      output.o
i2d_ASN1_SET_ANY                                  output.o
i2d_ASN1_T61STRING                                output.o
i2d_ASN1_TIME                                     output.o
i2d_ASN1_TYPE                                     output.o
i2d_ASN1_UNIVERSALSTRING                          output.o
i2d_ASN1_UTCTIME                                  output.o
i2d_ASN1_UTF8STRING                               output.o
i2d_ASN1_VISIBLESTRING                            output.o
i2d_ASN1_bio_stream                               output.o
i2d_ASN1_bytes                                    output.o
i2d_AUTHORITY_INFO_ACCESS                         output.o
i2d_AUTHORITY_KEYID                               output.o
i2d_BASIC_CONSTRAINTS                             output.o
i2d_CERTIFICATEPOLICIES                           output.o
i2d_CMS_ContentInfo                               output.o
i2d_CMS_bio                                       output.o
i2d_CMS_bio_stream                                output.o
i2d_CRL_DIST_POINTS                               output.o
i2d_DHparams                                      output.o
i2d_DIRECTORYSTRING                               output.o
i2d_DISPLAYTEXT                                   output.o
i2d_DIST_POINT                                    output.o
i2d_DIST_POINT_NAME                               output.o
i2d_DSAPrivateKey                                 output.o
i2d_DSAPrivateKey_bio                             output.o
i2d_DSAPublicKey                                  output.o
i2d_DSA_PUBKEY                                    output.o
i2d_DSA_PUBKEY_bio                                output.o
i2d_DSA_SIG                                       output.o
i2d_DSAparams                                     output.o
i2d_ECDSA_SIG                                     output.o
i2d_ECPKPARAMETERS                                output.o
i2d_ECPKParameters                                output.o
i2d_ECParameters                                  output.o
i2d_ECPrivateKey                                  output.o
i2d_ECPrivateKey_bio                              output.o
i2d_EC_PRIVATEKEY                                 output.o
i2d_EC_PUBKEY                                     output.o
i2d_EC_PUBKEY_bio                                 output.o
i2d_EDIPARTYNAME                                  output.o
i2d_EXTENDED_KEY_USAGE                            output.o
i2d_GENERAL_NAME                                  output.o
i2d_GENERAL_NAMES                                 output.o
i2d_ISSUING_DIST_POINT                            output.o
i2d_NETSCAPE_CERT_SEQUENCE                        output.o
i2d_NETSCAPE_SPKAC                                output.o
i2d_NETSCAPE_SPKI                                 output.o
i2d_NOTICEREF                                     output.o
i2d_OCSP_BASICRESP                                output.o
i2d_OCSP_CERTID                                   output.o
i2d_OCSP_CERTSTATUS                               output.o
i2d_OCSP_CRLID                                    output.o
i2d_OCSP_ONEREQ                                   output.o
i2d_OCSP_REQINFO                                  output.o
i2d_OCSP_REQUEST                                  output.o
i2d_OCSP_RESPBYTES                                output.o
i2d_OCSP_RESPDATA                                 output.o
i2d_OCSP_RESPID                                   output.o
i2d_OCSP_RESPONSE                                 output.o
i2d_OCSP_REVOKEDINFO                              output.o
i2d_OCSP_SERVICELOC                               output.o
i2d_OCSP_SIGNATURE                                output.o
i2d_OCSP_SINGLERESP                               output.o
i2d_OTHERNAME                                     output.o
i2d_PBE2PARAM                                     output.o
i2d_PBEPARAM                                      output.o
i2d_PBKDF2PARAM                                   output.o
i2d_PKCS12                                        output.o
i2d_PKCS12_BAGS                                   output.o
i2d_PKCS12_MAC_DATA                               output.o
i2d_PKCS12_SAFEBAG                                output.o
i2d_PKCS12_bio                                    output.o
i2d_PKCS7                                         output.o
i2d_PKCS7_DIGEST                                  output.o
i2d_PKCS7_ENCRYPT                                 output.o
i2d_PKCS7_ENC_CONTENT                             output.o
i2d_PKCS7_ENVELOPE                                output.o
i2d_PKCS7_ISSUER_AND_SERIAL                       output.o
i2d_PKCS7_NDEF                                    output.o
i2d_PKCS7_RECIP_INFO                              output.o
i2d_PKCS7_SIGNED                                  output.o
i2d_PKCS7_SIGNER_INFO                             output.o
i2d_PKCS7_SIGN_ENVELOPE                           output.o
i2d_PKCS7_bio                                     output.o
i2d_PKCS8PrivateKeyInfo_bio                       output.o
i2d_PKCS8PrivateKey_bio                           output.o
i2d_PKCS8PrivateKey_nid_bio                       output.o
i2d_PKCS8_PRIV_KEY_INFO                           output.o
i2d_PKCS8_PRIV_KEY_INFO_bio                       output.o
i2d_PKCS8_bio                                     output.o
i2d_PKEY_USAGE_PERIOD                             output.o
i2d_POLICYINFO                                    output.o
i2d_POLICYQUALINFO                                output.o
i2d_PROXY_CERT_INFO_EXTENSION                     output.o
i2d_PROXY_POLICY                                  output.o
i2d_PUBKEY                                        output.o
i2d_PUBKEY_bio                                    output.o
i2d_PrivateKey                                    output.o
i2d_PrivateKey_bio                                output.o
i2d_RSAPrivateKey                                 output.o
i2d_RSAPrivateKey_bio                             output.o
i2d_RSAPublicKey                                  output.o
i2d_RSAPublicKey_bio                              output.o
i2d_RSA_PUBKEY                                    output.o
i2d_RSA_PUBKEY_bio                                output.o
i2d_SXNET                                         output.o
i2d_SXNETID                                       output.o
i2d_USERNOTICE                                    output.o
i2d_X509                                          output.o
i2d_X509_ALGOR                                    output.o
i2d_X509_ALGORS                                   output.o
i2d_X509_ATTRIBUTE                                output.o
i2d_X509_AUX                                      output.o
i2d_X509_CERT_AUX                                 output.o
i2d_X509_CERT_PAIR                                output.o
i2d_X509_CINF                                     output.o
i2d_X509_CRL                                      output.o
i2d_X509_CRL_INFO                                 output.o
i2d_X509_CRL_bio                                  output.o
i2d_X509_EXTENSION                                output.o
i2d_X509_EXTENSIONS                               output.o
i2d_X509_NAME                                     output.o
i2d_X509_NAME_ENTRY                               output.o
i2d_X509_PUBKEY                                   output.o
i2d_X509_REQ                                      output.o
i2d_X509_REQ_INFO                                 output.o
i2d_X509_REQ_bio                                  output.o
i2d_X509_REVOKED                                  output.o
i2d_X509_SIG                                      output.o
i2d_X509_VAL                                      output.o
i2d_X509_bio                                      output.o
i2o_ECPublicKey                                   output.o
i2s_ASN1_ENUMERATED                               output.o
i2s_ASN1_ENUMERATED_TABLE                         output.o
i2s_ASN1_INTEGER                                  output.o
i2s_ASN1_OCTET_STRING                             output.o
i2t_ASN1_OBJECT                                   output.o
i2v_ASN1_BIT_STRING                               output.o
i2v_GENERAL_NAME                                  output.o
i2v_GENERAL_NAMES                                 output.o
idea_cbc_encrypt                                  output.o
idea_cfb64_encrypt                                output.o
idea_ecb_encrypt                                  output.o
idea_encrypt                                      output.o
idea_ofb64_encrypt                                output.o
idea_options                                      output.o
idea_set_decrypt_key                              output.o
idea_set_encrypt_key                              output.o
idman_reinit2                                     output.o
idman_reinit_session                              output.o
idman_user_init                                   output.o
ieee1394_init                                     output.o
init_hframelist                                   output.o
initfunc_init                                     output.o
int1a_TCG_CompactHashLogExtendEvent               output.o
int1a_TCG_HashAll                                 output.o
int1a_TCG_HashLogEvent                            output.o
int1a_TCG_HashLogExtendEvent                      output.o
int1a_TCG_PassThroughToTPM                        output.o
int1a_TCG_StatusCheck                             output.o
int1a_TCG_TSS                                     output.o
int_callfunc                                      output.o
int_exceptionHandler                              output.o
int_fatal                                         output.o
int_handler                                       output.o
int_init_ap                                       output.o
int_rsa_verify                                    output.o
iodom_init                                        output.o
iommu_detected                                    output.o
iommu_setup                                       output.o
ipchecksum                                        output.o
keyboard_flush                                    output.o
keyboard_reset                                    output.o
level_add_node                                    output.o
level_find_node                                   output.o
lh_delete                                         output.o
lh_doall                                          output.o
lh_doall_arg                                      output.o
lh_free                                           output.o
lh_insert                                         output.o
lh_new                                            output.o
lh_num_items                                      output.o
lh_retrieve                                       output.o
lh_strhash                                        output.o
lh_version                                        output.o
libInitFlag                                       output.o
load_bootsector                                   output.o
load_minios                                       output.o
load_new_vcpu                                     output.o
localapic_change_base_msr                         output.o
localapic_delayed_ap_start                        output.o
localapic_mmio_register                           output.o
localapic_wait_for_sipi                           output.o
log                                               output.o
mapmem                                            output.o
mapmem_gphys                                      output.o
mapmem_hphys                                      output.o
matched_drhd_u                                    output.o
md4_block_data_order                              output.o
md5_block_data_order                              output.o
memcmp                                            output.o
memcpy                                            output.o
memorysize                                        output.o
mempool_allocmem                                  output.o
mempool_free                                      output.o
mempool_freemem                                   output.o
mempool_new                                       output.o
memset                                            output.o
message_exitcode                                  output.o
message_exitreason                                output.o
mm_flush_wb_cache                                 output.o
mm_force_unlock                                   output.o
mm_process_alloc                                  output.o
mm_process_free                                   output.o
mm_process_map_alloc                              output.o
mm_process_map_shared                             output.o
mm_process_map_shared_physpage                    output.o
mm_process_map_stack                              output.o
mm_process_switch                                 output.o
mm_process_unmap                                  output.o
mm_process_unmap_stack                            output.o
mm_process_unmapall                               output.o
mmio_access_memory                                output.o
mmio_access_page                                  output.o
mmio_lock                                         output.o
mmio_register                                     output.o
mmio_register_unlocked                            output.o
mmio_unlock                                       output.o
mmio_unregister                                   output.o
move_vmm_area32                                   output.o
move_vmm_area64                                   output.o
mpudiv_128_32                                     output.o
mpumul_64_64                                      output.o
msg_findname                                      output.o
msg_register                                      output.o
msg_unregister                                    output.o
msg_unregister2                                   output.o
msg_unregisterall                                 output.o
msg_usb_bulk_read                                 output.o
msg_usb_bulk_write                                output.o
msg_usb_claim_interface                           output.o
msg_usb_close                                     output.o
msg_usb_control_msg                               output.o
msg_usb_find_busses                               output.o
msg_usb_find_devices                              output.o
msg_usb_get_busses                                output.o
msg_usb_get_string_simple                         output.o
msg_usb_init                                      output.o
msg_usb_open                                      output.o
msg_usb_release_interface                         output.o
msg_usb_reset                                     output.o
msg_vpn_FreeTimer                                 output.o
msg_vpn_GetCurrentCpuId                           output.o
msg_vpn_GetPhysicalNicInfo                        output.o
msg_vpn_GetTickCount                              output.o
msg_vpn_GetVirtualNicInfo                         output.o
msg_vpn_NewTimer                                  output.o
msg_vpn_SendPhysicalNic                           output.o
msg_vpn_SendVirtualNic                            output.o
msg_vpn_SetPhysicalNicRecvCallback                output.o
msg_vpn_SetTimer                                  output.o
msg_vpn_SetVirtualNicRecvCallback                 output.o
msg_vpn_ic_rsa_sign                               output.o
msgclose                                          output.o
msgopen                                           output.o
msgpremapbuf                                      output.o
msgregister                                       output.o
msgsendbuf                                        output.o
msgsenddesc                                       output.o
msgsendint                                        output.o
msgsetfunc                                        output.o
msgunregister                                     output.o
mszReaders                                        output.o
name_cmp                                          output.o
newprocess                                        output.o
num_dom                                           output.o
num_of_available_pages                            output.o
num_of_processors                                 output.o
o2i_ECPublicKey                                   output.o
obj_cleanup_defer                                 output.o
packet_handle_command                             output.o
packet_handle_config                              output.o
packet_handle_invalid                             output.o
packet_handle_nondata                             output.o
packet_handle_rw                                  output.o
packet_handle_through                             output.o
panic                                             output.o
panic_oom                                         output.o
panic_test                                        output.o
panic_wakeup_all                                  output.o
parse_dmar_bios_report                            output.o
pci_append_device                                 output.o
pci_conceal_config_data_handler                   output.o
pci_conceal_new_device                            output.o
pci_config_addr_handler                           output.o
pci_config_data_handler                           output.o
pci_config_mmio_data_head                         output.o
pci_config_mmio_handler                           output.o
pci_device_list_head                              output.o
pci_driver_list_head                              output.o
pci_handle_default_config_read                    output.o
pci_handle_default_config_write                   output.o
pci_possible_new_device                           output.o
pci_print_device                                  output.o
pci_read_config_data16                            output.o
pci_read_config_data32                            output.o
pci_read_config_data8                             output.o
pci_read_config_data_port                         output.o
pci_read_config_mmio                              output.o
pci_readwrite_config_mmio                         output.o
pci_register_driver                               output.o
pci_restore_config_addr                           output.o
pci_save_config_addr                              output.o
pci_write_config_data16                           output.o
pci_write_config_data32                           output.o
pci_write_config_data8                            output.o
pci_write_config_data_port                        output.o
pci_write_config_mmio                             output.o
pcpu_default                                      output.o
pcpu_init                                         output.o
pcpu_list_add                                     output.o
pcpu_list_foreach                                 output.o
pem_check_suffix                                  output.o
phys_in_vmm                                       output.o
phys_to_virt                                      output.o
pmap_autoalloc                                    output.o
pmap_clear                                        output.o
pmap_close                                        output.o
pmap_dump                                         output.o
pmap_getreadlevel                                 output.o
pmap_open_guest                                   output.o
pmap_open_vmm                                     output.o
pmap_pointer                                      output.o
pmap_read                                         output.o
pmap_seek                                         output.o
pmap_setlevel                                     output.o
pmap_write                                        output.o
policy_cache_find_data                            output.o
policy_cache_free                                 output.o
policy_cache_set                                  output.o
policy_cache_set_mapping                          output.o
policy_data_free                                  output.o
policy_data_new                                   output.o
policy_node_cmp_new                               output.o
policy_node_free                                  output.o
policy_node_match                                 output.o
prepare_for_sleep                                 output.o
print_mm                                          output.o
printexitcode                                     output.o
printexitreason                                   output.o
printf                                            output.o
pro100_alloc_page                                 output.o
pro100_alloc_recv_buffer                          output.o
pro100_beep                                       output.o
pro100_config_read                                output.o
pro100_config_write                               output.o
pro100_exec_cu_op                                 output.o
pro100_flush                                      output.o
pro100_free_page                                  output.o
pro100_generate_int                               output.o
pro100_get_ctx                                    output.o
pro100_get_cu_command_string                      output.o
pro100_get_int_bit_string                         output.o
pro100_get_op_size                                output.o
pro100_get_ru_command_string                      output.o
pro100_get_stat_ack_string                        output.o
pro100_hook_read                                  output.o
pro100_hook_write                                 output.o
pro100_init                                       output.o
pro100_init_cu_base_addr                          output.o
pro100_init_recv_buffer                           output.o
pro100_init_ru_base_addr                          output.o
pro100_init_vpn_client                            output.o
pro100_io_handler                                 output.o
pro100_mem_read                                   output.o
pro100_mem_write                                  output.o
pro100_mm_handler                                 output.o
pro100_new                                        output.o
pro100_poll_ru                                    output.o
pro100_proc_guest_op                              output.o
pro100_read                                       output.o
pro100_read_send_packet                           output.o
pro100_send_packet_to_line                        output.o
pro100_sleep                                      output.o
pro100_wait_cu_ru_accepable                       output.o
pro100_write                                      output.o
pro100_write_recv_packet                          output.o
process                                           output.o
process_kill                                      output.o
process_syscall                                   output.o
processuser_no_sysenter                           output.o
processuser_syscall                               output.o
processuser_sysenter                              output.o
prohibit_iccard_init                              output.o
ps2_locked                                        output.o
putchar                                           output.o
putchar_set_func                                  output.o
rand_ssleay_meth                                  output.o
read_gphys_b                                      output.o
read_gphys_l                                      output.o
read_gphys_q                                      output.o
read_gphys_w                                      output.o
read_hphys_b                                      output.o
read_hphys_l                                      output.o
read_hphys_q                                      output.o
read_hphys_w                                      output.o
read_linearaddr_b                                 output.o
read_linearaddr_l                                 output.o
read_linearaddr_q                                 output.o
read_linearaddr_tss                               output.o
read_linearaddr_w                                 output.o
read_str_va                                       output.o
readerState                                       output.o
readerTracker                                     output.o
realloc                                           output.o
reboot_test                                       output.o
reg_event_read                                    output.o
reg_event_write                                   output.o
register_status_callback                          output.o
resume_vm                                         output.o
ret_to_user32                                     output.o
ret_to_user64                                     output.o
ripemd160_block_data_order                        output.o
rsa_asn1_meths                                    output.o
rsa_pkey_meth                                     output.o
rt                                                output.o
s2i_ASN1_INTEGER                                  output.o
s2i_ASN1_OCTET_STRING                             output.o
sReaderContext                                    output.o
savemsr_index                                     output.o
savemsr_load                                      output.o
savemsr_save                                      output.o
scan_gframelist                                   output.o
schedule                                          output.o
security_storage_check_lba                        output.o
segment_init_ap                                   output.o
segment_wakeup                                    output.o
serial_getDebugChar                               output.o
serial_init_iohook                                output.o
serial_putDebugChar                               output.o
serial_putchar                                    output.o
sessionTable                                      output.o
set_int_handler                                   output.o
set_iofunc                                        output.o
setkbdled                                         output.o
shadow_and_activate_urb                           output.o
sig_app                                           output.o
sigx_app                                          output.o
sk_delete                                         output.o
sk_delete_ptr                                     output.o
sk_dup                                            output.o
sk_find                                           output.o
sk_find_ex                                        output.o
sk_free                                           output.o
sk_insert                                         output.o
sk_is_sorted                                      output.o
sk_new                                            output.o
sk_new_null                                       output.o
sk_num                                            output.o
sk_pop                                            output.o
sk_pop_free                                       output.o
sk_push                                           output.o
sk_set                                            output.o
sk_set_cmp_func                                   output.o
sk_shift                                          output.o
sk_sort                                           output.o
sk_unshift                                        output.o
sk_value                                          output.o
sk_zero                                           output.o
sleep_set_timer_counter                           output.o
slotFlag                                          output.o
slotTable                                         output.o
snprintf                                          output.o
start_all_processors                              output.o
storage_free                                      output.o
storage_get_num_hc                                output.o
storage_handle_sectors                            output.o
storage_hc_close                                  output.o
storage_hc_dev_atacommand                         output.o
storage_hc_dev_close                              output.o
storage_hc_dev_open                               output.o
storage_hc_hook_register                          output.o
storage_hc_hook_unregister                        output.o
storage_hc_open                                   output.o
storage_hc_register                               output.o
storage_hc_scandev                                output.o
storage_hc_unregister                             output.o
storage_init                                      output.o
storage_io_aget_size                              output.o
storage_io_aread                                  output.o
storage_io_awrite                                 output.o
storage_io_deinit                                 output.o
storage_io_get_num_devices                        output.o
storage_io_init                                   output.o
storage_new                                       output.o
storage_premap_buf                                output.o
storage_premap_handle_sectors                     output.o
strcmp                                            output.o
string_to_hex                                     output.o
strlen                                            output.o
svm_available                                     output.o
svm_enable_resume                                 output.o
svm_extern_iopass                                 output.o
svm_init                                          output.o
svm_init_signal                                   output.o
svm_ioio                                          output.o
svm_msr_update_lma                                output.o
svm_np_clear_all                                  output.o
svm_np_extern_mapsearch                           output.o
svm_np_init                                       output.o
svm_np_map_1mb                                    output.o
svm_np_pagefault                                  output.o
svm_np_tlbflush                                   output.o
svm_np_updatecr3                                  output.o
svm_paging_apply_fixed_cr0                        output.o
svm_paging_apply_fixed_cr4                        output.o
svm_paging_clear_all                              output.o
svm_paging_extern_flush_tlb_entry                 output.o
svm_paging_flush_guest_tlb                        output.o
svm_paging_get_gpat                               output.o
svm_paging_init                                   output.o
svm_paging_invalidate                             output.o
svm_paging_map_1mb                                output.o
svm_paging_npf                                    output.o
svm_paging_pagefault                              output.o
svm_paging_pg_change                              output.o
svm_paging_set_gpat                               output.o
svm_paging_spt_setcr3                             output.o
svm_paging_start                                  output.o
svm_paging_tlbflush                               output.o
svm_paging_updatecr3                              output.o
svm_panic_dump                                    output.o
svm_read_control_reg                              output.o
svm_read_flags                                    output.o
svm_read_gdtr                                     output.o
svm_read_general_reg                              output.o
svm_read_idtr                                     output.o
svm_read_ip                                       output.o
svm_read_msr                                      output.o
svm_read_sreg_acr                                 output.o
svm_read_sreg_base                                output.o
svm_read_sreg_limit                               output.o
svm_read_sreg_sel                                 output.o
svm_reset                                         output.o
svm_resume                                        output.o
svm_start_vm                                      output.o
svm_vmexit                                        output.o
svm_vminit                                        output.o
svm_write_control_reg                             output.o
svm_write_flags                                   output.o
svm_write_gdtr                                    output.o
svm_write_general_reg                             output.o
svm_write_idtr                                    output.o
svm_write_ip                                      output.o
svm_write_msr                                     output.o
svm_write_realmode_seg                            output.o
svm_writing_sreg                                  output.o
sx_handler                                        output.o
sym_to_phys                                       output.o
sync_all_processors                               output.o
sys_exitprocess                                   output.o
sys_msgclose                                      output.o
sys_msgopen                                       output.o
sys_msgregister                                   output.o
sys_msgret                                        output.o
sys_msgsendbuf                                    output.o
sys_msgsenddesc                                   output.o
sys_msgsendint                                    output.o
sys_msgsetfunc                                    output.o
sys_msgunregister                                 output.o
sys_newprocess                                    output.o
syscall_entry_lret                                output.o
syscall_entry_sysexit                             output.o
syscall_entry_sysret64                            output.o
tcg_measure                                       output.o
thread_exit                                       output.o
thread_gettid                                     output.o
thread_new                                        output.o
thread_start0                                     output.o
thread_start1                                     output.o
thread_switch                                     output.o
thread_wakeup                                     output.o
thread_will_stop                                  output.o
timer_free                                        output.o
timer_new                                         output.o
timer_set                                         output.o
tree_find_sk                                      output.o
tty_init_iohook                                   output.o
tty_putchar                                       output.o
tty_udp_register                                  output.o
ttylog_stop                                       output.o
uefi_acpi_20_table                                output.o
uefi_acpi_table                                   output.o
uefi_allocate_pages                               output.o
uefi_booted                                       output.o
uefi_conin                                        output.o
uefi_conin_read_key_stroke                        output.o
uefi_conout                                       output.o
uefi_conout_output_string                         output.o
uefi_entry_call                                   output.o
uefi_entry_pcpy                                   output.o
uefi_entry_ret_addr                               output.o
uefi_entry_rsp                                    output.o
uefi_entry_start                                  output.o
uefi_entry_virttophys                             output.o
uefi_free_pages                                   output.o
uefi_get_memory_map                               output.o
uefi_init                                         output.o
uefi_init_get_vmmsize                             output.o
uefi_memory_map_data                              output.o
uefi_memory_map_descsize                          output.o
uefi_memory_map_size                              output.o
uefi_wait_for_event                               output.o
uhci_activate_urb                                 output.o
uhci_check_advance                                output.o
uhci_check_urb_advance                            output.o
uhci_create_urb                                   output.o
uhci_current_frame_number                         output.o
uhci_deactivate_urb                               output.o
uhci_destroy_unlinked_urbs                        output.o
uhci_destroy_urb                                  output.o
uhci_dump_all                                     output.o
uhci_error_status_string                          output.o
uhci_framelist_monitor                            output.o
uhci_init                                         output.o
uhci_monitor_boost_hc                             output.o
uhci_reactivate_urb                               output.o
uhci_shadow_buffer                                output.o
uhci_submit_bulk                                  output.o
uhci_submit_control                               output.o
uhci_submit_interrupt                             output.o
unmapmem                                          output.o
update_mtrr_and_pat                               output.o
usb_bulk_read                                     output.o
usb_bulk_write                                    output.o
usb_busses_head                                   output.o
usb_claim_interface                               output.o
usb_clear_halt                                    output.o
usb_close                                         output.o
usb_control_msg                                   output.o
usb_find_busses                                   output.o
usb_find_devices                                  output.o
usb_get_bus                                       output.o
usb_get_busses                                    output.o
usb_get_descriptor                                output.o
usb_get_descriptor_by_endpoint                    output.o
usb_get_descriptor_early                          output.o
usb_get_string                                    output.o
usb_get_string_simple                             output.o
usb_hc_list_head                                  output.o
usb_hook_process                                  output.o
usb_hook_register                                 output.o
usb_hook_unregister                               output.o
usb_init                                          output.o
usb_init_device_monitor                           output.o
usb_interrupt_read                                output.o
usb_interrupt_write                               output.o
usb_log_level                                     output.o
usb_new_dev_handle                                output.o
usb_open                                          output.o
usb_register_host                                 output.o
usb_release_interface                             output.o
usb_reset                                         output.o
usb_resetep                                       output.o
usb_sc_lock                                       output.o
usb_sc_unlock                                     output.o
usb_set_altinterface                              output.o
usb_set_configuration                             output.o
usb_set_debug                                     output.o
usb_unregister_devices                            output.o
usbccid_init_handle                               output.o
usbhid_init_handle                                output.o
usbhub_init_handle                                output.o
usbmsc_init_handle                                output.o
use_pae                                           output.o
usleep                                            output.o
v2i_ASN1_BIT_STRING                               output.o
v2i_GENERAL_NAME                                  output.o
v2i_GENERAL_NAMES                                 output.o
v2i_GENERAL_NAME_ex                               output.o
v3_akey_id                                        output.o
v3_alt                                            output.o
v3_bcons                                          output.o
v3_cpols                                          output.o
v3_crl_hold                                       output.o
v3_crl_invdate                                    output.o
v3_crl_num                                        output.o
v3_crl_reason                                     output.o
v3_crld                                           output.o
v3_delta_crl                                      output.o
v3_ext_ku                                         output.o
v3_freshest_crl                                   output.o
v3_idp                                            output.o
v3_info                                           output.o
v3_inhibit_anyp                                   output.o
v3_key_usage                                      output.o
v3_name_constraints                               output.o
v3_ns_ia5_list                                    output.o
v3_nscert                                         output.o
v3_ocsp_accresp                                   output.o
v3_ocsp_acutoff                                   output.o
v3_ocsp_crlid                                     output.o
v3_ocsp_nocheck                                   output.o
v3_ocsp_nonce                                     output.o
v3_ocsp_serviceloc                                output.o
v3_pci                                            output.o
v3_pkey_usage_period                              output.o
v3_policy_constraints                             output.o
v3_policy_mappings                                output.o
v3_sinfo                                          output.o
v3_skey_id                                        output.o
v3_sxnet                                          output.o
vcpu_list_foreach                                 output.o
vga_fill_rect                                     output.o
vga_get_screen_size                               output.o
vga_is_ready                                      output.o
vga_register                                      output.o
vga_transfer_image                                output.o
virt_memcpy                                       output.o
virt_memcpy1                                      output.o
virt_phys                                         output.o
virt_pte                                          output.o
virt_to_phys                                      output.o
vmctl_svm_init                                    output.o
vmctl_vt_init                                     output.o
vmi_translate_ksym2v                              output.o
vmm_base_cr3                                      output.o
vmm_main                                          output.o
vmm_start_inf                                     output.o
vmm_start_phys                                    output.o
vmm_term_inf                                      output.o
vmmcall                                           output.o
vmmcall_boot_continue                             output.o
vmmcall_boot_enable                               output.o
vmmcall_init                                      output.o
vmmcall_register                                  output.o
vmmsize                                           output.o
vpn_FreeTimer                                     output.o
vpn_GetCurrentCpuId                               output.o
vpn_GetPhysicalNicInfo                            output.o
vpn_GetTickCount                                  output.o
vpn_GetVirtualNicInfo                             output.o
vpn_NewTimer                                      output.o
vpn_SendPhysicalNic                               output.o
vpn_SendVirtualNic                                output.o
vpn_SetPhysicalNicRecvCallback                    output.o
vpn_SetTimer                                      output.o
vpn_SetVirtualNicRecvCallback                     output.o
vpn_ic_rsa_sign                                   output.o
vpn_new_nic                                       output.o
vpn_premap_PhysicalNicRecv                        output.o
vpn_premap_VirtualNicRecv                         output.o
vpn_premap_recvbuf                                output.o
vpn_start                                         output.o
vpn_user_init                                     output.o
vprintf                                           output.o
vramwrite_clearscreen                             output.o
vramwrite_exit_global                             output.o
vramwrite_get_cursor_pos                          output.o
vramwrite_init_global                             output.o
vramwrite_mark1                                   output.o
vramwrite_mark2                                   output.o
vramwrite_mark3                                   output.o
vramwrite_putchar                                 output.o
vramwrite_restore_cursor                          output.o
vramwrite_save_and_move_cursor                    output.o
vsnprintf                                         output.o
vt__vmx_init                                      output.o
vt__vmxon                                         output.o
vt_add_guest_msr                                  output.o
vt_available                                      output.o
vt_enable_resume                                  output.o
vt_ept_clear_all                                  output.o
vt_ept_extern_mapsearch                           output.o
vt_ept_init                                       output.o
vt_ept_map_1mb                                    output.o
vt_ept_map_page                                   output.o
vt_ept_tlbflush                                   output.o
vt_ept_updatecr3                                  output.o
vt_ept_violation                                  output.o
vt_extern_iopass                                  output.o
vt_generate_external_int                          output.o
vt_generate_pagefault                             output.o
vt_get_current_regs_in_vmcs                       output.o
vt_get_vmcs_regs_in_vmcs                          output.o
vt_init                                           output.o
vt_init_signal                                    output.o
vt_io                                             output.o
vt_iopass                                         output.o
vt_iopass_init                                    output.o
vt_msr_init                                       output.o
vt_msr_update_lma                                 output.o
vt_paging_apply_fixed_cr0                         output.o
vt_paging_apply_fixed_cr4                         output.o
vt_paging_clear_all                               output.o
vt_paging_extern_flush_tlb_entry                  output.o
vt_paging_flush_guest_tlb                         output.o
vt_paging_get_gpat                                output.o
vt_paging_init                                    output.o
vt_paging_invalidate                              output.o
vt_paging_map_1mb                                 output.o
vt_paging_npf                                     output.o
vt_paging_pagefault                               output.o
vt_paging_pg_change                               output.o
vt_paging_set_gpat                                output.o
vt_paging_spt_setcr3                              output.o
vt_paging_start                                   output.o
vt_paging_tlbflush                                output.o
vt_paging_updatecr3                               output.o
vt_panic_dump                                     output.o
vt_read_control_reg                               output.o
vt_read_flags                                     output.o
vt_read_gdtr                                      output.o
vt_read_general_reg                               output.o
vt_read_guest_msr                                 output.o
vt_read_idtr                                      output.o
vt_read_ip                                        output.o
vt_read_msr                                       output.o
vt_read_sreg_acr                                  output.o
vt_read_sreg_base                                 output.o
vt_read_sreg_limit                                output.o
vt_read_sreg_sel                                  output.o
vt_reset                                          output.o
vt_resume                                         output.o
vt_start_vm                                       output.o
vt_update_exception_bmp                           output.o
vt_update_exint                                   output.o
vt_vmexit                                         output.o
vt_vminit                                         output.o
vt_vmptrld                                        output.o
vt_write_control_reg                              output.o
vt_write_flags                                    output.o
vt_write_gdtr                                     output.o
vt_write_general_reg                              output.o
vt_write_guest_msr                                output.o
vt_write_idtr                                     output.o
vt_write_ip                                       output.o
vt_write_msr                                      output.o
vt_write_realmode_seg                             output.o
vt_writing_sreg                                   output.o
waitcycles                                        output.o
wakeup_cont                                       output.o
wakeup_entry_addr                                 output.o
wakeup_entry_cr0                                  output.o
wakeup_entry_cr3                                  output.o
wakeup_entry_cr4                                  output.o
wakeup_entry_end                                  output.o
wakeup_entry_gdtr                                 output.o
wakeup_entry_start                                output.o
wakeup_init                                       output.o
wakeup_main                                       output.o
whirlpool_block                                   output.o
write_gphys_b                                     output.o
write_gphys_l                                     output.o
write_gphys_q                                     output.o
write_gphys_w                                     output.o
write_hphys_b                                     output.o
write_hphys_l                                     output.o
write_hphys_q                                     output.o
write_hphys_w                                     output.o
write_linearaddr_b                                output.o
write_linearaddr_l                                output.o
write_linearaddr_ok_b                             output.o
write_linearaddr_ok_l                             output.o
write_linearaddr_ok_w                             output.o
write_linearaddr_q                                output.o
write_linearaddr_tss                              output.o
write_linearaddr_w                                output.o
x509_name_ff                                      output.o
